
integr_v02.axf:     file format elf32-littlearm


Disassembly of section .text:

00000000 <myvectors>:
}

/* Run the session until DTR disconnect (returns when disconnect detected).
   This uses UART3 non-blocking reads and returns when GPIO PQ1 indicates session end. */
void cmdline_run_until_disconnect(void)
{
       0:	00 80 00 20 65 18 00 00 c1 18 00 00 c9 18 00 00     ... e...........
    if (!g_sent_welcome) {
      10:	d1 18 00 00 d1 18 00 00 d1 18 00 00 00 00 00 00     ................
	...
        g_sent_welcome = true;
    }

    for (;;) {
        /* Exit if DTR indicates disconnect (same polarity used in main) */
        if (ROM_GPIOPinRead(GPIO_PORTQ_BASE, GPIO_PIN_1)) {
      2c:	d1 18 00 00 d1 18 00 00 00 00 00 00 d1 18 00 00     ................
            /* session ended */
            return;
        }

        int ch = ROM_UARTCharGetNonBlocking(UART3_BASE);
      3c:	d1 18 00 00 d1 18 00 00 d1 18 00 00 d1 18 00 00     ................
        if (ch != -1) {
      4c:	d1 18 00 00 d1 18 00 00 41 0a 00 00 d1 18 00 00     ........A.......
            char c = (char)ch;

            /* Toggle PF4 LED on receive (same behavior as original) */
            static uint8_t led = 0;
            led = !led;
      5c:	d1 18 00 00 d1 18 00 00 00 00 00 00 00 00 00 00     ................
	...
            ROM_GPIOPinWrite(GPIO_PORTF_BASE, GPIO_PIN_4, led ? GPIO_PIN_4 : 0);
      78:	d1 18 00 00 d1 18 00 00 d1 18 00 00 d1 18 00 00     ................

            /* Backspace / DEL */
            if (c == '\b' || c == 0x7F) {
      88:	d1 18 00 00 d1 18 00 00 d1 18 00 00 d1 18 00 00     ................
                if (linepos > 0) {
                    linepos--;
      98:	d1 18 00 00 d1 18 00 00 d1 18 00 00 d1 18 00 00     ................
                    uart_echo_bs();
                    uart_line_notify_current(linebuf_local, linepos);
      a8:	d1 18 00 00 d1 18 00 00 d1 18 00 00 d1 18 00 00     ................
                } else {
                    ROM_UARTCharPutNonBlocking(UART3_BASE, '\a');
      b8:	d1 18 00 00 d1 18 00 00 d1 18 00 00 d1 18 00 00     ................
                    last_output_was_prompt = true;
                }
                continue;
      c8:	d1 18 00 00 d1 18 00 00 d1 18 00 00 d1 18 00 00     ................
            }

            /* Ctrl-U: kill line */
            if (c == 0x15) {
                while (linepos > 0) {
                    linepos--;
      d8:	d1 18 00 00 d1 18 00 00 d1 18 00 00 d1 18 00 00     ................
                    uart_echo_bs();
                }
                continue;
      e8:	d1 18 00 00 d1 18 00 00 d1 18 00 00 d1 18 00 00     ................
            }

            /* CR / LF */
            if (c == '\r' || c == '\n') {
                if (linepos > 0) {
      f8:	d1 18 00 00 d1 18 00 00 d1 18 00 00 d1 18 00 00     ................
                    linebuf_local[linepos] = '\0';
                    ROM_UARTCharPutNonBlocking(UART3_BASE, '\r');
     108:	d1 18 00 00 d1 18 00 00 d1 18 00 00 d1 18 00 00     ................
                    ROM_UARTCharPutNonBlocking(UART3_BASE, '\n');
     118:	d1 18 00 00 d1 18 00 00 dd 0a 00 00 d1 18 00 00     ................
                    handle_line_and_respond(linebuf_local);
     128:	d1 18 00 00 d1 18 00 00 d1 18 00 00 d1 18 00 00     ................
                }
                continue;
            }

            /* Printable char: uppercase-as-you-type */
            if ((unsigned char)c >= 32) {
     138:	d1 18 00 00 d1 18 00 00 d1 18 00 00 d1 18 00 00     ................
                char uc = (char)toupper((unsigned char)c);
     148:	d1 18 00 00 d1 18 00 00 00 00 00 00 00 00 00 00     ................
     158:	d1 18 00 00 d1 18 00 00 d1 18 00 00 d1 18 00 00     ................
                ROM_UARTCharPutNonBlocking(UART3_BASE, uc);
     168:	00 00 00 00 d1 18 00 00 d1 18 00 00 d1 18 00 00     ................
                if (linepos + 1 < UART_RX_BUF_SIZE) {
     178:	d1 18 00 00 d1 18 00 00 d1 18 00 00 d1 18 00 00     ................
                    linebuf_local[linepos++] = uc;
     188:	d1 18 00 00 d1 18 00 00 d1 18 00 00 d1 18 00 00     ................
                    uart_line_notify_current(linebuf_local, linepos);
     198:	d1 18 00 00 d1 18 00 00 d1 18 00 00 d1 18 00 00     ................
                } else {
                    output_puts("\r\n");
                    output_puts(ANSI_ERROR);
                    output_puts("ERROR: line too long\r\n");
     1a8:	d1 18 00 00 d1 18 00 00 d1 18 00 00 d1 18 00 00     ................
                    output_puts(ANSI_RESET);
                    prompt_print_once();
                    linepos = 0;
     1b8:	d1 18 00 00 d1 18 00 00 d1 18 00 00 d1 18 00 00     ................
                }
            }
        } else {
            /* small sleep to avoid busy-waiting */
            ROM_SysCtlDelay(ROM_SysCtlClockGet() / 3000);
     1c8:	d1 18 00 00 d1 18 00 00 d1 18 00 00 d1 18 00 00     ................
     1d8:	d1 18 00 00 d1 18 00 00 d1 18 00 00 d1 18 00 00     ................
        }
    }
}
     1e8:	d1 18 00 00 d1 18 00 00 d1 18 00 00 d1 18 00 00     ................
     1f8:	d1 18 00 00 d1 18 00 00                             ........

00000200 <UARTSend>:
     200:	b590      	push	{r4, r7, lr}
     202:	b085      	sub	sp, #20
     204:	af00      	add	r7, sp, #0
     206:	60f8      	str	r0, [r7, #12]
     208:	60b9      	str	r1, [r7, #8]
     20a:	4613      	mov	r3, r2
     20c:	71fb      	strb	r3, [r7, #7]
     20e:	e019      	b.n	244 <UARTSend+0x44>
     210:	79fb      	ldrb	r3, [r7, #7]
     212:	2b01      	cmp	r3, #1
     214:	d10b      	bne.n	22e <UARTSend+0x2e>
     216:	4b10      	ldr	r3, [pc, #64]	@ (258 <UARTSend+0x58>)
     218:	681b      	ldr	r3, [r3, #0]
     21a:	681b      	ldr	r3, [r3, #0]
     21c:	461c      	mov	r4, r3
     21e:	68fb      	ldr	r3, [r7, #12]
     220:	1c5a      	adds	r2, r3, #1
     222:	60fa      	str	r2, [r7, #12]
     224:	781b      	ldrb	r3, [r3, #0]
     226:	4619      	mov	r1, r3
     228:	480c      	ldr	r0, [pc, #48]	@ (25c <UARTSend+0x5c>)
     22a:	47a0      	blx	r4
     22c:	e00a      	b.n	244 <UARTSend+0x44>
     22e:	4b0a      	ldr	r3, [pc, #40]	@ (258 <UARTSend+0x58>)
        else MAP_UARTCharPut(UART0_BASE, *pui8Buffer++);
     230:	681b      	ldr	r3, [r3, #0]
     232:	681b      	ldr	r3, [r3, #0]
     234:	461c      	mov	r4, r3
     236:	68fb      	ldr	r3, [r7, #12]
     238:	1c5a      	adds	r2, r3, #1
     23a:	60fa      	str	r2, [r7, #12]
     23c:	781b      	ldrb	r3, [r3, #0]
     23e:	4619      	mov	r1, r3
     240:	4807      	ldr	r0, [pc, #28]	@ (260 <UARTSend+0x60>)
     242:	47a0      	blx	r4
    while (ui32Count--) {
     244:	68bb      	ldr	r3, [r7, #8]
     246:	1e5a      	subs	r2, r3, #1
     248:	60ba      	str	r2, [r7, #8]
     24a:	2b00      	cmp	r3, #0
     24c:	d1e0      	bne.n	210 <UARTSend+0x10>
}
     24e:	bf00      	nop
     250:	bf00      	nop
     252:	3714      	adds	r7, #20
     254:	46bd      	mov	sp, r7
     256:	bd90      	pop	{r4, r7, pc}
     258:	01000014 	.word	0x01000014
     25c:	4000f000 	.word	0x4000f000
     260:	4000c000 	.word	0x4000c000

00000264 <diag_vasprintf_heap>:
   replace with diag_snprintf_heap_send or diag_vasprintf_heap + UARTSend
    so no large stack frames remain.
*/

char *diag_vasprintf_heap(const char *fmt, va_list ap_in)
{
     264:	b580      	push	{r7, lr}
     266:	b088      	sub	sp, #32
     268:	af00      	add	r7, sp, #0
     26a:	6078      	str	r0, [r7, #4]
     26c:	6039      	str	r1, [r7, #0]
    va_list ap;
    va_copy(ap, ap_in);
     26e:	683b      	ldr	r3, [r7, #0]
     270:	60fb      	str	r3, [r7, #12]

    /* determine required size (C99: vsnprintf(NULL,0,...) returns needed length) */
    int needed = vsnprintf(NULL, 0, fmt, ap);
     272:	68fb      	ldr	r3, [r7, #12]
     274:	687a      	ldr	r2, [r7, #4]
     276:	2100      	movs	r1, #0
     278:	2000      	movs	r0, #0
     27a:	f001 fe6d 	bl	1f58 <vsnprintf>
     27e:	61f8      	str	r0, [r7, #28]
    va_end(ap);

    if (needed < 0) return NULL;
     280:	69fb      	ldr	r3, [r7, #28]
     282:	2b00      	cmp	r3, #0
     284:	da01      	bge.n	28a <diag_vasprintf_heap+0x26>
     286:	2300      	movs	r3, #0
     288:	e025      	b.n	2d6 <diag_vasprintf_heap+0x72>

    /* safety cap */
    if ((size_t)needed + 1 > DIAG_FMT_MAX_ALLOC) return NULL;
     28a:	69fb      	ldr	r3, [r7, #28]
     28c:	3301      	adds	r3, #1
     28e:	f5b3 5f80 	cmp.w	r3, #4096	@ 0x1000
     292:	d901      	bls.n	298 <diag_vasprintf_heap+0x34>
     294:	2300      	movs	r3, #0
     296:	e01e      	b.n	2d6 <diag_vasprintf_heap+0x72>

    size_t bufsize = (size_t)needed + 1;
     298:	69fb      	ldr	r3, [r7, #28]
     29a:	3301      	adds	r3, #1
     29c:	61bb      	str	r3, [r7, #24]
    char *buf = (char *)malloc(bufsize);
     29e:	69b8      	ldr	r0, [r7, #24]
     2a0:	f001 f9b8 	bl	1614 <malloc>
     2a4:	4603      	mov	r3, r0
     2a6:	617b      	str	r3, [r7, #20]
    if (!buf) return NULL;
     2a8:	697b      	ldr	r3, [r7, #20]
     2aa:	2b00      	cmp	r3, #0
     2ac:	d101      	bne.n	2b2 <diag_vasprintf_heap+0x4e>
     2ae:	2300      	movs	r3, #0
     2b0:	e011      	b.n	2d6 <diag_vasprintf_heap+0x72>

    va_list ap2;
    va_copy(ap2, ap_in);
     2b2:	683b      	ldr	r3, [r7, #0]
     2b4:	60bb      	str	r3, [r7, #8]
    int r = vsnprintf(buf, bufsize, fmt, ap2);
     2b6:	68bb      	ldr	r3, [r7, #8]
     2b8:	687a      	ldr	r2, [r7, #4]
     2ba:	69b9      	ldr	r1, [r7, #24]
     2bc:	6978      	ldr	r0, [r7, #20]
     2be:	f001 fe4b 	bl	1f58 <vsnprintf>
     2c2:	6138      	str	r0, [r7, #16]
    va_end(ap2);

    if (r < 0) { free(buf); return NULL; }
     2c4:	693b      	ldr	r3, [r7, #16]
     2c6:	2b00      	cmp	r3, #0
     2c8:	da04      	bge.n	2d4 <diag_vasprintf_heap+0x70>
     2ca:	6978      	ldr	r0, [r7, #20]
     2cc:	f001 f9d0 	bl	1670 <free>
     2d0:	2300      	movs	r3, #0
     2d2:	e000      	b.n	2d6 <diag_vasprintf_heap+0x72>

    return buf; /* caller must free() */
     2d4:	697b      	ldr	r3, [r7, #20]
}
     2d6:	4618      	mov	r0, r3
     2d8:	3720      	adds	r7, #32
     2da:	46bd      	mov	sp, r7
     2dc:	bd80      	pop	{r7, pc}

000002de <sprintf>:

/* Standard library replacements using our proven UART mechanics */

/* sprintf replacement: format into provided buffer using our heap-based formatter */
int sprintf(char *str, const char *format, ...)
{
     2de:	b40e      	push	{r1, r2, r3}
     2e0:	b580      	push	{r7, lr}
     2e2:	b087      	sub	sp, #28
     2e4:	af00      	add	r7, sp, #0
     2e6:	6078      	str	r0, [r7, #4]
    va_list ap;
    va_start(ap, format);
     2e8:	f107 0328 	add.w	r3, r7, #40	@ 0x28
     2ec:	60fb      	str	r3, [r7, #12]
    char *heap_buf = diag_vasprintf_heap(format, ap);
     2ee:	68f9      	ldr	r1, [r7, #12]
     2f0:	6a78      	ldr	r0, [r7, #36]	@ 0x24
     2f2:	f7ff ffb7 	bl	264 <diag_vasprintf_heap>
     2f6:	6178      	str	r0, [r7, #20]
    va_end(ap);
    
    if (!heap_buf) return -1;
     2f8:	697b      	ldr	r3, [r7, #20]
     2fa:	2b00      	cmp	r3, #0
     2fc:	d102      	bne.n	304 <sprintf+0x26>
     2fe:	f04f 33ff 	mov.w	r3, #4294967295	@ 0xffffffff
     302:	e00c      	b.n	31e <sprintf+0x40>
    
    /* Copy from heap buffer to user buffer */
    int len = (int)strlen(heap_buf);
     304:	6978      	ldr	r0, [r7, #20]
     306:	f001 fdbb 	bl	1e80 <strlen>
     30a:	4603      	mov	r3, r0
     30c:	613b      	str	r3, [r7, #16]
    strcpy(str, heap_buf);
     30e:	6979      	ldr	r1, [r7, #20]
     310:	6878      	ldr	r0, [r7, #4]
     312:	f005 f8b9 	bl	5488 <strcpy>
    free(heap_buf);
     316:	6978      	ldr	r0, [r7, #20]
     318:	f001 f9aa 	bl	1670 <free>
    
    return len;
     31c:	693b      	ldr	r3, [r7, #16]
}
     31e:	4618      	mov	r0, r3
     320:	371c      	adds	r7, #28
     322:	46bd      	mov	sp, r7
     324:	e8bd 4080 	ldmia.w	sp!, {r7, lr}
     328:	b003      	add	sp, #12
     32a:	4770      	bx	lr

0000032c <diag_putc>:
    return 0;
}

/* diag_putc: write one character using simple blocking approach */
void diag_putc(char c)
{
     32c:	b580      	push	{r7, lr}
     32e:	b082      	sub	sp, #8
     330:	af00      	add	r7, sp, #0
     332:	4603      	mov	r3, r0
     334:	71fb      	strb	r3, [r7, #7]
    /* Use simple blocking put to avoid clock dependency issues */
    ROM_UARTCharPut(UART0_BASE, c);
     336:	4b06      	ldr	r3, [pc, #24]	@ (350 <diag_putc+0x24>)
     338:	681b      	ldr	r3, [r3, #0]
     33a:	681b      	ldr	r3, [r3, #0]
     33c:	461a      	mov	r2, r3
     33e:	79fb      	ldrb	r3, [r7, #7]
     340:	4619      	mov	r1, r3
     342:	4804      	ldr	r0, [pc, #16]	@ (354 <diag_putc+0x28>)
     344:	4790      	blx	r2
}
     346:	bf00      	nop
     348:	3708      	adds	r7, #8
     34a:	46bd      	mov	sp, r7
     34c:	bd80      	pop	{r7, pc}
     34e:	bf00      	nop
     350:	01000014 	.word	0x01000014
     354:	4000c000 	.word	0x4000c000

00000358 <diag_puts>:
/* --- end diag_putc implementations --- */


/* Output NUL-terminated string (uses diag_putc) */
void diag_puts(const char *s)
{
     358:	b580      	push	{r7, lr}
     35a:	b082      	sub	sp, #8
     35c:	af00      	add	r7, sp, #0
     35e:	6078      	str	r0, [r7, #4]
    while (s && *s) diag_putc(*s++);
     360:	e006      	b.n	370 <diag_puts+0x18>
     362:	687b      	ldr	r3, [r7, #4]
     364:	1c5a      	adds	r2, r3, #1
     366:	607a      	str	r2, [r7, #4]
     368:	781b      	ldrb	r3, [r3, #0]
     36a:	4618      	mov	r0, r3
     36c:	f7ff ffde 	bl	32c <diag_putc>
     370:	687b      	ldr	r3, [r7, #4]
     372:	2b00      	cmp	r3, #0
     374:	d003      	beq.n	37e <diag_puts+0x26>
     376:	687b      	ldr	r3, [r7, #4]
     378:	781b      	ldrb	r3, [r3, #0]
     37a:	2b00      	cmp	r3, #0
     37c:	d1f1      	bne.n	362 <diag_puts+0xa>
}
     37e:	bf00      	nop
     380:	3708      	adds	r7, #8
     382:	46bd      	mov	sp, r7
     384:	bd80      	pop	{r7, pc}
	...

00000388 <diag_put_hex32>:

/* Print a 32-bit hex value as 0xXXXXXXXX */
void diag_put_hex32(uint32_t v)
{
     388:	b5b0      	push	{r4, r5, r7, lr}
     38a:	b088      	sub	sp, #32
     38c:	af00      	add	r7, sp, #0
     38e:	6078      	str	r0, [r7, #4]
    const char hex[] = "0123456789ABCDEF";
     390:	4b14      	ldr	r3, [pc, #80]	@ (3e4 <diag_put_hex32+0x5c>)
     392:	f107 0408 	add.w	r4, r7, #8
     396:	461d      	mov	r5, r3
     398:	cd0f      	ldmia	r5!, {r0, r1, r2, r3}
     39a:	c40f      	stmia	r4!, {r0, r1, r2, r3}
     39c:	682b      	ldr	r3, [r5, #0]
     39e:	7023      	strb	r3, [r4, #0]
    diag_puts("0x");
     3a0:	4811      	ldr	r0, [pc, #68]	@ (3e8 <diag_put_hex32+0x60>)
     3a2:	f7ff ffd9 	bl	358 <diag_puts>
    for (int i = 7; i >= 0; --i) {
     3a6:	2307      	movs	r3, #7
     3a8:	61fb      	str	r3, [r7, #28]
     3aa:	e013      	b.n	3d4 <diag_put_hex32+0x4c>
        uint8_t nib = (v >> (i * 4)) & 0xF;
     3ac:	69fb      	ldr	r3, [r7, #28]
     3ae:	009b      	lsls	r3, r3, #2
     3b0:	687a      	ldr	r2, [r7, #4]
     3b2:	fa22 f303 	lsr.w	r3, r2, r3
     3b6:	b2db      	uxtb	r3, r3
     3b8:	f003 030f 	and.w	r3, r3, #15
     3bc:	76fb      	strb	r3, [r7, #27]
        diag_putc(hex[nib]);
     3be:	7efb      	ldrb	r3, [r7, #27]
     3c0:	3320      	adds	r3, #32
     3c2:	443b      	add	r3, r7
     3c4:	f813 3c18 	ldrb.w	r3, [r3, #-24]
     3c8:	4618      	mov	r0, r3
     3ca:	f7ff ffaf 	bl	32c <diag_putc>
    for (int i = 7; i >= 0; --i) {
     3ce:	69fb      	ldr	r3, [r7, #28]
     3d0:	3b01      	subs	r3, #1
     3d2:	61fb      	str	r3, [r7, #28]
     3d4:	69fb      	ldr	r3, [r7, #28]
     3d6:	2b00      	cmp	r3, #0
     3d8:	dae8      	bge.n	3ac <diag_put_hex32+0x24>
    }
}
     3da:	bf00      	nop
     3dc:	bf00      	nop
     3de:	3720      	adds	r7, #32
     3e0:	46bd      	mov	sp, r7
     3e2:	bdb0      	pop	{r4, r5, r7, pc}
     3e4:	00008b1c 	.word	0x00008b1c
     3e8:	00008b18 	.word	0x00008b18

000003ec <diag_put_ptr>:

/* Print pointer value using 32-bit hex (works for Cortex-M) */
void diag_put_ptr(const void *p)
{
     3ec:	b580      	push	{r7, lr}
     3ee:	b082      	sub	sp, #8
     3f0:	af00      	add	r7, sp, #0
     3f2:	6078      	str	r0, [r7, #4]
    diag_put_hex32((uint32_t)(uintptr_t)p);
     3f4:	687b      	ldr	r3, [r7, #4]
     3f6:	4618      	mov	r0, r3
     3f8:	f7ff ffc6 	bl	388 <diag_put_hex32>
}
     3fc:	bf00      	nop
     3fe:	3708      	adds	r7, #8
     400:	46bd      	mov	sp, r7
     402:	bd80      	pop	{r7, pc}

00000404 <diag_put_u32_dec>:

/* helper: print unsigned decimal (up to 32-bit) */
void diag_put_u32_dec(uint32_t v)
{
     404:	b580      	push	{r7, lr}
     406:	b086      	sub	sp, #24
     408:	af00      	add	r7, sp, #0
     40a:	6078      	str	r0, [r7, #4]
    char buf[12];
    int i = 0;
     40c:	2300      	movs	r3, #0
     40e:	617b      	str	r3, [r7, #20]
    if (v == 0) {
     410:	687b      	ldr	r3, [r7, #4]
     412:	2b00      	cmp	r3, #0
     414:	d11d      	bne.n	452 <diag_put_u32_dec+0x4e>
        diag_putc('0');
     416:	2030      	movs	r0, #48	@ 0x30
     418:	f7ff ff88 	bl	32c <diag_putc>
     41c:	e02a      	b.n	474 <diag_put_u32_dec+0x70>
        return;
    }
    while (v) {
        buf[i++] = '0' + (v % 10);
     41e:	6879      	ldr	r1, [r7, #4]
     420:	4b16      	ldr	r3, [pc, #88]	@ (47c <diag_put_u32_dec+0x78>)
     422:	fba3 2301 	umull	r2, r3, r3, r1
     426:	08da      	lsrs	r2, r3, #3
     428:	4613      	mov	r3, r2
     42a:	009b      	lsls	r3, r3, #2
     42c:	4413      	add	r3, r2
     42e:	005b      	lsls	r3, r3, #1
     430:	1aca      	subs	r2, r1, r3
     432:	b2d2      	uxtb	r2, r2
     434:	697b      	ldr	r3, [r7, #20]
     436:	1c59      	adds	r1, r3, #1
     438:	6179      	str	r1, [r7, #20]
     43a:	3230      	adds	r2, #48	@ 0x30
     43c:	b2d2      	uxtb	r2, r2
     43e:	3318      	adds	r3, #24
     440:	443b      	add	r3, r7
     442:	f803 2c10 	strb.w	r2, [r3, #-16]
        v /= 10;
     446:	687b      	ldr	r3, [r7, #4]
     448:	4a0c      	ldr	r2, [pc, #48]	@ (47c <diag_put_u32_dec+0x78>)
     44a:	fba2 2303 	umull	r2, r3, r2, r3
     44e:	08db      	lsrs	r3, r3, #3
     450:	607b      	str	r3, [r7, #4]
    while (v) {
     452:	687b      	ldr	r3, [r7, #4]
     454:	2b00      	cmp	r3, #0
     456:	d1e2      	bne.n	41e <diag_put_u32_dec+0x1a>
    }
    while (i--) diag_putc(buf[i]);
     458:	e007      	b.n	46a <diag_put_u32_dec+0x66>
     45a:	f107 0208 	add.w	r2, r7, #8
     45e:	697b      	ldr	r3, [r7, #20]
     460:	4413      	add	r3, r2
     462:	781b      	ldrb	r3, [r3, #0]
     464:	4618      	mov	r0, r3
     466:	f7ff ff61 	bl	32c <diag_putc>
     46a:	697b      	ldr	r3, [r7, #20]
     46c:	1e5a      	subs	r2, r3, #1
     46e:	617a      	str	r2, [r7, #20]
     470:	2b00      	cmp	r3, #0
     472:	d1f2      	bne.n	45a <diag_put_u32_dec+0x56>
}
     474:	3718      	adds	r7, #24
     476:	46bd      	mov	sp, r7
     478:	bd80      	pop	{r7, pc}
     47a:	bf00      	nop
     47c:	cccccccd 	.word	0xcccccccd

00000480 <diag_print_memory_layout>:

/* ------------------ memory layout and simple diagnostics ------------------ */

/* Print memory layout: end_bss, heap_start, heap_end, stack_top, current SP, sbrk(0) */
void diag_print_memory_layout(void)
{
     480:	b580      	push	{r7, lr}
     482:	b082      	sub	sp, #8
     484:	af00      	add	r7, sp, #0
    diag_puts("\r\n--- MEMORY LAYOUT ---\r\n");
     486:	4828      	ldr	r0, [pc, #160]	@ (528 <diag_print_memory_layout+0xa8>)
     488:	f7ff ff66 	bl	358 <diag_puts>
    diag_puts("_end_bss   = "); diag_put_ptr((void*)&_end_bss); diag_puts("\r\n");
     48c:	4827      	ldr	r0, [pc, #156]	@ (52c <diag_print_memory_layout+0xac>)
     48e:	f7ff ff63 	bl	358 <diag_puts>
     492:	4827      	ldr	r0, [pc, #156]	@ (530 <diag_print_memory_layout+0xb0>)
     494:	f7ff ffaa 	bl	3ec <diag_put_ptr>
     498:	4826      	ldr	r0, [pc, #152]	@ (534 <diag_print_memory_layout+0xb4>)
     49a:	f7ff ff5d 	bl	358 <diag_puts>
    diag_puts("_heap_start= "); diag_put_ptr((void*)&_heap_start); diag_puts("\r\n");
     49e:	4826      	ldr	r0, [pc, #152]	@ (538 <diag_print_memory_layout+0xb8>)
     4a0:	f7ff ff5a 	bl	358 <diag_puts>
     4a4:	4825      	ldr	r0, [pc, #148]	@ (53c <diag_print_memory_layout+0xbc>)
     4a6:	f7ff ffa1 	bl	3ec <diag_put_ptr>
     4aa:	4822      	ldr	r0, [pc, #136]	@ (534 <diag_print_memory_layout+0xb4>)
     4ac:	f7ff ff54 	bl	358 <diag_puts>
    diag_puts("_heap_end  = "); diag_put_ptr((void*)&_heap_end); diag_puts("\r\n");
     4b0:	4823      	ldr	r0, [pc, #140]	@ (540 <diag_print_memory_layout+0xc0>)
     4b2:	f7ff ff51 	bl	358 <diag_puts>
     4b6:	4823      	ldr	r0, [pc, #140]	@ (544 <diag_print_memory_layout+0xc4>)
     4b8:	f7ff ff98 	bl	3ec <diag_put_ptr>
     4bc:	481d      	ldr	r0, [pc, #116]	@ (534 <diag_print_memory_layout+0xb4>)
     4be:	f7ff ff4b 	bl	358 <diag_puts>
    diag_puts("_stack_top = "); diag_put_ptr((void*)&_stack_top); diag_puts("\r\n");
     4c2:	4821      	ldr	r0, [pc, #132]	@ (548 <diag_print_memory_layout+0xc8>)
     4c4:	f7ff ff48 	bl	358 <diag_puts>
     4c8:	4820      	ldr	r0, [pc, #128]	@ (54c <diag_print_memory_layout+0xcc>)
     4ca:	f7ff ff8f 	bl	3ec <diag_put_ptr>
     4ce:	4819      	ldr	r0, [pc, #100]	@ (534 <diag_print_memory_layout+0xb4>)
     4d0:	f7ff ff42 	bl	358 <diag_puts>

    void *cur = _sbrk(0);
     4d4:	2000      	movs	r0, #0
     4d6:	f001 f8d5 	bl	1684 <_sbrk>
     4da:	6078      	str	r0, [r7, #4]
    diag_puts("sbrk(0)    = "); diag_put_ptr(cur); diag_puts("\r\n");
     4dc:	481c      	ldr	r0, [pc, #112]	@ (550 <diag_print_memory_layout+0xd0>)
     4de:	f7ff ff3b 	bl	358 <diag_puts>
     4e2:	6878      	ldr	r0, [r7, #4]
     4e4:	f7ff ff82 	bl	3ec <diag_put_ptr>
     4e8:	4812      	ldr	r0, [pc, #72]	@ (534 <diag_print_memory_layout+0xb4>)
     4ea:	f7ff ff35 	bl	358 <diag_puts>

    void *sp = NULL;
     4ee:	2300      	movs	r3, #0
     4f0:	603b      	str	r3, [r7, #0]
    __asm__ volatile ("mov %0, sp" : "=r" (sp));
     4f2:	466b      	mov	r3, sp
     4f4:	603b      	str	r3, [r7, #0]
    diag_puts("SP         = "); diag_put_ptr(sp); diag_puts("\r\n");
     4f6:	4817      	ldr	r0, [pc, #92]	@ (554 <diag_print_memory_layout+0xd4>)
     4f8:	f7ff ff2e 	bl	358 <diag_puts>
     4fc:	6838      	ldr	r0, [r7, #0]
     4fe:	f7ff ff75 	bl	3ec <diag_put_ptr>
     502:	480c      	ldr	r0, [pc, #48]	@ (534 <diag_print_memory_layout+0xb4>)
     504:	f7ff ff28 	bl	358 <diag_puts>

    diag_puts("sbrk_calls = "); diag_put_u32_dec(sbrk_calls); diag_puts("\r\n");
     508:	4813      	ldr	r0, [pc, #76]	@ (558 <diag_print_memory_layout+0xd8>)
     50a:	f7ff ff25 	bl	358 <diag_puts>
     50e:	4b13      	ldr	r3, [pc, #76]	@ (55c <diag_print_memory_layout+0xdc>)
     510:	681b      	ldr	r3, [r3, #0]
     512:	4618      	mov	r0, r3
     514:	f7ff ff76 	bl	404 <diag_put_u32_dec>
     518:	4806      	ldr	r0, [pc, #24]	@ (534 <diag_print_memory_layout+0xb4>)
     51a:	f7ff ff1d 	bl	358 <diag_puts>
}
     51e:	bf00      	nop
     520:	3708      	adds	r7, #8
     522:	46bd      	mov	sp, r7
     524:	bd80      	pop	{r7, pc}
     526:	bf00      	nop
     528:	00008c60 	.word	0x00008c60
     52c:	00008c7c 	.word	0x00008c7c
     530:	20000880 	.word	0x20000880
     534:	00008b58 	.word	0x00008b58
     538:	00008b48 	.word	0x00008b48
     53c:	20000880 	.word	0x20000880
     540:	00008b5c 	.word	0x00008b5c
     544:	20006000 	.word	0x20006000
     548:	00008c8c 	.word	0x00008c8c
     54c:	20008000 	.word	0x20008000
     550:	00008c9c 	.word	0x00008c9c
     554:	00008cac 	.word	0x00008cac
     558:	00008cbc 	.word	0x00008cbc
     55c:	20000708 	.word	0x20000708

00000560 <diag_put_hex8>:

/* ------------------ full mem/state dump with previews ------------------ */

/* Small hex nibble helper */
static void diag_put_hex8(uint8_t v)
{
     560:	b5b0      	push	{r4, r5, r7, lr}
     562:	b088      	sub	sp, #32
     564:	af00      	add	r7, sp, #0
     566:	4603      	mov	r3, r0
     568:	71fb      	strb	r3, [r7, #7]
    const char hex[] = "0123456789ABCDEF";
     56a:	4b11      	ldr	r3, [pc, #68]	@ (5b0 <diag_put_hex8+0x50>)
     56c:	f107 040c 	add.w	r4, r7, #12
     570:	461d      	mov	r5, r3
     572:	cd0f      	ldmia	r5!, {r0, r1, r2, r3}
     574:	c40f      	stmia	r4!, {r0, r1, r2, r3}
     576:	682b      	ldr	r3, [r5, #0]
     578:	7023      	strb	r3, [r4, #0]
    diag_putc(hex[(v >> 4) & 0xF]);
     57a:	79fb      	ldrb	r3, [r7, #7]
     57c:	091b      	lsrs	r3, r3, #4
     57e:	b2db      	uxtb	r3, r3
     580:	f003 030f 	and.w	r3, r3, #15
     584:	3320      	adds	r3, #32
     586:	443b      	add	r3, r7
     588:	f813 3c14 	ldrb.w	r3, [r3, #-20]
     58c:	4618      	mov	r0, r3
     58e:	f7ff fecd 	bl	32c <diag_putc>
    diag_putc(hex[v & 0xF]);
     592:	79fb      	ldrb	r3, [r7, #7]
     594:	f003 030f 	and.w	r3, r3, #15
     598:	3320      	adds	r3, #32
     59a:	443b      	add	r3, r7
     59c:	f813 3c14 	ldrb.w	r3, [r3, #-20]
     5a0:	4618      	mov	r0, r3
     5a2:	f7ff fec3 	bl	32c <diag_putc>
}
     5a6:	bf00      	nop
     5a8:	3720      	adds	r7, #32
     5aa:	46bd      	mov	sp, r7
     5ac:	bdb0      	pop	{r4, r5, r7, pc}
     5ae:	bf00      	nop
     5b0:	00008b1c 	.word	0x00008b1c

000005b4 <diag_hexdump>:

/* Bounded hex-dump (max 64 bytes) */
static void diag_hexdump(const void *addr, size_t len)
{
     5b4:	b580      	push	{r7, lr}
     5b6:	b086      	sub	sp, #24
     5b8:	af00      	add	r7, sp, #0
     5ba:	6078      	str	r0, [r7, #4]
     5bc:	6039      	str	r1, [r7, #0]
    if (!addr) {
     5be:	687b      	ldr	r3, [r7, #4]
     5c0:	2b00      	cmp	r3, #0
     5c2:	d103      	bne.n	5cc <diag_hexdump+0x18>
        diag_puts("<NULL>\r\n");
     5c4:	481c      	ldr	r0, [pc, #112]	@ (638 <diag_hexdump+0x84>)
     5c6:	f7ff fec7 	bl	358 <diag_puts>
        return;
     5ca:	e031      	b.n	630 <diag_hexdump+0x7c>
    }
    const uint8_t *p = (const uint8_t *)addr;
     5cc:	687b      	ldr	r3, [r7, #4]
     5ce:	613b      	str	r3, [r7, #16]
    const size_t max = 64;
     5d0:	2340      	movs	r3, #64	@ 0x40
     5d2:	60fb      	str	r3, [r7, #12]
    if (len > max) len = max;
     5d4:	683a      	ldr	r2, [r7, #0]
     5d6:	68fb      	ldr	r3, [r7, #12]
     5d8:	429a      	cmp	r2, r3
     5da:	d901      	bls.n	5e0 <diag_hexdump+0x2c>
     5dc:	68fb      	ldr	r3, [r7, #12]
     5de:	603b      	str	r3, [r7, #0]

    for (size_t i = 0; i < len; ++i) {
     5e0:	2300      	movs	r3, #0
     5e2:	617b      	str	r3, [r7, #20]
     5e4:	e01d      	b.n	622 <diag_hexdump+0x6e>
        if ((i & 0x0F) == 0) {
     5e6:	697b      	ldr	r3, [r7, #20]
     5e8:	f003 030f 	and.w	r3, r3, #15
     5ec:	2b00      	cmp	r3, #0
     5ee:	d10b      	bne.n	608 <diag_hexdump+0x54>
            diag_puts("\r\n");
     5f0:	4812      	ldr	r0, [pc, #72]	@ (63c <diag_hexdump+0x88>)
     5f2:	f7ff feb1 	bl	358 <diag_puts>
            diag_put_ptr((void *)(uintptr_t)(p + i));
     5f6:	693a      	ldr	r2, [r7, #16]
     5f8:	697b      	ldr	r3, [r7, #20]
     5fa:	4413      	add	r3, r2
     5fc:	4618      	mov	r0, r3
     5fe:	f7ff fef5 	bl	3ec <diag_put_ptr>
            diag_puts(": ");
     602:	480f      	ldr	r0, [pc, #60]	@ (640 <diag_hexdump+0x8c>)
     604:	f7ff fea8 	bl	358 <diag_puts>
        }
        diag_put_hex8(p[i]);
     608:	693a      	ldr	r2, [r7, #16]
     60a:	697b      	ldr	r3, [r7, #20]
     60c:	4413      	add	r3, r2
     60e:	781b      	ldrb	r3, [r3, #0]
     610:	4618      	mov	r0, r3
     612:	f7ff ffa5 	bl	560 <diag_put_hex8>
        diag_puts(" ");
     616:	480b      	ldr	r0, [pc, #44]	@ (644 <diag_hexdump+0x90>)
     618:	f7ff fe9e 	bl	358 <diag_puts>
    for (size_t i = 0; i < len; ++i) {
     61c:	697b      	ldr	r3, [r7, #20]
     61e:	3301      	adds	r3, #1
     620:	617b      	str	r3, [r7, #20]
     622:	697a      	ldr	r2, [r7, #20]
     624:	683b      	ldr	r3, [r7, #0]
     626:	429a      	cmp	r2, r3
     628:	d3dd      	bcc.n	5e6 <diag_hexdump+0x32>
    }
    diag_puts("\r\n");
     62a:	4804      	ldr	r0, [pc, #16]	@ (63c <diag_hexdump+0x88>)
     62c:	f7ff fe94 	bl	358 <diag_puts>
}
     630:	3718      	adds	r7, #24
     632:	46bd      	mov	sp, r7
     634:	bd80      	pop	{r7, pc}
     636:	bf00      	nop
     638:	00008d34 	.word	0x00008d34
     63c:	00008b58 	.word	0x00008b58
     640:	00008d40 	.word	0x00008d40
     644:	00008d44 	.word	0x00008d44

00000648 <diag_addr_region>:

/* ------------------ variable inspection helpers ------------------ */

/* Determine region for an address */
static const char * diag_addr_region(const void *addr)
{
     648:	b480      	push	{r7}
     64a:	b08b      	sub	sp, #44	@ 0x2c
     64c:	af00      	add	r7, sp, #0
     64e:	6078      	str	r0, [r7, #4]
    uintptr_t a = (uintptr_t)addr;
     650:	687b      	ldr	r3, [r7, #4]
     652:	627b      	str	r3, [r7, #36]	@ 0x24
    uintptr_t heap_start = (uintptr_t)&_heap_start;
     654:	4b1c      	ldr	r3, [pc, #112]	@ (6c8 <diag_addr_region+0x80>)
     656:	623b      	str	r3, [r7, #32]
    uintptr_t heap_end   = (uintptr_t)&_heap_end;
     658:	4b1c      	ldr	r3, [pc, #112]	@ (6cc <diag_addr_region+0x84>)
     65a:	61fb      	str	r3, [r7, #28]
    uintptr_t bss_start  = (uintptr_t)&_end_bss;
     65c:	4b1c      	ldr	r3, [pc, #112]	@ (6d0 <diag_addr_region+0x88>)
     65e:	61bb      	str	r3, [r7, #24]
    uintptr_t stack_top  = (uintptr_t)&_stack_top;
     660:	4b1c      	ldr	r3, [pc, #112]	@ (6d4 <diag_addr_region+0x8c>)
     662:	617b      	str	r3, [r7, #20]

    void *spv = NULL;
     664:	2300      	movs	r3, #0
     666:	613b      	str	r3, [r7, #16]
    __asm__ volatile ("mov %0, sp" : "=r" (spv));
     668:	466b      	mov	r3, sp
     66a:	613b      	str	r3, [r7, #16]
    uintptr_t sp = (uintptr_t)spv;
     66c:	693b      	ldr	r3, [r7, #16]
     66e:	60fb      	str	r3, [r7, #12]

    if (a >= heap_start && a < heap_end) return "heap";
     670:	6a7a      	ldr	r2, [r7, #36]	@ 0x24
     672:	6a3b      	ldr	r3, [r7, #32]
     674:	429a      	cmp	r2, r3
     676:	d305      	bcc.n	684 <diag_addr_region+0x3c>
     678:	6a7a      	ldr	r2, [r7, #36]	@ 0x24
     67a:	69fb      	ldr	r3, [r7, #28]
     67c:	429a      	cmp	r2, r3
     67e:	d201      	bcs.n	684 <diag_addr_region+0x3c>
     680:	4b15      	ldr	r3, [pc, #84]	@ (6d8 <diag_addr_region+0x90>)
     682:	e01b      	b.n	6bc <diag_addr_region+0x74>
    if (a >= bss_start && a < heap_start) return "bss/data";
     684:	6a7a      	ldr	r2, [r7, #36]	@ 0x24
     686:	69bb      	ldr	r3, [r7, #24]
     688:	429a      	cmp	r2, r3
     68a:	d305      	bcc.n	698 <diag_addr_region+0x50>
     68c:	6a7a      	ldr	r2, [r7, #36]	@ 0x24
     68e:	6a3b      	ldr	r3, [r7, #32]
     690:	429a      	cmp	r2, r3
     692:	d201      	bcs.n	698 <diag_addr_region+0x50>
     694:	4b11      	ldr	r3, [pc, #68]	@ (6dc <diag_addr_region+0x94>)
     696:	e011      	b.n	6bc <diag_addr_region+0x74>
    if (a <= stack_top && a >= (sp > 32768 ? sp - 32768 : 0)) return "stack";
     698:	6a7a      	ldr	r2, [r7, #36]	@ 0x24
     69a:	697b      	ldr	r3, [r7, #20]
     69c:	429a      	cmp	r2, r3
     69e:	d80c      	bhi.n	6ba <diag_addr_region+0x72>
     6a0:	68fb      	ldr	r3, [r7, #12]
     6a2:	f5b3 4f00 	cmp.w	r3, #32768	@ 0x8000
     6a6:	bf38      	it	cc
     6a8:	f44f 4300 	movcc.w	r3, #32768	@ 0x8000
     6ac:	f5a3 4300 	sub.w	r3, r3, #32768	@ 0x8000
     6b0:	6a7a      	ldr	r2, [r7, #36]	@ 0x24
     6b2:	429a      	cmp	r2, r3
     6b4:	d301      	bcc.n	6ba <diag_addr_region+0x72>
     6b6:	4b0a      	ldr	r3, [pc, #40]	@ (6e0 <diag_addr_region+0x98>)
     6b8:	e000      	b.n	6bc <diag_addr_region+0x74>
    return "unknown";
     6ba:	4b0a      	ldr	r3, [pc, #40]	@ (6e4 <diag_addr_region+0x9c>)
}
     6bc:	4618      	mov	r0, r3
     6be:	372c      	adds	r7, #44	@ 0x2c
     6c0:	46bd      	mov	sp, r7
     6c2:	f85d 7b04 	ldr.w	r7, [sp], #4
     6c6:	4770      	bx	lr
     6c8:	20000880 	.word	0x20000880
     6cc:	20006000 	.word	0x20006000
     6d0:	20000880 	.word	0x20000880
     6d4:	20008000 	.word	0x20008000
     6d8:	00008e9c 	.word	0x00008e9c
     6dc:	00008ea4 	.word	0x00008ea4
     6e0:	00008eb0 	.word	0x00008eb0
     6e4:	00008eb8 	.word	0x00008eb8

000006e8 <diag_print_variable>:


/* Print a single variable name + address + region and small value preview */
void diag_print_variable(const char *name, const void *addr, size_t size, size_t preview_limit)
{
     6e8:	b5b0      	push	{r4, r5, r7, lr}
     6ea:	b092      	sub	sp, #72	@ 0x48
     6ec:	af00      	add	r7, sp, #0
     6ee:	60f8      	str	r0, [r7, #12]
     6f0:	60b9      	str	r1, [r7, #8]
     6f2:	607a      	str	r2, [r7, #4]
     6f4:	603b      	str	r3, [r7, #0]
    diag_puts(name);
     6f6:	68f8      	ldr	r0, [r7, #12]
     6f8:	f7ff fe2e 	bl	358 <diag_puts>
    diag_puts(" = ");
     6fc:	4869      	ldr	r0, [pc, #420]	@ (8a4 <diag_print_variable+0x1bc>)
     6fe:	f7ff fe2b 	bl	358 <diag_puts>
    diag_put_ptr(addr);
     702:	68b8      	ldr	r0, [r7, #8]
     704:	f7ff fe72 	bl	3ec <diag_put_ptr>
    diag_puts("  [");
     708:	4867      	ldr	r0, [pc, #412]	@ (8a8 <diag_print_variable+0x1c0>)
     70a:	f7ff fe25 	bl	358 <diag_puts>
    diag_puts(diag_addr_region(addr));
     70e:	68b8      	ldr	r0, [r7, #8]
     710:	f7ff ff9a 	bl	648 <diag_addr_region>
     714:	4603      	mov	r3, r0
     716:	4618      	mov	r0, r3
     718:	f7ff fe1e 	bl	358 <diag_puts>
    diag_puts("]  size=");
     71c:	4863      	ldr	r0, [pc, #396]	@ (8ac <diag_print_variable+0x1c4>)
     71e:	f7ff fe1b 	bl	358 <diag_puts>
    diag_put_u32_dec((uint32_t)size);
     722:	6878      	ldr	r0, [r7, #4]
     724:	f7ff fe6e 	bl	404 <diag_put_u32_dec>
    diag_puts("  ");
     728:	4861      	ldr	r0, [pc, #388]	@ (8b0 <diag_print_variable+0x1c8>)
     72a:	f7ff fe15 	bl	358 <diag_puts>

    uint32_t v = 0;
     72e:	2300      	movs	r3, #0
     730:	63bb      	str	r3, [r7, #56]	@ 0x38

    if (size == 4) {
     732:	687b      	ldr	r3, [r7, #4]
     734:	2b04      	cmp	r3, #4
     736:	d114      	bne.n	762 <diag_print_variable+0x7a>

        memcpy(&v, addr, sizeof(v));
     738:	68bb      	ldr	r3, [r7, #8]
     73a:	681b      	ldr	r3, [r3, #0]
     73c:	63bb      	str	r3, [r7, #56]	@ 0x38
        diag_puts("val=");
     73e:	485d      	ldr	r0, [pc, #372]	@ (8b4 <diag_print_variable+0x1cc>)
     740:	f7ff fe0a 	bl	358 <diag_puts>
        diag_put_hex32(v);
     744:	6bbb      	ldr	r3, [r7, #56]	@ 0x38
     746:	4618      	mov	r0, r3
     748:	f7ff fe1e 	bl	388 <diag_put_hex32>
        diag_puts(" (");
     74c:	485a      	ldr	r0, [pc, #360]	@ (8b8 <diag_print_variable+0x1d0>)
     74e:	f7ff fe03 	bl	358 <diag_puts>
        diag_put_u32_dec(v);
     752:	6bbb      	ldr	r3, [r7, #56]	@ 0x38
     754:	4618      	mov	r0, r3
     756:	f7ff fe55 	bl	404 <diag_put_u32_dec>
        diag_puts(")");
     75a:	4858      	ldr	r0, [pc, #352]	@ (8bc <diag_print_variable+0x1d4>)
     75c:	f7ff fdfc 	bl	358 <diag_puts>
     760:	e09a      	b.n	898 <diag_print_variable+0x1b0>

    } else if (size == 2) {
     762:	687b      	ldr	r3, [r7, #4]
     764:	2b02      	cmp	r3, #2
     766:	d13b      	bne.n	7e0 <diag_print_variable+0xf8>

        /* for 16-bit */
        diag_puts("val=0x");
     768:	4855      	ldr	r0, [pc, #340]	@ (8c0 <diag_print_variable+0x1d8>)
     76a:	f7ff fdf5 	bl	358 <diag_puts>
        const char hex[] = "0123456789ABCDEF";
     76e:	4b55      	ldr	r3, [pc, #340]	@ (8c4 <diag_print_variable+0x1dc>)
     770:	f107 0424 	add.w	r4, r7, #36	@ 0x24
     774:	461d      	mov	r5, r3
     776:	cd0f      	ldmia	r5!, {r0, r1, r2, r3}
     778:	c40f      	stmia	r4!, {r0, r1, r2, r3}
     77a:	682b      	ldr	r3, [r5, #0]
     77c:	7023      	strb	r3, [r4, #0]
        uint16_t v16 = (uint16_t)v;
     77e:	6bbb      	ldr	r3, [r7, #56]	@ 0x38
     780:	87bb      	strh	r3, [r7, #60]	@ 0x3c
        diag_putc(hex[(v16 >> 12) & 0xF]);
     782:	8fbb      	ldrh	r3, [r7, #60]	@ 0x3c
     784:	0b1b      	lsrs	r3, r3, #12
     786:	b29b      	uxth	r3, r3
     788:	f003 030f 	and.w	r3, r3, #15
     78c:	3348      	adds	r3, #72	@ 0x48
     78e:	443b      	add	r3, r7
     790:	f813 3c24 	ldrb.w	r3, [r3, #-36]
     794:	4618      	mov	r0, r3
     796:	f7ff fdc9 	bl	32c <diag_putc>
        diag_putc(hex[(v16 >> 8) & 0xF]);
     79a:	8fbb      	ldrh	r3, [r7, #60]	@ 0x3c
     79c:	0a1b      	lsrs	r3, r3, #8
     79e:	b29b      	uxth	r3, r3
     7a0:	f003 030f 	and.w	r3, r3, #15
     7a4:	3348      	adds	r3, #72	@ 0x48
     7a6:	443b      	add	r3, r7
     7a8:	f813 3c24 	ldrb.w	r3, [r3, #-36]
     7ac:	4618      	mov	r0, r3
     7ae:	f7ff fdbd 	bl	32c <diag_putc>
        diag_putc(hex[(v16 >> 4) & 0xF]);
     7b2:	8fbb      	ldrh	r3, [r7, #60]	@ 0x3c
     7b4:	091b      	lsrs	r3, r3, #4
     7b6:	b29b      	uxth	r3, r3
     7b8:	f003 030f 	and.w	r3, r3, #15
     7bc:	3348      	adds	r3, #72	@ 0x48
     7be:	443b      	add	r3, r7
     7c0:	f813 3c24 	ldrb.w	r3, [r3, #-36]
     7c4:	4618      	mov	r0, r3
     7c6:	f7ff fdb1 	bl	32c <diag_putc>
        diag_putc(hex[v16 & 0xF]);
     7ca:	8fbb      	ldrh	r3, [r7, #60]	@ 0x3c
     7cc:	f003 030f 	and.w	r3, r3, #15
     7d0:	3348      	adds	r3, #72	@ 0x48
     7d2:	443b      	add	r3, r7
     7d4:	f813 3c24 	ldrb.w	r3, [r3, #-36]
     7d8:	4618      	mov	r0, r3
     7da:	f7ff fda7 	bl	32c <diag_putc>
     7de:	e05b      	b.n	898 <diag_print_variable+0x1b0>

    } else if (size == 1) {
     7e0:	687b      	ldr	r3, [r7, #4]
     7e2:	2b01      	cmp	r3, #1
     7e4:	d126      	bne.n	834 <diag_print_variable+0x14c>

        /* for 8-bit */
        diag_puts("val=0x");
     7e6:	4836      	ldr	r0, [pc, #216]	@ (8c0 <diag_print_variable+0x1d8>)
     7e8:	f7ff fdb6 	bl	358 <diag_puts>
        const char hex[] = "0123456789ABCDEF";
     7ec:	4b35      	ldr	r3, [pc, #212]	@ (8c4 <diag_print_variable+0x1dc>)
     7ee:	f107 0410 	add.w	r4, r7, #16
     7f2:	461d      	mov	r5, r3
     7f4:	cd0f      	ldmia	r5!, {r0, r1, r2, r3}
     7f6:	c40f      	stmia	r4!, {r0, r1, r2, r3}
     7f8:	682b      	ldr	r3, [r5, #0]
     7fa:	7023      	strb	r3, [r4, #0]
        uint8_t v8 = (uint8_t)v;
     7fc:	6bbb      	ldr	r3, [r7, #56]	@ 0x38
     7fe:	f887 303f 	strb.w	r3, [r7, #63]	@ 0x3f
        diag_putc(hex[(v8 >> 4) & 0xF]);
     802:	f897 303f 	ldrb.w	r3, [r7, #63]	@ 0x3f
     806:	091b      	lsrs	r3, r3, #4
     808:	b2db      	uxtb	r3, r3
     80a:	f003 030f 	and.w	r3, r3, #15
     80e:	3348      	adds	r3, #72	@ 0x48
     810:	443b      	add	r3, r7
     812:	f813 3c38 	ldrb.w	r3, [r3, #-56]
     816:	4618      	mov	r0, r3
     818:	f7ff fd88 	bl	32c <diag_putc>
        diag_putc(hex[v8 & 0xF]);
     81c:	f897 303f 	ldrb.w	r3, [r7, #63]	@ 0x3f
     820:	f003 030f 	and.w	r3, r3, #15
     824:	3348      	adds	r3, #72	@ 0x48
     826:	443b      	add	r3, r7
     828:	f813 3c38 	ldrb.w	r3, [r3, #-56]
     82c:	4618      	mov	r0, r3
     82e:	f7ff fd7d 	bl	32c <diag_putc>
     832:	e031      	b.n	898 <diag_print_variable+0x1b0>
           - If caller asked for DIAG_PREVIEW_NOLIMIT, print the full 'size' value
             (but we still enforce an absolute safety cap to prevent runaway).
           - If caller passed DIAG_PREVIEW_LIMIT or any other small value, use that as cap.
        */

        const size_t ABSOLUTE_MAX = 65536; /* safety cap: change if needed */
     834:	f44f 3380 	mov.w	r3, #65536	@ 0x10000
     838:	643b      	str	r3, [r7, #64]	@ 0x40
        size_t n;

        if (preview_limit == DIAG_PREVIEW_NOLIMIT) {
     83a:	683b      	ldr	r3, [r7, #0]
     83c:	f1b3 3fff 	cmp.w	r3, #4294967295	@ 0xffffffff
     840:	d109      	bne.n	856 <diag_print_variable+0x16e>

            /* full view requested */
            diag_puts("full view (printing entire region):");
     842:	4821      	ldr	r0, [pc, #132]	@ (8c8 <diag_print_variable+0x1e0>)
     844:	f7ff fd88 	bl	358 <diag_puts>
            /* cap to ABSOLUTE_MAX for safety */
            n = (size > ABSOLUTE_MAX) ? ABSOLUTE_MAX : size;
     848:	687a      	ldr	r2, [r7, #4]
     84a:	6c3b      	ldr	r3, [r7, #64]	@ 0x40
     84c:	4293      	cmp	r3, r2
     84e:	bf28      	it	cs
     850:	4613      	movcs	r3, r2
     852:	647b      	str	r3, [r7, #68]	@ 0x44
     854:	e00e      	b.n	874 <diag_print_variable+0x18c>

        } else if (preview_limit == 0) {
     856:	683b      	ldr	r3, [r7, #0]
     858:	2b00      	cmp	r3, #0
     85a:	d105      	bne.n	868 <diag_print_variable+0x180>

            /* treat 0 as equivalent to DIAG_PREVIEW_LIMIT fallback */
            n = (size > DIAG_PREVIEW_LIMIT) ? DIAG_PREVIEW_LIMIT : size;
     85c:	687b      	ldr	r3, [r7, #4]
     85e:	2b20      	cmp	r3, #32
     860:	bf28      	it	cs
     862:	2320      	movcs	r3, #32
     864:	647b      	str	r3, [r7, #68]	@ 0x44
     866:	e005      	b.n	874 <diag_print_variable+0x18c>

        } else {

            /* caller supplied explicit limit */
            n = (size > preview_limit) ? preview_limit : size;
     868:	687a      	ldr	r2, [r7, #4]
     86a:	683b      	ldr	r3, [r7, #0]
     86c:	4293      	cmp	r3, r2
     86e:	bf28      	it	cs
     870:	4613      	movcs	r3, r2
     872:	647b      	str	r3, [r7, #68]	@ 0x44

        }

        /* Now print n bytes (diag_hexdump itself should already be rate-limited) */
        diag_puts("preview:");
     874:	4815      	ldr	r0, [pc, #84]	@ (8cc <diag_print_variable+0x1e4>)
     876:	f7ff fd6f 	bl	358 <diag_puts>
        diag_hexdump(addr, n);
     87a:	6c79      	ldr	r1, [r7, #68]	@ 0x44
     87c:	68b8      	ldr	r0, [r7, #8]
     87e:	f7ff fe99 	bl	5b4 <diag_hexdump>

        /* If we truncated the region because of ABSOLUTE_MAX, notify the user */
        if (n < size) {
     882:	6c7a      	ldr	r2, [r7, #68]	@ 0x44
     884:	687b      	ldr	r3, [r7, #4]
     886:	429a      	cmp	r2, r3
     888:	d202      	bcs.n	890 <diag_print_variable+0x1a8>
            diag_puts("[truncated]");
     88a:	4811      	ldr	r0, [pc, #68]	@ (8d0 <diag_print_variable+0x1e8>)
     88c:	f7ff fd64 	bl	358 <diag_puts>
        }

        diag_puts("\r\n");
     890:	4810      	ldr	r0, [pc, #64]	@ (8d4 <diag_print_variable+0x1ec>)
     892:	f7ff fd61 	bl	358 <diag_puts>
     896:	e002      	b.n	89e <diag_print_variable+0x1b6>

        return;

    }

    diag_puts("\r\n");
     898:	480e      	ldr	r0, [pc, #56]	@ (8d4 <diag_print_variable+0x1ec>)
     89a:	f7ff fd5d 	bl	358 <diag_puts>

}
     89e:	3748      	adds	r7, #72	@ 0x48
     8a0:	46bd      	mov	sp, r7
     8a2:	bdb0      	pop	{r4, r5, r7, pc}
     8a4:	00008ec0 	.word	0x00008ec0
     8a8:	00008ec4 	.word	0x00008ec4
     8ac:	00008ec8 	.word	0x00008ec8
     8b0:	00008ed4 	.word	0x00008ed4
     8b4:	00008ed8 	.word	0x00008ed8
     8b8:	00008ee0 	.word	0x00008ee0
     8bc:	00008ee4 	.word	0x00008ee4
     8c0:	00008ee8 	.word	0x00008ee8
     8c4:	00008b1c 	.word	0x00008b1c
     8c8:	00008ef0 	.word	0x00008ef0
     8cc:	00008f14 	.word	0x00008f14
     8d0:	00008f20 	.word	0x00008f20
     8d4:	00008b58 	.word	0x00008b58

000008d8 <diag_print_variables_summary>:


/* Replace diag_print_variables_summary with this (no app-specific externs) */
void diag_print_variables_summary(void)
{
     8d8:	b580      	push	{r7, lr}
     8da:	b084      	sub	sp, #16
     8dc:	af00      	add	r7, sp, #0
    diag_puts("\r\n=== VARIABLES SUMMARY (generic) ===\r\n");
     8de:	482e      	ldr	r0, [pc, #184]	@ (998 <diag_print_variables_summary+0xc0>)
     8e0:	f7ff fd3a 	bl	358 <diag_puts>

    /* basic memory layout */
    diag_puts("_end_bss    = "); diag_put_ptr((void*)&_end_bss); diag_puts("\r\n");
     8e4:	482d      	ldr	r0, [pc, #180]	@ (99c <diag_print_variables_summary+0xc4>)
     8e6:	f7ff fd37 	bl	358 <diag_puts>
     8ea:	482d      	ldr	r0, [pc, #180]	@ (9a0 <diag_print_variables_summary+0xc8>)
     8ec:	f7ff fd7e 	bl	3ec <diag_put_ptr>
     8f0:	482c      	ldr	r0, [pc, #176]	@ (9a4 <diag_print_variables_summary+0xcc>)
     8f2:	f7ff fd31 	bl	358 <diag_puts>
    diag_puts("_heap_start = "); diag_put_ptr((void*)&_heap_start); diag_puts("\r\n");
     8f6:	482c      	ldr	r0, [pc, #176]	@ (9a8 <diag_print_variables_summary+0xd0>)
     8f8:	f7ff fd2e 	bl	358 <diag_puts>
     8fc:	482b      	ldr	r0, [pc, #172]	@ (9ac <diag_print_variables_summary+0xd4>)
     8fe:	f7ff fd75 	bl	3ec <diag_put_ptr>
     902:	4828      	ldr	r0, [pc, #160]	@ (9a4 <diag_print_variables_summary+0xcc>)
     904:	f7ff fd28 	bl	358 <diag_puts>
    diag_puts("_heap_end   = "); diag_put_ptr((void*)&_heap_end); diag_puts("\r\n");
     908:	4829      	ldr	r0, [pc, #164]	@ (9b0 <diag_print_variables_summary+0xd8>)
     90a:	f7ff fd25 	bl	358 <diag_puts>
     90e:	4829      	ldr	r0, [pc, #164]	@ (9b4 <diag_print_variables_summary+0xdc>)
     910:	f7ff fd6c 	bl	3ec <diag_put_ptr>
     914:	4823      	ldr	r0, [pc, #140]	@ (9a4 <diag_print_variables_summary+0xcc>)
     916:	f7ff fd1f 	bl	358 <diag_puts>
    diag_puts("_stack_top  = "); diag_put_ptr((void*)&_stack_top); diag_puts("\r\n");
     91a:	4827      	ldr	r0, [pc, #156]	@ (9b8 <diag_print_variables_summary+0xe0>)
     91c:	f7ff fd1c 	bl	358 <diag_puts>
     920:	4826      	ldr	r0, [pc, #152]	@ (9bc <diag_print_variables_summary+0xe4>)
     922:	f7ff fd63 	bl	3ec <diag_put_ptr>
     926:	481f      	ldr	r0, [pc, #124]	@ (9a4 <diag_print_variables_summary+0xcc>)
     928:	f7ff fd16 	bl	358 <diag_puts>

    /* current heap break and free estimate */
    void *cur = _sbrk(0);
     92c:	2000      	movs	r0, #0
     92e:	f000 fea9 	bl	1684 <_sbrk>
     932:	60f8      	str	r0, [r7, #12]
    diag_puts("sbrk(0)     = "); diag_put_ptr(cur); diag_puts("\r\n");
     934:	4822      	ldr	r0, [pc, #136]	@ (9c0 <diag_print_variables_summary+0xe8>)
     936:	f7ff fd0f 	bl	358 <diag_puts>
     93a:	68f8      	ldr	r0, [r7, #12]
     93c:	f7ff fd56 	bl	3ec <diag_put_ptr>
     940:	4818      	ldr	r0, [pc, #96]	@ (9a4 <diag_print_variables_summary+0xcc>)
     942:	f7ff fd09 	bl	358 <diag_puts>
    if ((uintptr_t)cur <= (uintptr_t)&_heap_end) {
     946:	68fb      	ldr	r3, [r7, #12]
     948:	4a1a      	ldr	r2, [pc, #104]	@ (9b4 <diag_print_variables_summary+0xdc>)
     94a:	4293      	cmp	r3, r2
     94c:	d80d      	bhi.n	96a <diag_print_variables_summary+0x92>
        uint32_t freeb = (uint32_t)((uintptr_t)&_heap_end - (uintptr_t)cur);
     94e:	4a19      	ldr	r2, [pc, #100]	@ (9b4 <diag_print_variables_summary+0xdc>)
     950:	68fb      	ldr	r3, [r7, #12]
     952:	1ad3      	subs	r3, r2, r3
     954:	60bb      	str	r3, [r7, #8]
        diag_puts("free heap   = "); diag_put_u32_dec(freeb); diag_puts(" bytes\r\n");
     956:	481b      	ldr	r0, [pc, #108]	@ (9c4 <diag_print_variables_summary+0xec>)
     958:	f7ff fcfe 	bl	358 <diag_puts>
     95c:	68b8      	ldr	r0, [r7, #8]
     95e:	f7ff fd51 	bl	404 <diag_put_u32_dec>
     962:	4819      	ldr	r0, [pc, #100]	@ (9c8 <diag_print_variables_summary+0xf0>)
     964:	f7ff fcf8 	bl	358 <diag_puts>
     968:	e002      	b.n	970 <diag_print_variables_summary+0x98>
    } else {
        diag_puts("free heap   = <invalid>\r\n");
     96a:	4818      	ldr	r0, [pc, #96]	@ (9cc <diag_print_variables_summary+0xf4>)
     96c:	f7ff fcf4 	bl	358 <diag_puts>
    }

    /* Also print instantaneous SP (stack pointer) */
    void *sp = NULL;
     970:	2300      	movs	r3, #0
     972:	607b      	str	r3, [r7, #4]
    __asm__ volatile ("mov %0, sp" : "=r" (sp));
     974:	466b      	mov	r3, sp
     976:	607b      	str	r3, [r7, #4]
    diag_puts("SP (inst)   = "); diag_put_ptr(sp); diag_puts("\r\n");
     978:	4815      	ldr	r0, [pc, #84]	@ (9d0 <diag_print_variables_summary+0xf8>)
     97a:	f7ff fced 	bl	358 <diag_puts>
     97e:	6878      	ldr	r0, [r7, #4]
     980:	f7ff fd34 	bl	3ec <diag_put_ptr>
     984:	4807      	ldr	r0, [pc, #28]	@ (9a4 <diag_print_variables_summary+0xcc>)
     986:	f7ff fce7 	bl	358 <diag_puts>

    diag_puts("=== END VARIABLES SUMMARY ===\r\n");
     98a:	4812      	ldr	r0, [pc, #72]	@ (9d4 <diag_print_variables_summary+0xfc>)
     98c:	f7ff fce4 	bl	358 <diag_puts>
}
     990:	bf00      	nop
     992:	3710      	adds	r7, #16
     994:	46bd      	mov	sp, r7
     996:	bd80      	pop	{r7, pc}
     998:	00008f2c 	.word	0x00008f2c
     99c:	00008d64 	.word	0x00008d64
     9a0:	20000880 	.word	0x20000880
     9a4:	00008b58 	.word	0x00008b58
     9a8:	00008d74 	.word	0x00008d74
     9ac:	20000880 	.word	0x20000880
     9b0:	00008d84 	.word	0x00008d84
     9b4:	20006000 	.word	0x20006000
     9b8:	00008d94 	.word	0x00008d94
     9bc:	20008000 	.word	0x20008000
     9c0:	00008da4 	.word	0x00008da4
     9c4:	00008dd4 	.word	0x00008dd4
     9c8:	00008de4 	.word	0x00008de4
     9cc:	00008f54 	.word	0x00008f54
     9d0:	00008dc4 	.word	0x00008dc4
     9d4:	00008f70 	.word	0x00008f70

000009d8 <my_isspace>:

#ifndef CTYPE_HELPERS_H
#define CTYPE_HELPERS_H

static inline int my_isspace(int c)
{
     9d8:	b480      	push	{r7}
     9da:	b083      	sub	sp, #12
     9dc:	af00      	add	r7, sp, #0
     9de:	6078      	str	r0, [r7, #4]
    /* Only ASCII whitespace handled; safe for chars passed as unsigned char */
    return (c == ' ')  || (c == '\f') || (c == '\n') ||
           (c == '\r') || (c == '\t') || (c == '\v');
     9e0:	687b      	ldr	r3, [r7, #4]
     9e2:	2b20      	cmp	r3, #32
     9e4:	d00e      	beq.n	a04 <my_isspace+0x2c>
    return (c == ' ')  || (c == '\f') || (c == '\n') ||
     9e6:	687b      	ldr	r3, [r7, #4]
     9e8:	2b0c      	cmp	r3, #12
     9ea:	d00b      	beq.n	a04 <my_isspace+0x2c>
     9ec:	687b      	ldr	r3, [r7, #4]
     9ee:	2b0a      	cmp	r3, #10
     9f0:	d008      	beq.n	a04 <my_isspace+0x2c>
     9f2:	687b      	ldr	r3, [r7, #4]
     9f4:	2b0d      	cmp	r3, #13
     9f6:	d005      	beq.n	a04 <my_isspace+0x2c>
           (c == '\r') || (c == '\t') || (c == '\v');
     9f8:	687b      	ldr	r3, [r7, #4]
     9fa:	2b09      	cmp	r3, #9
     9fc:	d002      	beq.n	a04 <my_isspace+0x2c>
     9fe:	687b      	ldr	r3, [r7, #4]
     a00:	2b0b      	cmp	r3, #11
     a02:	d101      	bne.n	a08 <my_isspace+0x30>
     a04:	2301      	movs	r3, #1
     a06:	e000      	b.n	a0a <my_isspace+0x32>
     a08:	2300      	movs	r3, #0
}
     a0a:	4618      	mov	r0, r3
     a0c:	370c      	adds	r7, #12
     a0e:	46bd      	mov	sp, r7
     a10:	f85d 7b04 	ldr.w	r7, [sp], #4
     a14:	4770      	bx	lr

00000a16 <my_toupper>:

static inline int my_toupper(int c)
{
     a16:	b480      	push	{r7}
     a18:	b083      	sub	sp, #12
     a1a:	af00      	add	r7, sp, #0
     a1c:	6078      	str	r0, [r7, #4]
    if ((unsigned)c >= 'a' && (unsigned)c <= 'z')
     a1e:	687b      	ldr	r3, [r7, #4]
     a20:	2b60      	cmp	r3, #96	@ 0x60
     a22:	d905      	bls.n	a30 <my_toupper+0x1a>
     a24:	687b      	ldr	r3, [r7, #4]
     a26:	2b7a      	cmp	r3, #122	@ 0x7a
     a28:	d802      	bhi.n	a30 <my_toupper+0x1a>
        return c - ('a' - 'A');
     a2a:	687b      	ldr	r3, [r7, #4]
     a2c:	3b20      	subs	r3, #32
     a2e:	e000      	b.n	a32 <my_toupper+0x1c>
    return c;
     a30:	687b      	ldr	r3, [r7, #4]
}
     a32:	4618      	mov	r0, r3
     a34:	370c      	adds	r7, #12
     a36:	46bd      	mov	sp, r7
     a38:	f85d 7b04 	ldr.w	r7, [sp], #4
     a3c:	4770      	bx	lr
	...

00000a40 <ICDIUARTIntHandler>:
static void process_user_line(const char *line);


/* ICDI UART0 ISR - echo only */
void ICDIUARTIntHandler(void)
{
     a40:	b590      	push	{r4, r7, lr}
     a42:	b083      	sub	sp, #12
     a44:	af00      	add	r7, sp, #0
    uint32_t ui32Status = ROM_UARTIntStatus(UART0_BASE, true);
     a46:	4b20      	ldr	r3, [pc, #128]	@ (ac8 <ICDIUARTIntHandler+0x88>)
     a48:	681b      	ldr	r3, [r3, #0]
     a4a:	334c      	adds	r3, #76	@ 0x4c
     a4c:	681b      	ldr	r3, [r3, #0]
     a4e:	2101      	movs	r1, #1
     a50:	481e      	ldr	r0, [pc, #120]	@ (acc <ICDIUARTIntHandler+0x8c>)
     a52:	4798      	blx	r3
     a54:	6078      	str	r0, [r7, #4]

    ROM_UARTIntClear(UART0_BASE, ui32Status);
     a56:	4b1c      	ldr	r3, [pc, #112]	@ (ac8 <ICDIUARTIntHandler+0x88>)
     a58:	681b      	ldr	r3, [r3, #0]
     a5a:	3350      	adds	r3, #80	@ 0x50
     a5c:	681b      	ldr	r3, [r3, #0]
     a5e:	6879      	ldr	r1, [r7, #4]
     a60:	481a      	ldr	r0, [pc, #104]	@ (acc <ICDIUARTIntHandler+0x8c>)
     a62:	4798      	blx	r3

    while (ROM_UARTCharsAvail(UART0_BASE)) {
     a64:	e022      	b.n	aac <ICDIUARTIntHandler+0x6c>

        ROM_UARTCharPutNonBlocking(UART0_BASE, ROM_UARTCharGetNonBlocking(UART0_BASE));
     a66:	4b18      	ldr	r3, [pc, #96]	@ (ac8 <ICDIUARTIntHandler+0x88>)
     a68:	681b      	ldr	r3, [r3, #0]
     a6a:	333c      	adds	r3, #60	@ 0x3c
     a6c:	681b      	ldr	r3, [r3, #0]
     a6e:	461c      	mov	r4, r3
     a70:	4b15      	ldr	r3, [pc, #84]	@ (ac8 <ICDIUARTIntHandler+0x88>)
     a72:	681b      	ldr	r3, [r3, #0]
     a74:	3334      	adds	r3, #52	@ 0x34
     a76:	681b      	ldr	r3, [r3, #0]
     a78:	4814      	ldr	r0, [pc, #80]	@ (acc <ICDIUARTIntHandler+0x8c>)
     a7a:	4798      	blx	r3
     a7c:	4603      	mov	r3, r0
     a7e:	b2db      	uxtb	r3, r3
     a80:	4619      	mov	r1, r3
     a82:	4812      	ldr	r0, [pc, #72]	@ (acc <ICDIUARTIntHandler+0x8c>)
     a84:	47a0      	blx	r4
        GPIOPinWrite(GPIO_PORTN_BASE, GPIO_PIN_0, GPIO_PIN_0);
     a86:	2201      	movs	r2, #1
     a88:	2101      	movs	r1, #1
     a8a:	4811      	ldr	r0, [pc, #68]	@ (ad0 <ICDIUARTIntHandler+0x90>)
     a8c:	f000 ffba 	bl	1a04 <GPIOPinWrite>
        SysCtlDelay(g_ui32SysClock / (1000 * 3));
     a90:	4b10      	ldr	r3, [pc, #64]	@ (ad4 <ICDIUARTIntHandler+0x94>)
     a92:	681b      	ldr	r3, [r3, #0]
     a94:	4a10      	ldr	r2, [pc, #64]	@ (ad8 <ICDIUARTIntHandler+0x98>)
     a96:	fba2 2303 	umull	r2, r3, r2, r3
     a9a:	099b      	lsrs	r3, r3, #6
     a9c:	4618      	mov	r0, r3
     a9e:	f001 f87d 	bl	1b9c <SysCtlDelay>
        GPIOPinWrite(GPIO_PORTN_BASE, GPIO_PIN_0, 0);
     aa2:	2200      	movs	r2, #0
     aa4:	2101      	movs	r1, #1
     aa6:	480a      	ldr	r0, [pc, #40]	@ (ad0 <ICDIUARTIntHandler+0x90>)
     aa8:	f000 ffac 	bl	1a04 <GPIOPinWrite>
    while (ROM_UARTCharsAvail(UART0_BASE)) {
     aac:	4b06      	ldr	r3, [pc, #24]	@ (ac8 <ICDIUARTIntHandler+0x88>)
     aae:	681b      	ldr	r3, [r3, #0]
     ab0:	332c      	adds	r3, #44	@ 0x2c
     ab2:	681b      	ldr	r3, [r3, #0]
     ab4:	4805      	ldr	r0, [pc, #20]	@ (acc <ICDIUARTIntHandler+0x8c>)
     ab6:	4798      	blx	r3
     ab8:	4603      	mov	r3, r0
     aba:	2b00      	cmp	r3, #0
     abc:	d1d3      	bne.n	a66 <ICDIUARTIntHandler+0x26>

    }

}
     abe:	bf00      	nop
     ac0:	bf00      	nop
     ac2:	370c      	adds	r7, #12
     ac4:	46bd      	mov	sp, r7
     ac6:	bd90      	pop	{r4, r7, pc}
     ac8:	01000014 	.word	0x01000014
     acc:	4000c000 	.word	0x4000c000
     ad0:	40064000 	.word	0x40064000
     ad4:	200006b0 	.word	0x200006b0
     ad8:	057619f1 	.word	0x057619f1

00000adc <USERUARTIntHandler>:


/* USER UART3 ISR - echo + accumulate, exactly as in your pwm.c */
void USERUARTIntHandler(void)
{
     adc:	b590      	push	{r4, r7, lr}
     ade:	b085      	sub	sp, #20
     ae0:	af00      	add	r7, sp, #0
    uint32_t ui32Status = ROM_UARTIntStatus(UART3_BASE, true);
     ae2:	4b4d      	ldr	r3, [pc, #308]	@ (c18 <USERUARTIntHandler+0x13c>)
     ae4:	681b      	ldr	r3, [r3, #0]
     ae6:	334c      	adds	r3, #76	@ 0x4c
     ae8:	681b      	ldr	r3, [r3, #0]
     aea:	2101      	movs	r1, #1
     aec:	484b      	ldr	r0, [pc, #300]	@ (c1c <USERUARTIntHandler+0x140>)
     aee:	4798      	blx	r3
     af0:	6078      	str	r0, [r7, #4]

    ROM_UARTIntClear(UART3_BASE, ui32Status);
     af2:	4b49      	ldr	r3, [pc, #292]	@ (c18 <USERUARTIntHandler+0x13c>)
     af4:	681b      	ldr	r3, [r3, #0]
     af6:	3350      	adds	r3, #80	@ 0x50
     af8:	681b      	ldr	r3, [r3, #0]
     afa:	6879      	ldr	r1, [r7, #4]
     afc:	4847      	ldr	r0, [pc, #284]	@ (c1c <USERUARTIntHandler+0x140>)
     afe:	4798      	blx	r3

    while (ROM_UARTCharsAvail(UART3_BASE)) {
     b00:	e07b      	b.n	bfa <USERUARTIntHandler+0x11e>

        uint8_t c = ROM_UARTCharGetNonBlocking(UART3_BASE);
     b02:	4b45      	ldr	r3, [pc, #276]	@ (c18 <USERUARTIntHandler+0x13c>)
     b04:	681b      	ldr	r3, [r3, #0]
     b06:	3334      	adds	r3, #52	@ 0x34
     b08:	681b      	ldr	r3, [r3, #0]
     b0a:	4844      	ldr	r0, [pc, #272]	@ (c1c <USERUARTIntHandler+0x140>)
     b0c:	4798      	blx	r3
     b0e:	4603      	mov	r3, r0
     b10:	70fb      	strb	r3, [r7, #3]

        /* Echo immediately */
        ROM_UARTCharPutNonBlocking(UART3_BASE, c);
     b12:	4b41      	ldr	r3, [pc, #260]	@ (c18 <USERUARTIntHandler+0x13c>)
     b14:	681b      	ldr	r3, [r3, #0]
     b16:	333c      	adds	r3, #60	@ 0x3c
     b18:	681b      	ldr	r3, [r3, #0]
     b1a:	461a      	mov	r2, r3
     b1c:	78fb      	ldrb	r3, [r7, #3]
     b1e:	4619      	mov	r1, r3
     b20:	483e      	ldr	r0, [pc, #248]	@ (c1c <USERUARTIntHandler+0x140>)
     b22:	4790      	blx	r2

        /* Toggle PF4 LED on each received byte */
        static uint8_t led = 0;
        led = !led;
     b24:	4b3e      	ldr	r3, [pc, #248]	@ (c20 <USERUARTIntHandler+0x144>)
     b26:	781b      	ldrb	r3, [r3, #0]
     b28:	2b00      	cmp	r3, #0
     b2a:	bf0c      	ite	eq
     b2c:	2301      	moveq	r3, #1
     b2e:	2300      	movne	r3, #0
     b30:	b2db      	uxtb	r3, r3
     b32:	461a      	mov	r2, r3
     b34:	4b3a      	ldr	r3, [pc, #232]	@ (c20 <USERUARTIntHandler+0x144>)
     b36:	701a      	strb	r2, [r3, #0]
        ROM_GPIOPinWrite(GPIO_PORTF_BASE, GPIO_PIN_4, led ? GPIO_PIN_4 : 0);
     b38:	4b3a      	ldr	r3, [pc, #232]	@ (c24 <USERUARTIntHandler+0x148>)
     b3a:	681b      	ldr	r3, [r3, #0]
     b3c:	681b      	ldr	r3, [r3, #0]
     b3e:	461c      	mov	r4, r3
     b40:	4b37      	ldr	r3, [pc, #220]	@ (c20 <USERUARTIntHandler+0x144>)
     b42:	781b      	ldrb	r3, [r3, #0]
     b44:	2b00      	cmp	r3, #0
     b46:	d001      	beq.n	b4c <USERUARTIntHandler+0x70>
     b48:	2310      	movs	r3, #16
     b4a:	e000      	b.n	b4e <USERUARTIntHandler+0x72>
     b4c:	2300      	movs	r3, #0
     b4e:	461a      	mov	r2, r3
     b50:	2110      	movs	r1, #16
     b52:	4835      	ldr	r0, [pc, #212]	@ (c28 <USERUARTIntHandler+0x14c>)
     b54:	47a0      	blx	r4

        if (user_cmd_ready) continue;
     b56:	4b35      	ldr	r3, [pc, #212]	@ (c2c <USERUARTIntHandler+0x150>)
     b58:	781b      	ldrb	r3, [r3, #0]
     b5a:	b2db      	uxtb	r3, r3
     b5c:	2b00      	cmp	r3, #0
     b5e:	d14b      	bne.n	bf8 <USERUARTIntHandler+0x11c>

        if ((char)c == '\r' || (char)c == '\n') {
     b60:	78fb      	ldrb	r3, [r7, #3]
     b62:	2b0d      	cmp	r3, #13
     b64:	d002      	beq.n	b6c <USERUARTIntHandler+0x90>
     b66:	78fb      	ldrb	r3, [r7, #3]
     b68:	2b0a      	cmp	r3, #10
     b6a:	d120      	bne.n	bae <USERUARTIntHandler+0xd2>

            if (user_rx_len > 0) {
     b6c:	4b30      	ldr	r3, [pc, #192]	@ (c30 <USERUARTIntHandler+0x154>)
     b6e:	681b      	ldr	r3, [r3, #0]
     b70:	2b00      	cmp	r3, #0
     b72:	d008      	beq.n	b86 <USERUARTIntHandler+0xaa>
                user_rx_buf[user_rx_len] = '\0';
     b74:	4b2e      	ldr	r3, [pc, #184]	@ (c30 <USERUARTIntHandler+0x154>)
     b76:	681b      	ldr	r3, [r3, #0]
     b78:	4a2e      	ldr	r2, [pc, #184]	@ (c34 <USERUARTIntHandler+0x158>)
     b7a:	2100      	movs	r1, #0
     b7c:	54d1      	strb	r1, [r2, r3]
                user_cmd_ready = true;
     b7e:	4b2b      	ldr	r3, [pc, #172]	@ (c2c <USERUARTIntHandler+0x150>)
     b80:	2201      	movs	r2, #1
     b82:	701a      	strb	r2, [r3, #0]
            if (user_rx_len > 0) {
     b84:	e039      	b.n	bfa <USERUARTIntHandler+0x11e>
            } else {
                /* Empty line - reprint prompt */
                const char *p = "\r\n> ";
     b86:	4b2c      	ldr	r3, [pc, #176]	@ (c38 <USERUARTIntHandler+0x15c>)
     b88:	60fb      	str	r3, [r7, #12]
                while (*p) ROM_UARTCharPutNonBlocking(UART3_BASE, *p++);
     b8a:	e00b      	b.n	ba4 <USERUARTIntHandler+0xc8>
     b8c:	4b22      	ldr	r3, [pc, #136]	@ (c18 <USERUARTIntHandler+0x13c>)
     b8e:	681b      	ldr	r3, [r3, #0]
     b90:	333c      	adds	r3, #60	@ 0x3c
     b92:	681b      	ldr	r3, [r3, #0]
     b94:	461c      	mov	r4, r3
     b96:	68fb      	ldr	r3, [r7, #12]
     b98:	1c5a      	adds	r2, r3, #1
     b9a:	60fa      	str	r2, [r7, #12]
     b9c:	781b      	ldrb	r3, [r3, #0]
     b9e:	4619      	mov	r1, r3
     ba0:	481e      	ldr	r0, [pc, #120]	@ (c1c <USERUARTIntHandler+0x140>)
     ba2:	47a0      	blx	r4
     ba4:	68fb      	ldr	r3, [r7, #12]
     ba6:	781b      	ldrb	r3, [r3, #0]
     ba8:	2b00      	cmp	r3, #0
     baa:	d1ef      	bne.n	b8c <USERUARTIntHandler+0xb0>
            if (user_rx_len > 0) {
     bac:	e025      	b.n	bfa <USERUARTIntHandler+0x11e>
            }

        } else {
            if (user_rx_len + 1 < UART_RX_BUF_SIZE) {
     bae:	4b20      	ldr	r3, [pc, #128]	@ (c30 <USERUARTIntHandler+0x154>)
     bb0:	681b      	ldr	r3, [r3, #0]
     bb2:	3301      	adds	r3, #1
     bb4:	2b3f      	cmp	r3, #63	@ 0x3f
     bb6:	d808      	bhi.n	bca <USERUARTIntHandler+0xee>
                user_rx_buf[user_rx_len++] = (char)c;
     bb8:	4b1d      	ldr	r3, [pc, #116]	@ (c30 <USERUARTIntHandler+0x154>)
     bba:	681b      	ldr	r3, [r3, #0]
     bbc:	1c5a      	adds	r2, r3, #1
     bbe:	491c      	ldr	r1, [pc, #112]	@ (c30 <USERUARTIntHandler+0x154>)
     bc0:	600a      	str	r2, [r1, #0]
     bc2:	491c      	ldr	r1, [pc, #112]	@ (c34 <USERUARTIntHandler+0x158>)
     bc4:	78fa      	ldrb	r2, [r7, #3]
     bc6:	54ca      	strb	r2, [r1, r3]
     bc8:	e017      	b.n	bfa <USERUARTIntHandler+0x11e>
            } else {
                /* Overflow - reset */
                user_rx_len = 0;
     bca:	4b19      	ldr	r3, [pc, #100]	@ (c30 <USERUARTIntHandler+0x154>)
     bcc:	2200      	movs	r2, #0
     bce:	601a      	str	r2, [r3, #0]
                const char *err = "\r\nERROR: line too long\r\n> ";
     bd0:	4b1a      	ldr	r3, [pc, #104]	@ (c3c <USERUARTIntHandler+0x160>)
     bd2:	60bb      	str	r3, [r7, #8]
                while (*err) ROM_UARTCharPutNonBlocking(UART3_BASE, *err++);
     bd4:	e00b      	b.n	bee <USERUARTIntHandler+0x112>
     bd6:	4b10      	ldr	r3, [pc, #64]	@ (c18 <USERUARTIntHandler+0x13c>)
     bd8:	681b      	ldr	r3, [r3, #0]
     bda:	333c      	adds	r3, #60	@ 0x3c
     bdc:	681b      	ldr	r3, [r3, #0]
     bde:	461c      	mov	r4, r3
     be0:	68bb      	ldr	r3, [r7, #8]
     be2:	1c5a      	adds	r2, r3, #1
     be4:	60ba      	str	r2, [r7, #8]
     be6:	781b      	ldrb	r3, [r3, #0]
     be8:	4619      	mov	r1, r3
     bea:	480c      	ldr	r0, [pc, #48]	@ (c1c <USERUARTIntHandler+0x140>)
     bec:	47a0      	blx	r4
     bee:	68bb      	ldr	r3, [r7, #8]
     bf0:	781b      	ldrb	r3, [r3, #0]
     bf2:	2b00      	cmp	r3, #0
     bf4:	d1ef      	bne.n	bd6 <USERUARTIntHandler+0xfa>
     bf6:	e000      	b.n	bfa <USERUARTIntHandler+0x11e>
        if (user_cmd_ready) continue;
     bf8:	bf00      	nop
    while (ROM_UARTCharsAvail(UART3_BASE)) {
     bfa:	4b07      	ldr	r3, [pc, #28]	@ (c18 <USERUARTIntHandler+0x13c>)
     bfc:	681b      	ldr	r3, [r3, #0]
     bfe:	332c      	adds	r3, #44	@ 0x2c
     c00:	681b      	ldr	r3, [r3, #0]
     c02:	4806      	ldr	r0, [pc, #24]	@ (c1c <USERUARTIntHandler+0x140>)
     c04:	4798      	blx	r3
     c06:	4603      	mov	r3, r0
     c08:	2b00      	cmp	r3, #0
     c0a:	f47f af7a 	bne.w	b02 <USERUARTIntHandler+0x26>
            }
        }
    }

}
     c0e:	bf00      	nop
     c10:	bf00      	nop
     c12:	3714      	adds	r7, #20
     c14:	46bd      	mov	sp, r7
     c16:	bd90      	pop	{r4, r7, pc}
     c18:	01000014 	.word	0x01000014
     c1c:	4000f000 	.word	0x4000f000
     c20:	20000701 	.word	0x20000701
     c24:	01000020 	.word	0x01000020
     c28:	40025000 	.word	0x40025000
     c2c:	20000700 	.word	0x20000700
     c30:	200006fc 	.word	0x200006fc
     c34:	200006bc 	.word	0x200006bc
     c38:	00008f90 	.word	0x00008f90
     c3c:	00008f98 	.word	0x00008f98

00000c40 <process_user_line>:


/* Command processing - exactly as in your pwm.c */
static void process_user_line(const char *line)
{
     c40:	b580      	push	{r7, lr}
     c42:	b098      	sub	sp, #96	@ 0x60
     c44:	af00      	add	r7, sp, #0
     c46:	6078      	str	r0, [r7, #4]
    /* Skip leading spaces */
    while (*line && my_isspace((unsigned char)*line)) line++;
     c48:	e002      	b.n	c50 <process_user_line+0x10>
     c4a:	687b      	ldr	r3, [r7, #4]
     c4c:	3301      	adds	r3, #1
     c4e:	607b      	str	r3, [r7, #4]
     c50:	687b      	ldr	r3, [r7, #4]
     c52:	781b      	ldrb	r3, [r3, #0]
     c54:	2b00      	cmp	r3, #0
     c56:	d007      	beq.n	c68 <process_user_line+0x28>
     c58:	687b      	ldr	r3, [r7, #4]
     c5a:	781b      	ldrb	r3, [r3, #0]
     c5c:	4618      	mov	r0, r3
     c5e:	f7ff febb 	bl	9d8 <my_isspace>
     c62:	4603      	mov	r3, r0
     c64:	2b00      	cmp	r3, #0
     c66:	d1f0      	bne.n	c4a <process_user_line+0xa>

    char buf[UART_RX_BUF_SIZE];
    strncpy(buf, line, sizeof(buf) - 1);
     c68:	f107 0310 	add.w	r3, r7, #16
     c6c:	223f      	movs	r2, #63	@ 0x3f
     c6e:	6879      	ldr	r1, [r7, #4]
     c70:	4618      	mov	r0, r3
     c72:	f001 f8b9 	bl	1de8 <strncpy>
    buf[sizeof(buf) - 1] = '\0';
     c76:	2300      	movs	r3, #0
     c78:	f887 304f 	strb.w	r3, [r7, #79]	@ 0x4f

    char *saveptr = NULL;
     c7c:	2300      	movs	r3, #0
     c7e:	60fb      	str	r3, [r7, #12]
    char *tok = strtok_r(buf, " \t", &saveptr);
     c80:	f107 020c 	add.w	r2, r7, #12
     c84:	f107 0310 	add.w	r3, r7, #16
     c88:	4931      	ldr	r1, [pc, #196]	@ (d50 <process_user_line+0x110>)
     c8a:	4618      	mov	r0, r3
     c8c:	f004 f94a 	bl	4f24 <strtok_r>
     c90:	65b8      	str	r0, [r7, #88]	@ 0x58
    if (!tok) {
     c92:	6dbb      	ldr	r3, [r7, #88]	@ 0x58
     c94:	2b00      	cmp	r3, #0
     c96:	d105      	bne.n	ca4 <process_user_line+0x64>
        UARTSend((const uint8_t *)"\r\n> ", 4, UARTDEV_USER);
     c98:	2201      	movs	r2, #1
     c9a:	2104      	movs	r1, #4
     c9c:	482d      	ldr	r0, [pc, #180]	@ (d54 <process_user_line+0x114>)
     c9e:	f7ff faaf 	bl	200 <UARTSend>
        return;
     ca2:	e052      	b.n	d4a <process_user_line+0x10a>
    }

    /* Case-insensitive PSYN */
    for (char *p = tok; *p; ++p) *p = (char)my_toupper((unsigned char)*p);
     ca4:	6dbb      	ldr	r3, [r7, #88]	@ 0x58
     ca6:	65fb      	str	r3, [r7, #92]	@ 0x5c
     ca8:	e00b      	b.n	cc2 <process_user_line+0x82>
     caa:	6dfb      	ldr	r3, [r7, #92]	@ 0x5c
     cac:	781b      	ldrb	r3, [r3, #0]
     cae:	4618      	mov	r0, r3
     cb0:	f7ff feb1 	bl	a16 <my_toupper>
     cb4:	4603      	mov	r3, r0
     cb6:	b2da      	uxtb	r2, r3
     cb8:	6dfb      	ldr	r3, [r7, #92]	@ 0x5c
     cba:	701a      	strb	r2, [r3, #0]
     cbc:	6dfb      	ldr	r3, [r7, #92]	@ 0x5c
     cbe:	3301      	adds	r3, #1
     cc0:	65fb      	str	r3, [r7, #92]	@ 0x5c
     cc2:	6dfb      	ldr	r3, [r7, #92]	@ 0x5c
     cc4:	781b      	ldrb	r3, [r3, #0]
     cc6:	2b00      	cmp	r3, #0
     cc8:	d1ef      	bne.n	caa <process_user_line+0x6a>

    if (strcmp(tok, "PSYN") == 0) {
     cca:	4923      	ldr	r1, [pc, #140]	@ (d58 <process_user_line+0x118>)
     ccc:	6db8      	ldr	r0, [r7, #88]	@ 0x58
     cce:	f002 fba7 	bl	3420 <strcmp>
     cd2:	4603      	mov	r3, r0
     cd4:	2b00      	cmp	r3, #0
     cd6:	d133      	bne.n	d40 <process_user_line+0x100>
        char *numtok = strtok_r(NULL, " \t", &saveptr);
     cd8:	f107 030c 	add.w	r3, r7, #12
     cdc:	461a      	mov	r2, r3
     cde:	491c      	ldr	r1, [pc, #112]	@ (d50 <process_user_line+0x110>)
     ce0:	2000      	movs	r0, #0
     ce2:	f004 f91f 	bl	4f24 <strtok_r>
     ce6:	6578      	str	r0, [r7, #84]	@ 0x54
        if (!numtok) {
     ce8:	6d7b      	ldr	r3, [r7, #84]	@ 0x54
     cea:	2b00      	cmp	r3, #0
     cec:	d105      	bne.n	cfa <process_user_line+0xba>
            UARTSend((const uint8_t *)"\r\nERROR: missing value. Use: PSYN n  (n=5..96)\r\n> ", 51, UARTDEV_USER);
     cee:	2201      	movs	r2, #1
     cf0:	2133      	movs	r1, #51	@ 0x33
     cf2:	481a      	ldr	r0, [pc, #104]	@ (d5c <process_user_line+0x11c>)
     cf4:	f7ff fa84 	bl	200 <UARTSend>
            return;
     cf8:	e027      	b.n	d4a <process_user_line+0x10a>
        }

        char *endptr;
        long val = strtol(numtok, &endptr, 10);
     cfa:	f107 0308 	add.w	r3, r7, #8
     cfe:	220a      	movs	r2, #10
     d00:	4619      	mov	r1, r3
     d02:	6d78      	ldr	r0, [r7, #84]	@ 0x54
     d04:	f004 f9bc 	bl	5080 <strtol>
     d08:	6538      	str	r0, [r7, #80]	@ 0x50
        if (*endptr != '\0') {
     d0a:	68bb      	ldr	r3, [r7, #8]
     d0c:	781b      	ldrb	r3, [r3, #0]
     d0e:	2b00      	cmp	r3, #0
     d10:	d005      	beq.n	d1e <process_user_line+0xde>
            UARTSend((const uint8_t *)"\r\nERROR: invalid number. Use: PSYN n\r\n> ", 41, UARTDEV_USER);
     d12:	2201      	movs	r2, #1
     d14:	2129      	movs	r1, #41	@ 0x29
     d16:	4812      	ldr	r0, [pc, #72]	@ (d60 <process_user_line+0x120>)
     d18:	f7ff fa72 	bl	200 <UARTSend>
            return;
     d1c:	e015      	b.n	d4a <process_user_line+0x10a>
        }
        if (val < PSYN_MIN || val > PSYN_MAX) {
     d1e:	6d3b      	ldr	r3, [r7, #80]	@ 0x50
     d20:	2b04      	cmp	r3, #4
     d22:	dd02      	ble.n	d2a <process_user_line+0xea>
     d24:	6d3b      	ldr	r3, [r7, #80]	@ 0x50
     d26:	2b60      	cmp	r3, #96	@ 0x60
     d28:	dd05      	ble.n	d36 <process_user_line+0xf6>
            UARTSend((const uint8_t *)"\r\nERROR: value out of range (5..96)\r\n> ", 41, UARTDEV_USER);
     d2a:	2201      	movs	r2, #1
     d2c:	2129      	movs	r1, #41	@ 0x29
     d2e:	480d      	ldr	r0, [pc, #52]	@ (d64 <process_user_line+0x124>)
     d30:	f7ff fa66 	bl	200 <UARTSend>
            return;
     d34:	e009      	b.n	d4a <process_user_line+0x10a>
        }

        /* Valid - update PWM using YOUR working function */
        set_pwm_percent((uint32_t)val);
     d36:	6d3b      	ldr	r3, [r7, #80]	@ 0x50
     d38:	4618      	mov	r0, r3
     d3a:	f000 f817 	bl	d6c <set_pwm_percent>
     d3e:	e004      	b.n	d4a <process_user_line+0x10a>

        //UARTSend((const uint8_t *)ack, (uint32_t)n, UARTDEV_USER);

    } else {

        UARTSend((const uint8_t *)"\r\nERROR: unknown command. Use: PSYN n\r\n> ", 43, UARTDEV_USER);
     d40:	2201      	movs	r2, #1
     d42:	212b      	movs	r1, #43	@ 0x2b
     d44:	4808      	ldr	r0, [pc, #32]	@ (d68 <process_user_line+0x128>)
     d46:	f7ff fa5b 	bl	200 <UARTSend>
    }

}
     d4a:	3760      	adds	r7, #96	@ 0x60
     d4c:	46bd      	mov	sp, r7
     d4e:	bd80      	pop	{r7, pc}
     d50:	00008fb4 	.word	0x00008fb4
     d54:	00008f90 	.word	0x00008f90
     d58:	00008fb8 	.word	0x00008fb8
     d5c:	00008fc0 	.word	0x00008fc0
     d60:	00008ff4 	.word	0x00008ff4
     d64:	00009020 	.word	0x00009020
     d68:	00009048 	.word	0x00009048

00000d6c <set_pwm_percent>:


/* PWM update - EXACTLY as in your working pwm.c (NO disable/enable!) */
static void set_pwm_percent(uint32_t percent)
{
     d6c:	e92d 43b0 	stmdb	sp!, {r4, r5, r7, r8, r9, lr}
     d70:	b084      	sub	sp, #16
     d72:	af00      	add	r7, sp, #0
     d74:	6078      	str	r0, [r7, #4]
    if (percent > 100) percent = 100;
     d76:	6879      	ldr	r1, [r7, #4]
     d78:	2964      	cmp	r1, #100	@ 0x64
     d7a:	d901      	bls.n	d80 <set_pwm_percent+0x14>
     d7c:	2164      	movs	r1, #100	@ 0x64
     d7e:	6079      	str	r1, [r7, #4]
    uint32_t pulse = (uint32_t)(((uint64_t)g_pwmPeriod * percent) / 100U);
     d80:	491c      	ldr	r1, [pc, #112]	@ (df4 <set_pwm_percent+0x88>)
     d82:	6809      	ldr	r1, [r1, #0]
     d84:	2000      	movs	r0, #0
     d86:	4688      	mov	r8, r1
     d88:	4681      	mov	r9, r0
     d8a:	6879      	ldr	r1, [r7, #4]
     d8c:	2000      	movs	r0, #0
     d8e:	460a      	mov	r2, r1
     d90:	4603      	mov	r3, r0
     d92:	fb02 f009 	mul.w	r0, r2, r9
     d96:	fb08 f103 	mul.w	r1, r8, r3
     d9a:	4401      	add	r1, r0
     d9c:	fba8 4502 	umull	r4, r5, r8, r2
     da0:	194b      	adds	r3, r1, r5
     da2:	461d      	mov	r5, r3
     da4:	f04f 0264 	mov.w	r2, #100	@ 0x64
     da8:	f04f 0300 	mov.w	r3, #0
     dac:	4620      	mov	r0, r4
     dae:	4629      	mov	r1, r5
     db0:	f007 fd3a 	bl	8828 <__aeabi_uldivmod>
     db4:	4602      	mov	r2, r0
     db6:	460b      	mov	r3, r1
     db8:	4613      	mov	r3, r2
     dba:	60fb      	str	r3, [r7, #12]
    if (pulse >= g_pwmPeriod) pulse = g_pwmPeriod - 1;
     dbc:	4b0d      	ldr	r3, [pc, #52]	@ (df4 <set_pwm_percent+0x88>)
     dbe:	681b      	ldr	r3, [r3, #0]
     dc0:	68fa      	ldr	r2, [r7, #12]
     dc2:	429a      	cmp	r2, r3
     dc4:	d303      	bcc.n	dce <set_pwm_percent+0x62>
     dc6:	4b0b      	ldr	r3, [pc, #44]	@ (df4 <set_pwm_percent+0x88>)
     dc8:	681b      	ldr	r3, [r3, #0]
     dca:	3b01      	subs	r3, #1
     dcc:	60fb      	str	r3, [r7, #12]
    if (pulse == 0) pulse = 1;
     dce:	68fb      	ldr	r3, [r7, #12]
     dd0:	2b00      	cmp	r3, #0
     dd2:	d101      	bne.n	dd8 <set_pwm_percent+0x6c>
     dd4:	2301      	movs	r3, #1
     dd6:	60fb      	str	r3, [r7, #12]

    /* ONLY set pulse width - no disable/enable */
    PWMPulseWidthSet(PWM0_BASE, PWM_OUT_2, pulse);
     dd8:	68fa      	ldr	r2, [r7, #12]
     dda:	2182      	movs	r1, #130	@ 0x82
     ddc:	4806      	ldr	r0, [pc, #24]	@ (df8 <set_pwm_percent+0x8c>)
     dde:	f000 fe67 	bl	1ab0 <PWMPulseWidthSet>
    g_pwmPulse = pulse;
     de2:	4a06      	ldr	r2, [pc, #24]	@ (dfc <set_pwm_percent+0x90>)
     de4:	68fb      	ldr	r3, [r7, #12]
     de6:	6013      	str	r3, [r2, #0]
}
     de8:	bf00      	nop
     dea:	3710      	adds	r7, #16
     dec:	46bd      	mov	sp, r7
     dee:	e8bd 83b0 	ldmia.w	sp!, {r4, r5, r7, r8, r9, pc}
     df2:	bf00      	nop
     df4:	200006b4 	.word	0x200006b4
     df8:	40028000 	.word	0x40028000
     dfc:	200006b8 	.word	0x200006b8

00000e00 <setup_pwm_pf2>:


/* PWM setup - EXACTLY as in your working pwm.c */
static void setup_pwm_pf2(void)
{
     e00:	e92d 4fb0 	stmdb	sp!, {r4, r5, r7, r8, r9, sl, fp, lr}
     e04:	b084      	sub	sp, #16
     e06:	af00      	add	r7, sp, #0
    SysCtlPeripheralEnable(SYSCTL_PERIPH_PWM0);
     e08:	4848      	ldr	r0, [pc, #288]	@ (f2c <setup_pwm_pf2+0x12c>)
     e0a:	f000 feb7 	bl	1b7c <SysCtlPeripheralEnable>
    SysCtlPeripheralEnable(SYSCTL_PERIPH_GPIOF);
     e0e:	4848      	ldr	r0, [pc, #288]	@ (f30 <setup_pwm_pf2+0x130>)
     e10:	f000 feb4 	bl	1b7c <SysCtlPeripheralEnable>

    while (!SysCtlPeripheralReady(SYSCTL_PERIPH_PWM0)) { }
     e14:	bf00      	nop
     e16:	4845      	ldr	r0, [pc, #276]	@ (f2c <setup_pwm_pf2+0x12c>)
     e18:	f000 fe9e 	bl	1b58 <SysCtlPeripheralReady>
     e1c:	4603      	mov	r3, r0
     e1e:	f083 0301 	eor.w	r3, r3, #1
     e22:	b2db      	uxtb	r3, r3
     e24:	2b00      	cmp	r3, #0
     e26:	d1f6      	bne.n	e16 <setup_pwm_pf2+0x16>
    while (!SysCtlPeripheralReady(SYSCTL_PERIPH_GPIOF)) { }
     e28:	bf00      	nop
     e2a:	4841      	ldr	r0, [pc, #260]	@ (f30 <setup_pwm_pf2+0x130>)
     e2c:	f000 fe94 	bl	1b58 <SysCtlPeripheralReady>
     e30:	4603      	mov	r3, r0
     e32:	f083 0301 	eor.w	r3, r3, #1
     e36:	b2db      	uxtb	r3, r3
     e38:	2b00      	cmp	r3, #0
     e3a:	d1f6      	bne.n	e2a <setup_pwm_pf2+0x2a>

    GPIOPinConfigure(GPIO_PF2_M0PWM2);
     e3c:	483d      	ldr	r0, [pc, #244]	@ (f34 <setup_pwm_pf2+0x134>)
     e3e:	f000 fdf3 	bl	1a28 <GPIOPinConfigure>
    GPIOPinTypePWM(GPIO_PORTF_BASE, GPIO_PIN_2);
     e42:	2104      	movs	r1, #4
     e44:	483c      	ldr	r0, [pc, #240]	@ (f38 <setup_pwm_pf2+0x138>)
     e46:	f000 fdec 	bl	1a22 <GPIOPinTypePWM>

    PWMClockSet(PWM0_BASE, PWM_SYSCLK_DIV_1);
     e4a:	2100      	movs	r1, #0
     e4c:	483b      	ldr	r0, [pc, #236]	@ (f3c <setup_pwm_pf2+0x13c>)
     e4e:	f000 fe46 	bl	1ade <PWMClockSet>

    uint32_t pwmClock = g_ui32SysClock;
     e52:	4b3b      	ldr	r3, [pc, #236]	@ (f40 <setup_pwm_pf2+0x140>)
     e54:	681b      	ldr	r3, [r3, #0]
     e56:	607b      	str	r3, [r7, #4]
    uint32_t period = (pwmClock + (TARGET_PWM_FREQ_HZ / 2U)) / TARGET_PWM_FREQ_HZ;
     e58:	687b      	ldr	r3, [r7, #4]
     e5a:	f503 5327 	add.w	r3, r3, #10688	@ 0x29c0
     e5e:	333e      	adds	r3, #62	@ 0x3e
     e60:	4a38      	ldr	r2, [pc, #224]	@ (f44 <setup_pwm_pf2+0x144>)
     e62:	fba2 2303 	umull	r2, r3, r2, r3
     e66:	0b5b      	lsrs	r3, r3, #13
     e68:	60fb      	str	r3, [r7, #12]
    if (period == 0) period = 1;
     e6a:	68fb      	ldr	r3, [r7, #12]
     e6c:	2b00      	cmp	r3, #0
     e6e:	d101      	bne.n	e74 <setup_pwm_pf2+0x74>
     e70:	2301      	movs	r3, #1
     e72:	60fb      	str	r3, [r7, #12]
    if (period > 0xFFFF) period = 0xFFFF;
     e74:	68fb      	ldr	r3, [r7, #12]
     e76:	f5b3 3f80 	cmp.w	r3, #65536	@ 0x10000
     e7a:	d302      	bcc.n	e82 <setup_pwm_pf2+0x82>
     e7c:	f64f 73ff 	movw	r3, #65535	@ 0xffff
     e80:	60fb      	str	r3, [r7, #12]

    g_pwmPeriod = period;
     e82:	4a31      	ldr	r2, [pc, #196]	@ (f48 <setup_pwm_pf2+0x148>)
     e84:	68fb      	ldr	r3, [r7, #12]
     e86:	6013      	str	r3, [r2, #0]

    uint32_t init_pulse = (uint32_t)(((uint64_t)period * TARGET_DUTY_PERCENT_INIT) / 100U);
     e88:	68fb      	ldr	r3, [r7, #12]
     e8a:	2200      	movs	r2, #0
     e8c:	4698      	mov	r8, r3
     e8e:	4691      	mov	r9, r2
     e90:	4642      	mov	r2, r8
     e92:	464b      	mov	r3, r9
     e94:	f04f 0000 	mov.w	r0, #0
     e98:	f04f 0100 	mov.w	r1, #0
     e9c:	0119      	lsls	r1, r3, #4
     e9e:	ea41 7112 	orr.w	r1, r1, r2, lsr #28
     ea2:	0110      	lsls	r0, r2, #4
     ea4:	4602      	mov	r2, r0
     ea6:	460b      	mov	r3, r1
     ea8:	ebb2 0408 	subs.w	r4, r2, r8
     eac:	eb63 0509 	sbc.w	r5, r3, r9
     eb0:	eb14 0a04 	adds.w	sl, r4, r4
     eb4:	eb45 0b05 	adc.w	fp, r5, r5
     eb8:	4654      	mov	r4, sl
     eba:	465d      	mov	r5, fp
     ebc:	4620      	mov	r0, r4
     ebe:	4629      	mov	r1, r5
     ec0:	f04f 0264 	mov.w	r2, #100	@ 0x64
     ec4:	f04f 0300 	mov.w	r3, #0
     ec8:	f007 fcae 	bl	8828 <__aeabi_uldivmod>
     ecc:	4602      	mov	r2, r0
     ece:	460b      	mov	r3, r1
     ed0:	4613      	mov	r3, r2
     ed2:	60bb      	str	r3, [r7, #8]
    if (init_pulse >= period) init_pulse = period - 1;
     ed4:	68ba      	ldr	r2, [r7, #8]
     ed6:	68fb      	ldr	r3, [r7, #12]
     ed8:	429a      	cmp	r2, r3
     eda:	d302      	bcc.n	ee2 <setup_pwm_pf2+0xe2>
     edc:	68fb      	ldr	r3, [r7, #12]
     ede:	3b01      	subs	r3, #1
     ee0:	60bb      	str	r3, [r7, #8]
    if (init_pulse == 0) init_pulse = 1;
     ee2:	68bb      	ldr	r3, [r7, #8]
     ee4:	2b00      	cmp	r3, #0
     ee6:	d101      	bne.n	eec <setup_pwm_pf2+0xec>
     ee8:	2301      	movs	r3, #1
     eea:	60bb      	str	r3, [r7, #8]
    g_pwmPulse = init_pulse;
     eec:	4a17      	ldr	r2, [pc, #92]	@ (f4c <setup_pwm_pf2+0x14c>)
     eee:	68bb      	ldr	r3, [r7, #8]
     ef0:	6013      	str	r3, [r2, #0]

    PWMGenConfigure(PWM0_BASE, PWM_GEN_1, PWM_GEN_MODE_DOWN | PWM_GEN_MODE_NO_SYNC);
     ef2:	2200      	movs	r2, #0
     ef4:	2180      	movs	r1, #128	@ 0x80
     ef6:	4811      	ldr	r0, [pc, #68]	@ (f3c <setup_pwm_pf2+0x13c>)
     ef8:	f000 fdb8 	bl	1a6c <PWMGenConfigure>
    PWMGenPeriodSet(PWM0_BASE, PWM_GEN_1, period);
     efc:	68fa      	ldr	r2, [r7, #12]
     efe:	2180      	movs	r1, #128	@ 0x80
     f00:	480e      	ldr	r0, [pc, #56]	@ (f3c <setup_pwm_pf2+0x13c>)
     f02:	f000 fdc7 	bl	1a94 <PWMGenPeriodSet>
    PWMPulseWidthSet(PWM0_BASE, PWM_OUT_2, init_pulse);
     f06:	68ba      	ldr	r2, [r7, #8]
     f08:	2182      	movs	r1, #130	@ 0x82
     f0a:	480c      	ldr	r0, [pc, #48]	@ (f3c <setup_pwm_pf2+0x13c>)
     f0c:	f000 fdd0 	bl	1ab0 <PWMPulseWidthSet>
    PWMOutputState(PWM0_BASE, PWM_OUT_2_BIT, true);
     f10:	2201      	movs	r2, #1
     f12:	2104      	movs	r1, #4
     f14:	4809      	ldr	r0, [pc, #36]	@ (f3c <setup_pwm_pf2+0x13c>)
     f16:	f000 fdda 	bl	1ace <PWMOutputState>
    PWMGenEnable(PWM0_BASE, PWM_GEN_1);
     f1a:	2180      	movs	r1, #128	@ 0x80
     f1c:	4807      	ldr	r0, [pc, #28]	@ (f3c <setup_pwm_pf2+0x13c>)
     f1e:	f000 fdc2 	bl	1aa6 <PWMGenEnable>
}
     f22:	bf00      	nop
     f24:	3710      	adds	r7, #16
     f26:	46bd      	mov	sp, r7
     f28:	e8bd 8fb0 	ldmia.w	sp!, {r4, r5, r7, r8, r9, sl, fp, pc}
     f2c:	f0004000 	.word	0xf0004000
     f30:	f0000805 	.word	0xf0000805
     f34:	00050806 	.word	0x00050806
     f38:	40025000 	.word	0x40025000
     f3c:	40028000 	.word	0x40028000
     f40:	200006b0 	.word	0x200006b0
     f44:	618abd77 	.word	0x618abd77
     f48:	200006b4 	.word	0x200006b4
     f4c:	200006b8 	.word	0x200006b8

00000f50 <setup_system_clock>:


static void setup_system_clock(void)
{
     f50:	b580      	push	{r7, lr}
     f52:	af00      	add	r7, sp, #0
    g_ui32SysClock = MAP_SysCtlClockFreqSet((SYSCTL_XTAL_25MHZ |
     f54:	4904      	ldr	r1, [pc, #16]	@ (f68 <setup_system_clock+0x18>)
     f56:	4805      	ldr	r0, [pc, #20]	@ (f6c <setup_system_clock+0x1c>)
     f58:	f000 fe24 	bl	1ba4 <SysCtlClockFreqSet>
     f5c:	4603      	mov	r3, r0
     f5e:	4a04      	ldr	r2, [pc, #16]	@ (f70 <setup_system_clock+0x20>)
     f60:	6013      	str	r3, [r2, #0]
                                             SYSCTL_OSC_MAIN |
                                             SYSCTL_USE_PLL |
                                             SYSCTL_CFG_VCO_480), 120000000);
}
     f62:	bf00      	nop
     f64:	bd80      	pop	{r7, pc}
     f66:	bf00      	nop
     f68:	07270e00 	.word	0x07270e00
     f6c:	f1000680 	.word	0xf1000680
     f70:	200006b0 	.word	0x200006b0

00000f74 <setup_uarts>:


static void setup_uarts(void)
{
     f74:	b598      	push	{r3, r4, r7, lr}
     f76:	af00      	add	r7, sp, #0
    MAP_SysCtlPeripheralEnable(SYSCTL_PERIPH_UART0);
     f78:	4b4b      	ldr	r3, [pc, #300]	@ (10a8 <setup_uarts+0x134>)
     f7a:	681b      	ldr	r3, [r3, #0]
     f7c:	3318      	adds	r3, #24
     f7e:	681b      	ldr	r3, [r3, #0]
     f80:	484a      	ldr	r0, [pc, #296]	@ (10ac <setup_uarts+0x138>)
     f82:	4798      	blx	r3
    MAP_SysCtlPeripheralEnable(SYSCTL_PERIPH_UART3);
     f84:	4b48      	ldr	r3, [pc, #288]	@ (10a8 <setup_uarts+0x134>)
     f86:	681b      	ldr	r3, [r3, #0]
     f88:	3318      	adds	r3, #24
     f8a:	681b      	ldr	r3, [r3, #0]
     f8c:	4848      	ldr	r0, [pc, #288]	@ (10b0 <setup_uarts+0x13c>)
     f8e:	4798      	blx	r3
    MAP_SysCtlPeripheralEnable(SYSCTL_PERIPH_GPIOA);
     f90:	4b45      	ldr	r3, [pc, #276]	@ (10a8 <setup_uarts+0x134>)
     f92:	681b      	ldr	r3, [r3, #0]
     f94:	3318      	adds	r3, #24
     f96:	681b      	ldr	r3, [r3, #0]
     f98:	4846      	ldr	r0, [pc, #280]	@ (10b4 <setup_uarts+0x140>)
     f9a:	4798      	blx	r3
    MAP_SysCtlPeripheralEnable(SYSCTL_PERIPH_GPIOJ);
     f9c:	4b42      	ldr	r3, [pc, #264]	@ (10a8 <setup_uarts+0x134>)
     f9e:	681b      	ldr	r3, [r3, #0]
     fa0:	3318      	adds	r3, #24
     fa2:	681b      	ldr	r3, [r3, #0]
     fa4:	4844      	ldr	r0, [pc, #272]	@ (10b8 <setup_uarts+0x144>)
     fa6:	4798      	blx	r3
    MAP_SysCtlPeripheralEnable(SYSCTL_PERIPH_GPION);
     fa8:	4b3f      	ldr	r3, [pc, #252]	@ (10a8 <setup_uarts+0x134>)
     faa:	681b      	ldr	r3, [r3, #0]
     fac:	3318      	adds	r3, #24
     fae:	681b      	ldr	r3, [r3, #0]
     fb0:	4842      	ldr	r0, [pc, #264]	@ (10bc <setup_uarts+0x148>)
     fb2:	4798      	blx	r3
    MAP_SysCtlPeripheralEnable(SYSCTL_PERIPH_GPIOQ);
     fb4:	4b3c      	ldr	r3, [pc, #240]	@ (10a8 <setup_uarts+0x134>)
     fb6:	681b      	ldr	r3, [r3, #0]
     fb8:	3318      	adds	r3, #24
     fba:	681b      	ldr	r3, [r3, #0]
     fbc:	4840      	ldr	r0, [pc, #256]	@ (10c0 <setup_uarts+0x14c>)
     fbe:	4798      	blx	r3
    MAP_SysCtlPeripheralEnable(SYSCTL_PERIPH_GPIOF);
     fc0:	4b39      	ldr	r3, [pc, #228]	@ (10a8 <setup_uarts+0x134>)
     fc2:	681b      	ldr	r3, [r3, #0]
     fc4:	3318      	adds	r3, #24
     fc6:	681b      	ldr	r3, [r3, #0]
     fc8:	483e      	ldr	r0, [pc, #248]	@ (10c4 <setup_uarts+0x150>)
     fca:	4798      	blx	r3

    GPIOPinConfigure(GPIO_PA0_U0RX);
     fcc:	2001      	movs	r0, #1
     fce:	f000 fd2b 	bl	1a28 <GPIOPinConfigure>
    GPIOPinConfigure(GPIO_PA1_U0TX);
     fd2:	f240 4001 	movw	r0, #1025	@ 0x401
     fd6:	f000 fd27 	bl	1a28 <GPIOPinConfigure>
    MAP_GPIOPinTypeUART(GPIO_PORTA_BASE, GPIO_PIN_0 | GPIO_PIN_1);
     fda:	4b3b      	ldr	r3, [pc, #236]	@ (10c8 <setup_uarts+0x154>)
     fdc:	681b      	ldr	r3, [r3, #0]
     fde:	3354      	adds	r3, #84	@ 0x54
     fe0:	681b      	ldr	r3, [r3, #0]
     fe2:	2103      	movs	r1, #3
     fe4:	f04f 2040 	mov.w	r0, #1073758208	@ 0x40004000
     fe8:	4798      	blx	r3

    GPIOPinConfigure(GPIO_PJ0_U3RX);
     fea:	4838      	ldr	r0, [pc, #224]	@ (10cc <setup_uarts+0x158>)
     fec:	f000 fd1c 	bl	1a28 <GPIOPinConfigure>
    GPIOPinConfigure(GPIO_PJ1_U3TX);
     ff0:	4837      	ldr	r0, [pc, #220]	@ (10d0 <setup_uarts+0x15c>)
     ff2:	f000 fd19 	bl	1a28 <GPIOPinConfigure>
    MAP_GPIOPinTypeUART(GPIO_PORTJ_BASE, GPIO_PIN_0 | GPIO_PIN_1);
     ff6:	4b34      	ldr	r3, [pc, #208]	@ (10c8 <setup_uarts+0x154>)
     ff8:	681b      	ldr	r3, [r3, #0]
     ffa:	3354      	adds	r3, #84	@ 0x54
     ffc:	681b      	ldr	r3, [r3, #0]
     ffe:	2103      	movs	r1, #3
    1000:	4834      	ldr	r0, [pc, #208]	@ (10d4 <setup_uarts+0x160>)
    1002:	4798      	blx	r3

    /* PF4 LED for RX activity */
    ROM_GPIOPinTypeGPIOOutput(GPIO_PORTF_BASE, GPIO_PIN_4);
    1004:	4b30      	ldr	r3, [pc, #192]	@ (10c8 <setup_uarts+0x154>)
    1006:	681b      	ldr	r3, [r3, #0]
    1008:	333c      	adds	r3, #60	@ 0x3c
    100a:	681b      	ldr	r3, [r3, #0]
    100c:	2110      	movs	r1, #16
    100e:	4832      	ldr	r0, [pc, #200]	@ (10d8 <setup_uarts+0x164>)
    1010:	4798      	blx	r3
    ROM_GPIOPinWrite(GPIO_PORTF_BASE, GPIO_PIN_4, 0);
    1012:	4b2d      	ldr	r3, [pc, #180]	@ (10c8 <setup_uarts+0x154>)
    1014:	681b      	ldr	r3, [r3, #0]
    1016:	681b      	ldr	r3, [r3, #0]
    1018:	2200      	movs	r2, #0
    101a:	2110      	movs	r1, #16
    101c:	482e      	ldr	r0, [pc, #184]	@ (10d8 <setup_uarts+0x164>)
    101e:	4798      	blx	r3

    /* PQ1 DTR detection */
    GPIOPadConfigSet(GPIO_PORTQ_BASE, GPIO_PIN_1, GPIO_STRENGTH_2MA, GPIO_PIN_TYPE_STD_WPU);
    1020:	230a      	movs	r3, #10
    1022:	2201      	movs	r2, #1
    1024:	2102      	movs	r1, #2
    1026:	482d      	ldr	r0, [pc, #180]	@ (10dc <setup_uarts+0x168>)
    1028:	f000 fc69 	bl	18fe <GPIOPadConfigSet>
    ROM_GPIOPinTypeGPIOInput(GPIO_PORTQ_BASE, GPIO_PIN_1);
    102c:	4b26      	ldr	r3, [pc, #152]	@ (10c8 <setup_uarts+0x154>)
    102e:	681b      	ldr	r3, [r3, #0]
    1030:	3338      	adds	r3, #56	@ 0x38
    1032:	681b      	ldr	r3, [r3, #0]
    1034:	2102      	movs	r1, #2
    1036:	4829      	ldr	r0, [pc, #164]	@ (10dc <setup_uarts+0x168>)
    1038:	4798      	blx	r3

    ROM_UARTConfigSetExpClk(UART0_BASE, g_ui32SysClock, 9600,
    103a:	4b29      	ldr	r3, [pc, #164]	@ (10e0 <setup_uarts+0x16c>)
    103c:	681b      	ldr	r3, [r3, #0]
    103e:	3314      	adds	r3, #20
    1040:	681b      	ldr	r3, [r3, #0]
    1042:	461c      	mov	r4, r3
    1044:	4b27      	ldr	r3, [pc, #156]	@ (10e4 <setup_uarts+0x170>)
    1046:	6819      	ldr	r1, [r3, #0]
    1048:	2360      	movs	r3, #96	@ 0x60
    104a:	f44f 5216 	mov.w	r2, #9600	@ 0x2580
    104e:	4826      	ldr	r0, [pc, #152]	@ (10e8 <setup_uarts+0x174>)
    1050:	47a0      	blx	r4
                            (UART_CONFIG_WLEN_8 | UART_CONFIG_STOP_ONE | UART_CONFIG_PAR_NONE));
    ROM_UARTConfigSetExpClk(UART3_BASE, g_ui32SysClock, 115200,
    1052:	4b23      	ldr	r3, [pc, #140]	@ (10e0 <setup_uarts+0x16c>)
    1054:	681b      	ldr	r3, [r3, #0]
    1056:	3314      	adds	r3, #20
    1058:	681b      	ldr	r3, [r3, #0]
    105a:	461c      	mov	r4, r3
    105c:	4b21      	ldr	r3, [pc, #132]	@ (10e4 <setup_uarts+0x170>)
    105e:	6819      	ldr	r1, [r3, #0]
    1060:	2360      	movs	r3, #96	@ 0x60
    1062:	f44f 32e1 	mov.w	r2, #115200	@ 0x1c200
    1066:	4821      	ldr	r0, [pc, #132]	@ (10ec <setup_uarts+0x178>)
    1068:	47a0      	blx	r4
                            (UART_CONFIG_WLEN_8 | UART_CONFIG_STOP_ONE | UART_CONFIG_PAR_NONE));

    MAP_IntMasterEnable();
    106a:	4b21      	ldr	r3, [pc, #132]	@ (10f0 <setup_uarts+0x17c>)
    106c:	681b      	ldr	r3, [r3, #0]
    106e:	3304      	adds	r3, #4
    1070:	681b      	ldr	r3, [r3, #0]
    1072:	4798      	blx	r3
    ROM_IntEnable(INT_UART0);
    1074:	4b1e      	ldr	r3, [pc, #120]	@ (10f0 <setup_uarts+0x17c>)
    1076:	681b      	ldr	r3, [r3, #0]
    1078:	681b      	ldr	r3, [r3, #0]
    107a:	2015      	movs	r0, #21
    107c:	4798      	blx	r3
    ROM_UARTIntEnable(UART0_BASE, UART_INT_RX | UART_INT_RT);
    107e:	4b18      	ldr	r3, [pc, #96]	@ (10e0 <setup_uarts+0x16c>)
    1080:	681b      	ldr	r3, [r3, #0]
    1082:	3344      	adds	r3, #68	@ 0x44
    1084:	681b      	ldr	r3, [r3, #0]
    1086:	2150      	movs	r1, #80	@ 0x50
    1088:	4817      	ldr	r0, [pc, #92]	@ (10e8 <setup_uarts+0x174>)
    108a:	4798      	blx	r3
    ROM_IntEnable(INT_UART3);
    108c:	4b18      	ldr	r3, [pc, #96]	@ (10f0 <setup_uarts+0x17c>)
    108e:	681b      	ldr	r3, [r3, #0]
    1090:	681b      	ldr	r3, [r3, #0]
    1092:	2048      	movs	r0, #72	@ 0x48
    1094:	4798      	blx	r3
    ROM_UARTIntEnable(UART3_BASE, UART_INT_RX | UART_INT_RT);
    1096:	4b12      	ldr	r3, [pc, #72]	@ (10e0 <setup_uarts+0x16c>)
    1098:	681b      	ldr	r3, [r3, #0]
    109a:	3344      	adds	r3, #68	@ 0x44
    109c:	681b      	ldr	r3, [r3, #0]
    109e:	2150      	movs	r1, #80	@ 0x50
    10a0:	4812      	ldr	r0, [pc, #72]	@ (10ec <setup_uarts+0x178>)
    10a2:	4798      	blx	r3
}
    10a4:	bf00      	nop
    10a6:	bd98      	pop	{r3, r4, r7, pc}
    10a8:	01000044 	.word	0x01000044
    10ac:	f0001800 	.word	0xf0001800
    10b0:	f0001803 	.word	0xf0001803
    10b4:	f0000800 	.word	0xf0000800
    10b8:	f0000808 	.word	0xf0000808
    10bc:	f000080c 	.word	0xf000080c
    10c0:	f000080e 	.word	0xf000080e
    10c4:	f0000805 	.word	0xf0000805
    10c8:	01000020 	.word	0x01000020
    10cc:	00080001 	.word	0x00080001
    10d0:	00080401 	.word	0x00080401
    10d4:	4003d000 	.word	0x4003d000
    10d8:	40025000 	.word	0x40025000
    10dc:	40066000 	.word	0x40066000
    10e0:	01000014 	.word	0x01000014
    10e4:	200006b0 	.word	0x200006b0
    10e8:	4000c000 	.word	0x4000c000
    10ec:	4000f000 	.word	0x4000f000
    10f0:	01000048 	.word	0x01000048

000010f4 <example_dynamic_cmd_copy_and_process>:
}
*/


void example_dynamic_cmd_copy_and_process(const volatile char *user_rx_buf, uint32_t len)
{
    10f4:	b580      	push	{r7, lr}
    10f6:	b0da      	sub	sp, #360	@ 0x168
    10f8:	af02      	add	r7, sp, #8
    10fa:	f507 73b0 	add.w	r3, r7, #352	@ 0x160
    10fe:	f5a3 73ae 	sub.w	r3, r3, #348	@ 0x15c
    1102:	6018      	str	r0, [r3, #0]
    1104:	f507 73b0 	add.w	r3, r7, #352	@ 0x160
    1108:	f5a3 73b0 	sub.w	r3, r3, #352	@ 0x160
    110c:	6019      	str	r1, [r3, #0]

    /* allocate len+1 bytes */
    char *cmd_local = (char *)malloc((size_t)len + 1);
    110e:	f507 73b0 	add.w	r3, r7, #352	@ 0x160
    1112:	f5a3 73b0 	sub.w	r3, r3, #352	@ 0x160
    1116:	681b      	ldr	r3, [r3, #0]
    1118:	3301      	adds	r3, #1
    111a:	4618      	mov	r0, r3
    111c:	f000 fa7a 	bl	1614 <malloc>
    1120:	4603      	mov	r3, r0
    1122:	f8c7 315c 	str.w	r3, [r7, #348]	@ 0x15c
    if (!cmd_local) {
    1126:	f8d7 315c 	ldr.w	r3, [r7, #348]	@ 0x15c
    112a:	2b00      	cmp	r3, #0
    112c:	d103      	bne.n	1136 <example_dynamic_cmd_copy_and_process+0x42>
        diag_puts("ERROR: malloc for cmd_local failed\r\n");
    112e:	4872      	ldr	r0, [pc, #456]	@ (12f8 <example_dynamic_cmd_copy_and_process+0x204>)
    1130:	f7ff f912 	bl	358 <diag_puts>
        return;
    1134:	e0db      	b.n	12ee <example_dynamic_cmd_copy_and_process+0x1fa>
    }

    /* copy and NUL-terminate */
    if (len > 0) {
    1136:	f507 73b0 	add.w	r3, r7, #352	@ 0x160
    113a:	f5a3 73b0 	sub.w	r3, r3, #352	@ 0x160
    113e:	681b      	ldr	r3, [r3, #0]
    1140:	2b00      	cmp	r3, #0
    1142:	d00d      	beq.n	1160 <example_dynamic_cmd_copy_and_process+0x6c>
        memcpy(cmd_local, (const void *)user_rx_buf, len);
    1144:	f507 73b0 	add.w	r3, r7, #352	@ 0x160
    1148:	f5a3 72b0 	sub.w	r2, r3, #352	@ 0x160
    114c:	f507 73b0 	add.w	r3, r7, #352	@ 0x160
    1150:	f5a3 73ae 	sub.w	r3, r3, #348	@ 0x15c
    1154:	6812      	ldr	r2, [r2, #0]
    1156:	6819      	ldr	r1, [r3, #0]
    1158:	f8d7 015c 	ldr.w	r0, [r7, #348]	@ 0x15c
    115c:	f003 ff9c 	bl	5098 <memcpy>
    }
    cmd_local[len] = '\0';
    1160:	f507 73b0 	add.w	r3, r7, #352	@ 0x160
    1164:	f5a3 73b0 	sub.w	r3, r3, #352	@ 0x160
    1168:	f8d7 215c 	ldr.w	r2, [r7, #348]	@ 0x15c
    116c:	681b      	ldr	r3, [r3, #0]
    116e:	4413      	add	r3, r2
    1170:	2200      	movs	r2, #0
    1172:	701a      	strb	r2, [r3, #0]

    /* Print the pointer and length for diagnostics (ICDI UART) */
    diag_puts("cmd_local ptr = ");
    1174:	4861      	ldr	r0, [pc, #388]	@ (12fc <example_dynamic_cmd_copy_and_process+0x208>)
    1176:	f7ff f8ef 	bl	358 <diag_puts>
    diag_put_ptr((void *)cmd_local);
    117a:	f8d7 015c 	ldr.w	r0, [r7, #348]	@ 0x15c
    117e:	f7ff f935 	bl	3ec <diag_put_ptr>
    diag_puts(" ; len = ");
    1182:	485f      	ldr	r0, [pc, #380]	@ (1300 <example_dynamic_cmd_copy_and_process+0x20c>)
    1184:	f7ff f8e8 	bl	358 <diag_puts>
    diag_put_hex32(len);
    1188:	f507 73b0 	add.w	r3, r7, #352	@ 0x160
    118c:	f5a3 73b0 	sub.w	r3, r3, #352	@ 0x160
    1190:	6818      	ldr	r0, [r3, #0]
    1192:	f7ff f8f9 	bl	388 <diag_put_hex32>
    diag_puts("\n");
    1196:	485b      	ldr	r0, [pc, #364]	@ (1304 <example_dynamic_cmd_copy_and_process+0x210>)
    1198:	f7ff f8de 	bl	358 <diag_puts>

    /* simple decimal print helper assumed available; otherwise print small number */
    /* call your process function */
    process_user_line(cmd_local);
    119c:	f8d7 015c 	ldr.w	r0, [r7, #348]	@ 0x15c
    11a0:	f7ff fd4e 	bl	c40 <process_user_line>

    /* spew out some diagnostic summaries... */
    diag_print_variable("g_pwmPeriod", (const void *)&g_pwmPeriod, sizeof(g_pwmPeriod), DIAG_PREVIEW_LIMIT);
    11a4:	2320      	movs	r3, #32
    11a6:	2204      	movs	r2, #4
    11a8:	4957      	ldr	r1, [pc, #348]	@ (1308 <example_dynamic_cmd_copy_and_process+0x214>)
    11aa:	4858      	ldr	r0, [pc, #352]	@ (130c <example_dynamic_cmd_copy_and_process+0x218>)
    11ac:	f7ff fa9c 	bl	6e8 <diag_print_variable>
    diag_print_variable("g_pwmPulse", (const void *)&g_pwmPulse, sizeof(g_pwmPulse), DIAG_PREVIEW_LIMIT);
    11b0:	2320      	movs	r3, #32
    11b2:	2204      	movs	r2, #4
    11b4:	4956      	ldr	r1, [pc, #344]	@ (1310 <example_dynamic_cmd_copy_and_process+0x21c>)
    11b6:	4857      	ldr	r0, [pc, #348]	@ (1314 <example_dynamic_cmd_copy_and_process+0x220>)
    11b8:	f7ff fa96 	bl	6e8 <diag_print_variable>

    /* Temporary: Test specific parts to find the exact problem */
    diag_puts("DEBUG: After PWM variables, testing malloc...\r\n");
    11bc:	4856      	ldr	r0, [pc, #344]	@ (1318 <example_dynamic_cmd_copy_and_process+0x224>)
    11be:	f7ff f8cb 	bl	358 <diag_puts>
    
    /* Test 1: strlen */
    const char *lit = "DYN_TEST: Hello from dynamic buffer!";
    11c2:	4b56      	ldr	r3, [pc, #344]	@ (131c <example_dynamic_cmd_copy_and_process+0x228>)
    11c4:	f8c7 3158 	str.w	r3, [r7, #344]	@ 0x158
    size_t lit_len = strlen(lit);
    11c8:	f8d7 0158 	ldr.w	r0, [r7, #344]	@ 0x158
    11cc:	f000 fe58 	bl	1e80 <strlen>
    11d0:	f8c7 0154 	str.w	r0, [r7, #340]	@ 0x154
    diag_puts("DEBUG: strlen completed, lit_len=");
    11d4:	4852      	ldr	r0, [pc, #328]	@ (1320 <example_dynamic_cmd_copy_and_process+0x22c>)
    11d6:	f7ff f8bf 	bl	358 <diag_puts>
    diag_put_u32_dec((uint32_t)lit_len);
    11da:	f8d7 0154 	ldr.w	r0, [r7, #340]	@ 0x154
    11de:	f7ff f911 	bl	404 <diag_put_u32_dec>
    diag_puts("\r\n");
    11e2:	4850      	ldr	r0, [pc, #320]	@ (1324 <example_dynamic_cmd_copy_and_process+0x230>)
    11e4:	f7ff f8b8 	bl	358 <diag_puts>
    
    /* Test 2: malloc */
    char* dyn = (char *)malloc(lit_len + 1);
    11e8:	f8d7 3154 	ldr.w	r3, [r7, #340]	@ 0x154
    11ec:	3301      	adds	r3, #1
    11ee:	4618      	mov	r0, r3
    11f0:	f000 fa10 	bl	1614 <malloc>
    11f4:	4603      	mov	r3, r0
    11f6:	f8c7 3150 	str.w	r3, [r7, #336]	@ 0x150
    if (!dyn) {
    11fa:	f8d7 3150 	ldr.w	r3, [r7, #336]	@ 0x150
    11fe:	2b00      	cmp	r3, #0
    1200:	d103      	bne.n	120a <example_dynamic_cmd_copy_and_process+0x116>
        diag_puts("ERROR: malloc failed\r\n");
    1202:	4849      	ldr	r0, [pc, #292]	@ (1328 <example_dynamic_cmd_copy_and_process+0x234>)
    1204:	f7ff f8a8 	bl	358 <diag_puts>
    1208:	e05f      	b.n	12ca <example_dynamic_cmd_copy_and_process+0x1d6>
    } else {
        diag_puts("DEBUG: malloc succeeded, ptr=");
    120a:	4848      	ldr	r0, [pc, #288]	@ (132c <example_dynamic_cmd_copy_and_process+0x238>)
    120c:	f7ff f8a4 	bl	358 <diag_puts>
        diag_put_ptr((void *)dyn);
    1210:	f8d7 0150 	ldr.w	r0, [r7, #336]	@ 0x150
    1214:	f7ff f8ea 	bl	3ec <diag_put_ptr>
        diag_puts("\r\n");
    1218:	4842      	ldr	r0, [pc, #264]	@ (1324 <example_dynamic_cmd_copy_and_process+0x230>)
    121a:	f7ff f89d 	bl	358 <diag_puts>
        
        /* Test 3: memcpy */
        memcpy(dyn, lit, lit_len + 1);
    121e:	f8d7 3154 	ldr.w	r3, [r7, #340]	@ 0x154
    1222:	3301      	adds	r3, #1
    1224:	461a      	mov	r2, r3
    1226:	f8d7 1158 	ldr.w	r1, [r7, #344]	@ 0x158
    122a:	f8d7 0150 	ldr.w	r0, [r7, #336]	@ 0x150
    122e:	f003 ff33 	bl	5098 <memcpy>
        diag_puts("DEBUG: memcpy completed\r\n");
    1232:	483f      	ldr	r0, [pc, #252]	@ (1330 <example_dynamic_cmd_copy_and_process+0x23c>)
    1234:	f7ff f890 	bl	358 <diag_puts>
        
        /* Test 4: diag_print_variable with NOLIMIT (WORKS!) */
        diag_puts("DEBUG: About to call diag_print_variable with NOLIMIT...\r\n");
    1238:	483e      	ldr	r0, [pc, #248]	@ (1334 <example_dynamic_cmd_copy_and_process+0x240>)
    123a:	f7ff f88d 	bl	358 <diag_puts>
        diag_print_variable("dyn_str", (const void *)dyn, (size_t)(lit_len + 1), DIAG_PREVIEW_NOLIMIT);
    123e:	f8d7 3154 	ldr.w	r3, [r7, #340]	@ 0x154
    1242:	1c5a      	adds	r2, r3, #1
    1244:	f04f 33ff 	mov.w	r3, #4294967295	@ 0xffffffff
    1248:	f8d7 1150 	ldr.w	r1, [r7, #336]	@ 0x150
    124c:	483a      	ldr	r0, [pc, #232]	@ (1338 <example_dynamic_cmd_copy_and_process+0x244>)
    124e:	f7ff fa4b 	bl	6e8 <diag_print_variable>
        diag_puts("DEBUG: diag_print_variable completed\r\n");
    1252:	483a      	ldr	r0, [pc, #232]	@ (133c <example_dynamic_cmd_copy_and_process+0x248>)
    1254:	f7ff f880 	bl	358 <diag_puts>
        
        /* Test 5: Stack usage test - declare msgbuf array (WORKS!) */
        diag_puts("DEBUG: About to declare msgbuf[320]...\r\n");
    1258:	4839      	ldr	r0, [pc, #228]	@ (1340 <example_dynamic_cmd_copy_and_process+0x24c>)
    125a:	f7ff f87d 	bl	358 <diag_puts>
        char msgbuf[320];
        diag_puts("DEBUG: msgbuf declared, testing our sprintf replacement...\r\n");
    125e:	4839      	ldr	r0, [pc, #228]	@ (1344 <example_dynamic_cmd_copy_and_process+0x250>)
    1260:	f7ff f87a 	bl	358 <diag_puts>
        
        /* Test 6: Use our custom sprintf replacement */
        int n = sprintf(msgbuf, "SPRINTF: dyn@%p len=%u contents='%s'\r\n",
    1264:	f107 0008 	add.w	r0, r7, #8
    1268:	f8d7 3150 	ldr.w	r3, [r7, #336]	@ 0x150
    126c:	9300      	str	r3, [sp, #0]
    126e:	f8d7 3154 	ldr.w	r3, [r7, #340]	@ 0x154
    1272:	f8d7 2150 	ldr.w	r2, [r7, #336]	@ 0x150
    1276:	4934      	ldr	r1, [pc, #208]	@ (1348 <example_dynamic_cmd_copy_and_process+0x254>)
    1278:	f7ff f831 	bl	2de <sprintf>
    127c:	f8c7 014c 	str.w	r0, [r7, #332]	@ 0x14c
            (void *)dyn, (unsigned)lit_len, dyn);
        if (n > 0) {
    1280:	f8d7 314c 	ldr.w	r3, [r7, #332]	@ 0x14c
    1284:	2b00      	cmp	r3, #0
    1286:	dd16      	ble.n	12b6 <example_dynamic_cmd_copy_and_process+0x1c2>
            diag_puts("DEBUG: sprintf replacement succeeded, n=");
    1288:	4830      	ldr	r0, [pc, #192]	@ (134c <example_dynamic_cmd_copy_and_process+0x258>)
    128a:	f7ff f865 	bl	358 <diag_puts>
            diag_put_u32_dec((uint32_t)n);
    128e:	f8d7 314c 	ldr.w	r3, [r7, #332]	@ 0x14c
    1292:	4618      	mov	r0, r3
    1294:	f7ff f8b6 	bl	404 <diag_put_u32_dec>
            diag_puts("\r\n");
    1298:	4822      	ldr	r0, [pc, #136]	@ (1324 <example_dynamic_cmd_copy_and_process+0x230>)
    129a:	f7ff f85d 	bl	358 <diag_puts>
            // Send the formatted string to ICDI (UART0) using UARTSend
            UARTSend((const uint8_t *)msgbuf, (uint32_t)n, UARTDEV_ICDI);
    129e:	f8d7 114c 	ldr.w	r1, [r7, #332]	@ 0x14c
    12a2:	f107 0308 	add.w	r3, r7, #8
    12a6:	2200      	movs	r2, #0
    12a8:	4618      	mov	r0, r3
    12aa:	f7fe ffa9 	bl	200 <UARTSend>
            diag_puts("DEBUG: UARTSend completed\r\n");
    12ae:	4828      	ldr	r0, [pc, #160]	@ (1350 <example_dynamic_cmd_copy_and_process+0x25c>)
    12b0:	f7ff f852 	bl	358 <diag_puts>
    12b4:	e002      	b.n	12bc <example_dynamic_cmd_copy_and_process+0x1c8>
        } else {
            diag_puts("ERROR: sprintf replacement failed\r\n");
    12b6:	4827      	ldr	r0, [pc, #156]	@ (1354 <example_dynamic_cmd_copy_and_process+0x260>)
    12b8:	f7ff f84e 	bl	358 <diag_puts>
        }
        
        /* Free immediately */
        free(dyn);
    12bc:	f8d7 0150 	ldr.w	r0, [r7, #336]	@ 0x150
    12c0:	f000 f9d6 	bl	1670 <free>
        diag_puts("DEBUG: free completed\r\n");
    12c4:	4824      	ldr	r0, [pc, #144]	@ (1358 <example_dynamic_cmd_copy_and_process+0x264>)
    12c6:	f7ff f847 	bl	358 <diag_puts>
        diag_puts("DYN ALLOC freed\r\n");

    }        /* --- end dynamic test ---
    */

    void *cur_brk = _sbrk(0);
    12ca:	2000      	movs	r0, #0
    12cc:	f000 f9da 	bl	1684 <_sbrk>
    12d0:	f8c7 0148 	str.w	r0, [r7, #328]	@ 0x148
    diag_print_variable("sbrk(0)", cur_brk, 16, DIAG_PREVIEW_LIMIT); /* preview 16 bytes at current brk */
    12d4:	2320      	movs	r3, #32
    12d6:	2210      	movs	r2, #16
    12d8:	f8d7 1148 	ldr.w	r1, [r7, #328]	@ 0x148
    12dc:	481f      	ldr	r0, [pc, #124]	@ (135c <example_dynamic_cmd_copy_and_process+0x268>)
    12de:	f7ff fa03 	bl	6e8 <diag_print_variable>

    diag_print_variables_summary();
    12e2:	f7ff faf9 	bl	8d8 <diag_print_variables_summary>

    /* free when done */
    free(cmd_local);
    12e6:	f8d7 015c 	ldr.w	r0, [r7, #348]	@ 0x15c
    12ea:	f000 f9c1 	bl	1670 <free>

}
    12ee:	f507 77b0 	add.w	r7, r7, #352	@ 0x160
    12f2:	46bd      	mov	sp, r7
    12f4:	bd80      	pop	{r7, pc}
    12f6:	bf00      	nop
    12f8:	00009074 	.word	0x00009074
    12fc:	0000909c 	.word	0x0000909c
    1300:	000090b0 	.word	0x000090b0
    1304:	000090bc 	.word	0x000090bc
    1308:	200006b4 	.word	0x200006b4
    130c:	000090c0 	.word	0x000090c0
    1310:	200006b8 	.word	0x200006b8
    1314:	000090cc 	.word	0x000090cc
    1318:	000090d8 	.word	0x000090d8
    131c:	00009108 	.word	0x00009108
    1320:	00009130 	.word	0x00009130
    1324:	00009154 	.word	0x00009154
    1328:	00009158 	.word	0x00009158
    132c:	00009170 	.word	0x00009170
    1330:	00009190 	.word	0x00009190
    1334:	000091ac 	.word	0x000091ac
    1338:	000091e8 	.word	0x000091e8
    133c:	000091f0 	.word	0x000091f0
    1340:	00009218 	.word	0x00009218
    1344:	00009244 	.word	0x00009244
    1348:	00009284 	.word	0x00009284
    134c:	000092ac 	.word	0x000092ac
    1350:	000092d8 	.word	0x000092d8
    1354:	000092f4 	.word	0x000092f4
    1358:	00009318 	.word	0x00009318
    135c:	00009330 	.word	0x00009330

00001360 <main>:


int main(void)
{
    1360:	b580      	push	{r7, lr}
    1362:	b094      	sub	sp, #80	@ 0x50
    1364:	af00      	add	r7, sp, #0

    unsigned int currCopyCharIdx = 0;
    1366:	2300      	movs	r3, #0
    1368:	64fb      	str	r3, [r7, #76]	@ 0x4c
    unsigned char currCopyChar = 0x00;
    136a:	2300      	movs	r3, #0
    136c:	f887 3047 	strb.w	r3, [r7, #71]	@ 0x47

    setup_system_clock();
    1370:	f7ff fdee 	bl	f50 <setup_system_clock>

    // Check if we had a hard fault (bit 31 of SCB->HFSR)
    if (HWREG(0xE000ED2C) & 0x80000000) {
    1374:	4b7f      	ldr	r3, [pc, #508]	@ (1574 <main+0x214>)
    1376:	681b      	ldr	r3, [r3, #0]
    1378:	2b00      	cmp	r3, #0
    137a:	da21      	bge.n	13c0 <main+0x60>
        // Hard fault occurred! Likely stack overflow
        while(1) {
            // Blink PN0 rapidly as a warning
            ROM_GPIOPinWrite(GPIO_PORTN_BASE, GPIO_PIN_0, GPIO_PIN_0);
    137c:	4b7e      	ldr	r3, [pc, #504]	@ (1578 <main+0x218>)
    137e:	681b      	ldr	r3, [r3, #0]
    1380:	681b      	ldr	r3, [r3, #0]
    1382:	2201      	movs	r2, #1
    1384:	2101      	movs	r1, #1
    1386:	487d      	ldr	r0, [pc, #500]	@ (157c <main+0x21c>)
    1388:	4798      	blx	r3
            SysCtlDelay(g_ui32SysClock / 100);
    138a:	4b7d      	ldr	r3, [pc, #500]	@ (1580 <main+0x220>)
    138c:	681b      	ldr	r3, [r3, #0]
    138e:	4a7d      	ldr	r2, [pc, #500]	@ (1584 <main+0x224>)
    1390:	fba2 2303 	umull	r2, r3, r2, r3
    1394:	095b      	lsrs	r3, r3, #5
    1396:	4618      	mov	r0, r3
    1398:	f000 fc00 	bl	1b9c <SysCtlDelay>
            ROM_GPIOPinWrite(GPIO_PORTN_BASE, GPIO_PIN_0, 0);
    139c:	4b76      	ldr	r3, [pc, #472]	@ (1578 <main+0x218>)
    139e:	681b      	ldr	r3, [r3, #0]
    13a0:	681b      	ldr	r3, [r3, #0]
    13a2:	2200      	movs	r2, #0
    13a4:	2101      	movs	r1, #1
    13a6:	4875      	ldr	r0, [pc, #468]	@ (157c <main+0x21c>)
    13a8:	4798      	blx	r3
            SysCtlDelay(g_ui32SysClock / 100);
    13aa:	4b75      	ldr	r3, [pc, #468]	@ (1580 <main+0x220>)
    13ac:	681b      	ldr	r3, [r3, #0]
    13ae:	4a75      	ldr	r2, [pc, #468]	@ (1584 <main+0x224>)
    13b0:	fba2 2303 	umull	r2, r3, r2, r3
    13b4:	095b      	lsrs	r3, r3, #5
    13b6:	4618      	mov	r0, r3
    13b8:	f000 fbf0 	bl	1b9c <SysCtlDelay>
            ROM_GPIOPinWrite(GPIO_PORTN_BASE, GPIO_PIN_0, GPIO_PIN_0);
    13bc:	bf00      	nop
    13be:	e7dd      	b.n	137c <main+0x1c>
        }
    }

    ROM_SysCtlPeripheralEnable(SYSCTL_PERIPH_GPION);
    13c0:	4b71      	ldr	r3, [pc, #452]	@ (1588 <main+0x228>)
    13c2:	681b      	ldr	r3, [r3, #0]
    13c4:	3318      	adds	r3, #24
    13c6:	681b      	ldr	r3, [r3, #0]
    13c8:	4870      	ldr	r0, [pc, #448]	@ (158c <main+0x22c>)
    13ca:	4798      	blx	r3
    ROM_GPIOPinTypeGPIOOutput(GPIO_PORTN_BASE, GPIO_PIN_0);
    13cc:	4b6a      	ldr	r3, [pc, #424]	@ (1578 <main+0x218>)
    13ce:	681b      	ldr	r3, [r3, #0]
    13d0:	333c      	adds	r3, #60	@ 0x3c
    13d2:	681b      	ldr	r3, [r3, #0]
    13d4:	2101      	movs	r1, #1
    13d6:	4869      	ldr	r0, [pc, #420]	@ (157c <main+0x21c>)
    13d8:	4798      	blx	r3

    setup_pwm_pf2();
    13da:	f7ff fd11 	bl	e00 <setup_pwm_pf2>
    setup_uarts();
    13de:	f7ff fdc9 	bl	f74 <setup_uarts>


    for (;;) {

        /* Wait for DTR session */
        UARTSend((const uint8_t *)"NO SESSION ACTIVE\r\n", 20, UARTDEV_ICDI);
    13e2:	2200      	movs	r2, #0
    13e4:	2114      	movs	r1, #20
    13e6:	486a      	ldr	r0, [pc, #424]	@ (1590 <main+0x230>)
    13e8:	f7fe ff0a 	bl	200 <UARTSend>

        while (ROM_GPIOPinRead(DTR_PORT, DTR_PIN)) {
    13ec:	e009      	b.n	1402 <main+0xa2>
            SysCtlDelay(g_ui32SysClock / (1000 * 100));
    13ee:	4b64      	ldr	r3, [pc, #400]	@ (1580 <main+0x220>)
    13f0:	681b      	ldr	r3, [r3, #0]
    13f2:	095b      	lsrs	r3, r3, #5
    13f4:	4a67      	ldr	r2, [pc, #412]	@ (1594 <main+0x234>)
    13f6:	fba2 2303 	umull	r2, r3, r2, r3
    13fa:	09db      	lsrs	r3, r3, #7
    13fc:	4618      	mov	r0, r3
    13fe:	f000 fbcd 	bl	1b9c <SysCtlDelay>
        while (ROM_GPIOPinRead(DTR_PORT, DTR_PIN)) {
    1402:	4b5d      	ldr	r3, [pc, #372]	@ (1578 <main+0x218>)
    1404:	681b      	ldr	r3, [r3, #0]
    1406:	332c      	adds	r3, #44	@ 0x2c
    1408:	681b      	ldr	r3, [r3, #0]
    140a:	2102      	movs	r1, #2
    140c:	4862      	ldr	r0, [pc, #392]	@ (1598 <main+0x238>)
    140e:	4798      	blx	r3
    1410:	4603      	mov	r3, r0
    1412:	2b00      	cmp	r3, #0
    1414:	d1eb      	bne.n	13ee <main+0x8e>
        }

        UARTSend((const uint8_t *)"SESSION WAS INITIATED\r\n", 24, UARTDEV_ICDI);
    1416:	2200      	movs	r2, #0
    1418:	2118      	movs	r1, #24
    141a:	4860      	ldr	r0, [pc, #384]	@ (159c <main+0x23c>)
    141c:	f7fe fef0 	bl	200 <UARTSend>
        SysCtlDelay(g_ui32SysClock / (1000 * 12));
    1420:	4b57      	ldr	r3, [pc, #348]	@ (1580 <main+0x220>)
    1422:	681b      	ldr	r3, [r3, #0]
    1424:	4a5e      	ldr	r2, [pc, #376]	@ (15a0 <main+0x240>)
    1426:	fba2 2303 	umull	r2, r3, r2, r3
    142a:	0a1b      	lsrs	r3, r3, #8
    142c:	4618      	mov	r0, r3
    142e:	f000 fbb5 	bl	1b9c <SysCtlDelay>

        UARTSend((const uint8_t *)"\r\nPWM Ready. Enter command: PSYN n  (n = 5..96)\r\n> ", 52, UARTDEV_USER);
    1432:	2201      	movs	r2, #1
    1434:	2134      	movs	r1, #52	@ 0x34
    1436:	485b      	ldr	r0, [pc, #364]	@ (15a4 <main+0x244>)
    1438:	f7fe fee2 	bl	200 <UARTSend>

        user_rx_len = 0;
    143c:	4b5a      	ldr	r3, [pc, #360]	@ (15a8 <main+0x248>)
    143e:	2200      	movs	r2, #0
    1440:	601a      	str	r2, [r3, #0]
        user_cmd_ready = false;
    1442:	4b5a      	ldr	r3, [pc, #360]	@ (15ac <main+0x24c>)
    1444:	2200      	movs	r2, #0
    1446:	701a      	strb	r2, [r3, #0]

        /* Session active */
        while (!ROM_GPIOPinRead(DTR_PORT, DTR_PIN)) {
    1448:	e082      	b.n	1550 <main+0x1f0>

            if (user_cmd_ready) {
    144a:	4b58      	ldr	r3, [pc, #352]	@ (15ac <main+0x24c>)
    144c:	781b      	ldrb	r3, [r3, #0]
    144e:	b2db      	uxtb	r3, r3
    1450:	2b00      	cmp	r3, #0
    1452:	d074      	beq.n	153e <main+0x1de>

                ROM_IntDisable(INT_UART3);
    1454:	4b56      	ldr	r3, [pc, #344]	@ (15b0 <main+0x250>)
    1456:	681b      	ldr	r3, [r3, #0]
    1458:	330c      	adds	r3, #12
    145a:	681b      	ldr	r3, [r3, #0]
    145c:	2048      	movs	r0, #72	@ 0x48
    145e:	4798      	blx	r3

                // So, before THAT happens, let's launch this dynamic vector
                // or buffer allocation, made by explicit calls to our helpers:

                example_dynamic_cmd_copy_and_process(user_rx_buf,  \
                  (user_rx_len < UART_RX_BUF_SIZE ? user_rx_len : UART_RX_BUF_SIZE - 1));
    1460:	4b51      	ldr	r3, [pc, #324]	@ (15a8 <main+0x248>)
    1462:	681b      	ldr	r3, [r3, #0]
                example_dynamic_cmd_copy_and_process(user_rx_buf,  \
    1464:	2b3f      	cmp	r3, #63	@ 0x3f
    1466:	d802      	bhi.n	146e <main+0x10e>
    1468:	4b4f      	ldr	r3, [pc, #316]	@ (15a8 <main+0x248>)
    146a:	681b      	ldr	r3, [r3, #0]
    146c:	e000      	b.n	1470 <main+0x110>
    146e:	233f      	movs	r3, #63	@ 0x3f
    1470:	4619      	mov	r1, r3
    1472:	4850      	ldr	r0, [pc, #320]	@ (15b4 <main+0x254>)
    1474:	f7ff fe3e 	bl	10f4 <example_dynamic_cmd_copy_and_process>

                user_rx_len = 0;
    1478:	4b4b      	ldr	r3, [pc, #300]	@ (15a8 <main+0x248>)
    147a:	2200      	movs	r2, #0
    147c:	601a      	str	r2, [r3, #0]
                user_cmd_ready = false;
    147e:	4b4b      	ldr	r3, [pc, #300]	@ (15ac <main+0x24c>)
    1480:	2200      	movs	r2, #0
    1482:	701a      	strb	r2, [r3, #0]

                ROM_IntEnable(INT_UART3);
    1484:	4b4a      	ldr	r3, [pc, #296]	@ (15b0 <main+0x250>)
    1486:	681b      	ldr	r3, [r3, #0]
    1488:	681b      	ldr	r3, [r3, #0]
    148a:	2048      	movs	r0, #72	@ 0x48
    148c:	4798      	blx	r3

                /* Print again the (updated) memory layout with direct UART writes */
                diag_print_memory_layout();
    148e:	f7fe fff7 	bl	480 <diag_print_memory_layout>


                // ***** NOTE **** STALLS HAPPEN FROM HERE ON !!! *****

                uint32_t len = user_rx_len;
    1492:	4b45      	ldr	r3, [pc, #276]	@ (15a8 <main+0x248>)
    1494:	681b      	ldr	r3, [r3, #0]
    1496:	64bb      	str	r3, [r7, #72]	@ 0x48
                char cmd_local[UART_RX_BUF_SIZE];

                if (len >= UART_RX_BUF_SIZE) len = UART_RX_BUF_SIZE - 1;
    1498:	6cbb      	ldr	r3, [r7, #72]	@ 0x48
    149a:	2b3f      	cmp	r3, #63	@ 0x3f
    149c:	d901      	bls.n	14a2 <main+0x142>
    149e:	233f      	movs	r3, #63	@ 0x3f
    14a0:	64bb      	str	r3, [r7, #72]	@ 0x48

                if (len > 0) {
    14a2:	6cbb      	ldr	r3, [r7, #72]	@ 0x48
    14a4:	2b00      	cmp	r3, #0
    14a6:	d03b      	beq.n	1520 <main+0x1c0>

                    UARTSend((const uint8_t *)"cmd_local BEFORE memcpy: ", 25, UARTDEV_ICDI);
    14a8:	2200      	movs	r2, #0
    14aa:	2119      	movs	r1, #25
    14ac:	4842      	ldr	r0, [pc, #264]	@ (15b8 <main+0x258>)
    14ae:	f7fe fea7 	bl	200 <UARTSend>
                    UARTSend((const uint8_t *)cmd_local, len, UARTDEV_ICDI);
    14b2:	1d3b      	adds	r3, r7, #4
    14b4:	2200      	movs	r2, #0
    14b6:	6cb9      	ldr	r1, [r7, #72]	@ 0x48
    14b8:	4618      	mov	r0, r3
    14ba:	f7fe fea1 	bl	200 <UARTSend>
                    UARTSend((const uint8_t *)"\r\n", 2, UARTDEV_ICDI);
    14be:	2200      	movs	r2, #0
    14c0:	2102      	movs	r1, #2
    14c2:	483e      	ldr	r0, [pc, #248]	@ (15bc <main+0x25c>)
    14c4:	f7fe fe9c 	bl	200 <UARTSend>

                    //static unsigned int i;

                    for (currCopyCharIdx = 0; currCopyCharIdx < len; currCopyCharIdx++) {
    14c8:	2300      	movs	r3, #0
    14ca:	64fb      	str	r3, [r7, #76]	@ 0x4c
    14cc:	e00e      	b.n	14ec <main+0x18c>

                        currCopyChar = user_rx_buf[currCopyCharIdx];
    14ce:	4a39      	ldr	r2, [pc, #228]	@ (15b4 <main+0x254>)
    14d0:	6cfb      	ldr	r3, [r7, #76]	@ 0x4c
    14d2:	4413      	add	r3, r2
    14d4:	781b      	ldrb	r3, [r3, #0]
    14d6:	f887 3047 	strb.w	r3, [r7, #71]	@ 0x47

                        //while (hexShowBuf[i]) MAP_UARTCharPutNonBlocking(UART0_BASE, hexShowBuf[i++]);
                        //MAP_UARTCharPut(UART0_BASE, hexShowBuf[9]);
                        //MAP_UARTCharPutNonBlocking(UART0_BASE, hexShowBuf[10]);

                        cmd_local[currCopyCharIdx] = currCopyChar;
    14da:	1d3a      	adds	r2, r7, #4
    14dc:	6cfb      	ldr	r3, [r7, #76]	@ 0x4c
    14de:	4413      	add	r3, r2
    14e0:	f897 2047 	ldrb.w	r2, [r7, #71]	@ 0x47
    14e4:	701a      	strb	r2, [r3, #0]
                    for (currCopyCharIdx = 0; currCopyCharIdx < len; currCopyCharIdx++) {
    14e6:	6cfb      	ldr	r3, [r7, #76]	@ 0x4c
    14e8:	3301      	adds	r3, #1
    14ea:	64fb      	str	r3, [r7, #76]	@ 0x4c
    14ec:	6cfa      	ldr	r2, [r7, #76]	@ 0x4c
    14ee:	6cbb      	ldr	r3, [r7, #72]	@ 0x48
    14f0:	429a      	cmp	r2, r3
    14f2:	d3ec      	bcc.n	14ce <main+0x16e>
                    }

                    //memcpy(cmd_local, (const void *)user_rx_buf, len); -- MEMCPY CORRUPTS!!!
                    cmd_local[len] = '\0';
    14f4:	1d3a      	adds	r2, r7, #4
    14f6:	6cbb      	ldr	r3, [r7, #72]	@ 0x48
    14f8:	4413      	add	r3, r2
    14fa:	2200      	movs	r2, #0
    14fc:	701a      	strb	r2, [r3, #0]

                    UARTSend((const uint8_t *)"PARSED THIS COMMAND: ", 21, UARTDEV_ICDI);
    14fe:	2200      	movs	r2, #0
    1500:	2115      	movs	r1, #21
    1502:	482f      	ldr	r0, [pc, #188]	@ (15c0 <main+0x260>)
    1504:	f7fe fe7c 	bl	200 <UARTSend>
                    UARTSend((const uint8_t *)cmd_local, len, UARTDEV_ICDI);
    1508:	1d3b      	adds	r3, r7, #4
    150a:	2200      	movs	r2, #0
    150c:	6cb9      	ldr	r1, [r7, #72]	@ 0x48
    150e:	4618      	mov	r0, r3
    1510:	f7fe fe76 	bl	200 <UARTSend>
                    UARTSend((const uint8_t *)"\r\n", 2, UARTDEV_ICDI);
    1514:	2200      	movs	r2, #0
    1516:	2102      	movs	r1, #2
    1518:	4828      	ldr	r0, [pc, #160]	@ (15bc <main+0x25c>)
    151a:	f7fe fe71 	bl	200 <UARTSend>
    151e:	e001      	b.n	1524 <main+0x1c4>

                } else {

                    cmd_local[0] = '\0';
    1520:	2300      	movs	r3, #0
    1522:	713b      	strb	r3, [r7, #4]

                }

                user_rx_len = 0;
    1524:	4b20      	ldr	r3, [pc, #128]	@ (15a8 <main+0x248>)
    1526:	2200      	movs	r2, #0
    1528:	601a      	str	r2, [r3, #0]
                user_cmd_ready = false;
    152a:	4b20      	ldr	r3, [pc, #128]	@ (15ac <main+0x24c>)
    152c:	2200      	movs	r2, #0
    152e:	701a      	strb	r2, [r3, #0]

                if (cmd_local[0] != '\0') {
    1530:	793b      	ldrb	r3, [r7, #4]
    1532:	2b00      	cmp	r3, #0
    1534:	d003      	beq.n	153e <main+0x1de>
                    process_user_line(cmd_local);
    1536:	1d3b      	adds	r3, r7, #4
    1538:	4618      	mov	r0, r3
    153a:	f7ff fb81 	bl	c40 <process_user_line>
                }

            }

            ROM_IntEnable(INT_UART3);
    153e:	4b1c      	ldr	r3, [pc, #112]	@ (15b0 <main+0x250>)
    1540:	681b      	ldr	r3, [r3, #0]
    1542:	681b      	ldr	r3, [r3, #0]
    1544:	2048      	movs	r0, #72	@ 0x48
    1546:	4798      	blx	r3

            ROM_SysCtlSleep();
    1548:	4b0f      	ldr	r3, [pc, #60]	@ (1588 <main+0x228>)
    154a:	681b      	ldr	r3, [r3, #0]
    154c:	681b      	ldr	r3, [r3, #0]
    154e:	4798      	blx	r3
        while (!ROM_GPIOPinRead(DTR_PORT, DTR_PIN)) {
    1550:	4b09      	ldr	r3, [pc, #36]	@ (1578 <main+0x218>)
    1552:	681b      	ldr	r3, [r3, #0]
    1554:	332c      	adds	r3, #44	@ 0x2c
    1556:	681b      	ldr	r3, [r3, #0]
    1558:	2102      	movs	r1, #2
    155a:	480f      	ldr	r0, [pc, #60]	@ (1598 <main+0x238>)
    155c:	4798      	blx	r3
    155e:	4603      	mov	r3, r0
    1560:	2b00      	cmp	r3, #0
    1562:	f43f af72 	beq.w	144a <main+0xea>

        }

        UARTSend((const uint8_t *)"SESSION WAS DISCONNECTED\r\n", 27, UARTDEV_ICDI);
    1566:	2200      	movs	r2, #0
    1568:	211b      	movs	r1, #27
    156a:	4816      	ldr	r0, [pc, #88]	@ (15c4 <main+0x264>)
    156c:	f7fe fe48 	bl	200 <UARTSend>
        UARTSend((const uint8_t *)"NO SESSION ACTIVE\r\n", 20, UARTDEV_ICDI);
    1570:	e737      	b.n	13e2 <main+0x82>
    1572:	bf00      	nop
    1574:	e000ed2c 	.word	0xe000ed2c
    1578:	01000020 	.word	0x01000020
    157c:	40064000 	.word	0x40064000
    1580:	200006b0 	.word	0x200006b0
    1584:	51eb851f 	.word	0x51eb851f
    1588:	01000044 	.word	0x01000044
    158c:	f000080c 	.word	0xf000080c
    1590:	00009338 	.word	0x00009338
    1594:	0a7c5ac5 	.word	0x0a7c5ac5
    1598:	40066000 	.word	0x40066000
    159c:	0000934c 	.word	0x0000934c
    15a0:	057619f1 	.word	0x057619f1
    15a4:	00009364 	.word	0x00009364
    15a8:	200006fc 	.word	0x200006fc
    15ac:	20000700 	.word	0x20000700
    15b0:	01000048 	.word	0x01000048
    15b4:	200006bc 	.word	0x200006bc
    15b8:	00009398 	.word	0x00009398
    15bc:	00009154 	.word	0x00009154
    15c0:	000093b4 	.word	0x000093b4
    15c4:	000093cc 	.word	0x000093cc

000015c8 <__malloc_lock>:

#include <stdlib.h>
#include <reent.h>

/* Reentrant versions (called by newlib when configured for thread-safety) */
void __malloc_lock(struct _reent *re)  { (void)re; }
    15c8:	b480      	push	{r7}
    15ca:	b083      	sub	sp, #12
    15cc:	af00      	add	r7, sp, #0
    15ce:	6078      	str	r0, [r7, #4]
    15d0:	bf00      	nop
    15d2:	370c      	adds	r7, #12
    15d4:	46bd      	mov	sp, r7
    15d6:	f85d 7b04 	ldr.w	r7, [sp], #4
    15da:	4770      	bx	lr

000015dc <__malloc_unlock>:
void __malloc_unlock(struct _reent *re){ (void)re; }
    15dc:	b480      	push	{r7}
    15de:	b083      	sub	sp, #12
    15e0:	af00      	add	r7, sp, #0
    15e2:	6078      	str	r0, [r7, #4]
    15e4:	bf00      	nop
    15e6:	370c      	adds	r7, #12
    15e8:	46bd      	mov	sp, r7
    15ea:	f85d 7b04 	ldr.w	r7, [sp], #4
    15ee:	4770      	bx	lr

000015f0 <align_up>:
/* block header placed immediately before returned pointer */
typedef struct {
    size_t size;
} ms_header_t;

static inline size_t align_up(size_t v, size_t a) {
    15f0:	b480      	push	{r7}
    15f2:	b083      	sub	sp, #12
    15f4:	af00      	add	r7, sp, #0
    15f6:	6078      	str	r0, [r7, #4]
    15f8:	6039      	str	r1, [r7, #0]
    return (v + (a - 1)) & ~(a - 1);
    15fa:	683a      	ldr	r2, [r7, #0]
    15fc:	687b      	ldr	r3, [r7, #4]
    15fe:	4413      	add	r3, r2
    1600:	1e5a      	subs	r2, r3, #1
    1602:	683b      	ldr	r3, [r7, #0]
    1604:	425b      	negs	r3, r3
    1606:	4013      	ands	r3, r2
}
    1608:	4618      	mov	r0, r3
    160a:	370c      	adds	r7, #12
    160c:	46bd      	mov	sp, r7
    160e:	f85d 7b04 	ldr.w	r7, [sp], #4
    1612:	4770      	bx	lr

00001614 <malloc>:


/* malloc: request size bytes, return pointer or NULL + errno=ENOMEM */
void * malloc(size_t size)
{
    1614:	b580      	push	{r7, lr}
    1616:	b088      	sub	sp, #32
    1618:	af00      	add	r7, sp, #0
    161a:	6078      	str	r0, [r7, #4]
    if (size == 0) size = 1;
    161c:	687b      	ldr	r3, [r7, #4]
    161e:	2b00      	cmp	r3, #0
    1620:	d101      	bne.n	1626 <malloc+0x12>
    1622:	2301      	movs	r3, #1
    1624:	607b      	str	r3, [r7, #4]
    size_t asize = align_up(size, MALLOC_ALIGN);
    1626:	2108      	movs	r1, #8
    1628:	6878      	ldr	r0, [r7, #4]
    162a:	f7ff ffe1 	bl	15f0 <align_up>
    162e:	61f8      	str	r0, [r7, #28]
    size_t total = sizeof(ms_header_t) + asize;
    1630:	69fb      	ldr	r3, [r7, #28]
    1632:	3304      	adds	r3, #4
    1634:	61bb      	str	r3, [r7, #24]
    void *p = _sbrk((ptrdiff_t)total);
    1636:	69bb      	ldr	r3, [r7, #24]
    1638:	4618      	mov	r0, r3
    163a:	f000 f823 	bl	1684 <_sbrk>
    163e:	6178      	str	r0, [r7, #20]
    if (p == (void*)-1) {
    1640:	697b      	ldr	r3, [r7, #20]
    1642:	f1b3 3fff 	cmp.w	r3, #4294967295	@ 0xffffffff
    1646:	d106      	bne.n	1656 <malloc+0x42>
        errno = ENOMEM;
    1648:	f002 f85a 	bl	3700 <__errno>
    164c:	4603      	mov	r3, r0
    164e:	220c      	movs	r2, #12
    1650:	601a      	str	r2, [r3, #0]
        return NULL;
    1652:	2300      	movs	r3, #0
    1654:	e008      	b.n	1668 <malloc+0x54>
    }
    ms_header_t *h = (ms_header_t *)p;
    1656:	697b      	ldr	r3, [r7, #20]
    1658:	613b      	str	r3, [r7, #16]
    h->size = asize;
    165a:	693b      	ldr	r3, [r7, #16]
    165c:	69fa      	ldr	r2, [r7, #28]
    165e:	601a      	str	r2, [r3, #0]
    void *user = (void *)(h + 1);
    1660:	693b      	ldr	r3, [r7, #16]
    1662:	3304      	adds	r3, #4
    1664:	60fb      	str	r3, [r7, #12]
    return user;
    1666:	68fb      	ldr	r3, [r7, #12]
}
    1668:	4618      	mov	r0, r3
    166a:	3720      	adds	r7, #32
    166c:	46bd      	mov	sp, r7
    166e:	bd80      	pop	{r7, pc}

00001670 <free>:


/* free: noop in this simple allocator */
void free(void *ptr)
{
    1670:	b480      	push	{r7}
    1672:	b083      	sub	sp, #12
    1674:	af00      	add	r7, sp, #0
    1676:	6078      	str	r0, [r7, #4]
    (void)ptr;
}
    1678:	bf00      	nop
    167a:	370c      	adds	r7, #12
    167c:	46bd      	mov	sp, r7
    167e:	f85d 7b04 	ldr.w	r7, [sp], #4
    1682:	4770      	bx	lr

00001684 <_sbrk>:

static char *heap_ptr = NULL;      /* current program break (next free byte) */
volatile unsigned int sbrk_calls = 0; /* debug counter - optional */

void * _sbrk(ptrdiff_t incr)
{
    1684:	b580      	push	{r7, lr}
    1686:	b08c      	sub	sp, #48	@ 0x30
    1688:	af00      	add	r7, sp, #0
    168a:	6078      	str	r0, [r7, #4]
    char *start = &_heap_start;
    168c:	4b35      	ldr	r3, [pc, #212]	@ (1764 <_sbrk+0xe0>)
    168e:	62fb      	str	r3, [r7, #44]	@ 0x2c
    char *limit = &_heap_end;
    1690:	4b35      	ldr	r3, [pc, #212]	@ (1768 <_sbrk+0xe4>)
    1692:	62bb      	str	r3, [r7, #40]	@ 0x28

    if (heap_ptr == NULL) {
    1694:	4b35      	ldr	r3, [pc, #212]	@ (176c <_sbrk+0xe8>)
    1696:	681b      	ldr	r3, [r3, #0]
    1698:	2b00      	cmp	r3, #0
    169a:	d102      	bne.n	16a2 <_sbrk+0x1e>
        heap_ptr = start;
    169c:	4a33      	ldr	r2, [pc, #204]	@ (176c <_sbrk+0xe8>)
    169e:	6afb      	ldr	r3, [r7, #44]	@ 0x2c
    16a0:	6013      	str	r3, [r2, #0]
    }

    /* handle zero request: return current break (after alignment) */
    if (incr == 0) {
    16a2:	687b      	ldr	r3, [r7, #4]
    16a4:	2b00      	cmp	r3, #0
    16a6:	d109      	bne.n	16bc <_sbrk+0x38>
        /* return aligned current break */
        uintptr_t cur = (uintptr_t)heap_ptr;
    16a8:	4b30      	ldr	r3, [pc, #192]	@ (176c <_sbrk+0xe8>)
    16aa:	681b      	ldr	r3, [r3, #0]
    16ac:	613b      	str	r3, [r7, #16]
        uintptr_t aligned = (cur + (SBRK_ALIGNMENT - 1)) & ~(uintptr_t)(SBRK_ALIGNMENT - 1);
    16ae:	693b      	ldr	r3, [r7, #16]
    16b0:	3307      	adds	r3, #7
    16b2:	f023 0307 	bic.w	r3, r3, #7
    16b6:	60fb      	str	r3, [r7, #12]
        return (void *)aligned;
    16b8:	68fb      	ldr	r3, [r7, #12]
    16ba:	e04f      	b.n	175c <_sbrk+0xd8>
    }

    /* compute an aligned base where the returned pointer will point */
    uintptr_t cur = (uintptr_t)heap_ptr;
    16bc:	4b2b      	ldr	r3, [pc, #172]	@ (176c <_sbrk+0xe8>)
    16be:	681b      	ldr	r3, [r3, #0]
    16c0:	627b      	str	r3, [r7, #36]	@ 0x24
    uintptr_t aligned = (cur + (SBRK_ALIGNMENT - 1)) & ~(uintptr_t)(SBRK_ALIGNMENT - 1);
    16c2:	6a7b      	ldr	r3, [r7, #36]	@ 0x24
    16c4:	3307      	adds	r3, #7
    16c6:	f023 0307 	bic.w	r3, r3, #7
    16ca:	623b      	str	r3, [r7, #32]
    char *aligned_ptr = (char *)aligned;
    16cc:	6a3b      	ldr	r3, [r7, #32]
    16ce:	61fb      	str	r3, [r7, #28]

    if (incr > 0) {
    16d0:	687b      	ldr	r3, [r7, #4]
    16d2:	2b00      	cmp	r3, #0
    16d4:	dd29      	ble.n	172a <_sbrk+0xa6>
        /* check for overflow in pointer arithmetic */
        if ((uintptr_t)aligned_ptr + (uintptr_t)incr < (uintptr_t)aligned_ptr) {
    16d6:	69fa      	ldr	r2, [r7, #28]
    16d8:	687b      	ldr	r3, [r7, #4]
    16da:	441a      	add	r2, r3
    16dc:	69fb      	ldr	r3, [r7, #28]
    16de:	429a      	cmp	r2, r3
    16e0:	d207      	bcs.n	16f2 <_sbrk+0x6e>
            errno = ENOMEM;
    16e2:	f002 f80d 	bl	3700 <__errno>
    16e6:	4603      	mov	r3, r0
    16e8:	220c      	movs	r2, #12
    16ea:	601a      	str	r2, [r3, #0]
            return (void *) -1;
    16ec:	f04f 33ff 	mov.w	r3, #4294967295	@ 0xffffffff
    16f0:	e034      	b.n	175c <_sbrk+0xd8>
        }
        char *new_break = aligned_ptr + incr;
    16f2:	687b      	ldr	r3, [r7, #4]
    16f4:	69fa      	ldr	r2, [r7, #28]
    16f6:	4413      	add	r3, r2
    16f8:	61bb      	str	r3, [r7, #24]
        if (new_break > limit) {
    16fa:	69ba      	ldr	r2, [r7, #24]
    16fc:	6abb      	ldr	r3, [r7, #40]	@ 0x28
    16fe:	429a      	cmp	r2, r3
    1700:	d907      	bls.n	1712 <_sbrk+0x8e>
            errno = ENOMEM;
    1702:	f001 fffd 	bl	3700 <__errno>
    1706:	4603      	mov	r3, r0
    1708:	220c      	movs	r2, #12
    170a:	601a      	str	r2, [r3, #0]
            return (void *) -1;
    170c:	f04f 33ff 	mov.w	r3, #4294967295	@ 0xffffffff
    1710:	e024      	b.n	175c <_sbrk+0xd8>
        }
        char *prev = aligned_ptr;
    1712:	69fb      	ldr	r3, [r7, #28]
    1714:	617b      	str	r3, [r7, #20]
        heap_ptr = new_break;
    1716:	4a15      	ldr	r2, [pc, #84]	@ (176c <_sbrk+0xe8>)
    1718:	69bb      	ldr	r3, [r7, #24]
    171a:	6013      	str	r3, [r2, #0]
        sbrk_calls++;
    171c:	4b14      	ldr	r3, [pc, #80]	@ (1770 <_sbrk+0xec>)
    171e:	681b      	ldr	r3, [r3, #0]
    1720:	3301      	adds	r3, #1
    1722:	4a13      	ldr	r2, [pc, #76]	@ (1770 <_sbrk+0xec>)
    1724:	6013      	str	r3, [r2, #0]
        return (void *) prev;
    1726:	697b      	ldr	r3, [r7, #20]
    1728:	e018      	b.n	175c <_sbrk+0xd8>
    } else { /* incr < 0 -- shrinking request */
        /* Do not allow shrinking below start */
        if ((uintptr_t)aligned_ptr + (intptr_t)incr < (uintptr_t)start) {
    172a:	69fa      	ldr	r2, [r7, #28]
    172c:	687b      	ldr	r3, [r7, #4]
    172e:	441a      	add	r2, r3
    1730:	6afb      	ldr	r3, [r7, #44]	@ 0x2c
    1732:	429a      	cmp	r2, r3
    1734:	d207      	bcs.n	1746 <_sbrk+0xc2>
            errno = EINVAL;
    1736:	f001 ffe3 	bl	3700 <__errno>
    173a:	4603      	mov	r3, r0
    173c:	2216      	movs	r2, #22
    173e:	601a      	str	r2, [r3, #0]
            return (void *) -1;
    1740:	f04f 33ff 	mov.w	r3, #4294967295	@ 0xffffffff
    1744:	e00a      	b.n	175c <_sbrk+0xd8>
        }
        heap_ptr = aligned_ptr + incr;
    1746:	687b      	ldr	r3, [r7, #4]
    1748:	69fa      	ldr	r2, [r7, #28]
    174a:	4413      	add	r3, r2
    174c:	4a07      	ldr	r2, [pc, #28]	@ (176c <_sbrk+0xe8>)
    174e:	6013      	str	r3, [r2, #0]
        sbrk_calls++;
    1750:	4b07      	ldr	r3, [pc, #28]	@ (1770 <_sbrk+0xec>)
    1752:	681b      	ldr	r3, [r3, #0]
    1754:	3301      	adds	r3, #1
    1756:	4a06      	ldr	r2, [pc, #24]	@ (1770 <_sbrk+0xec>)
    1758:	6013      	str	r3, [r2, #0]
        return (void *) aligned_ptr;
    175a:	69fb      	ldr	r3, [r7, #28]
    }
}
    175c:	4618      	mov	r0, r3
    175e:	3730      	adds	r7, #48	@ 0x30
    1760:	46bd      	mov	sp, r7
    1762:	bd80      	pop	{r7, pc}
    1764:	20000880 	.word	0x20000880
    1768:	20006000 	.word	0x20006000
    176c:	20000704 	.word	0x20000704
    1770:	20000708 	.word	0x20000708

00001774 <_close>:

int _close(int fd) { (void)fd; errno = EBADF; return -1; }
    1774:	b580      	push	{r7, lr}
    1776:	b082      	sub	sp, #8
    1778:	af00      	add	r7, sp, #0
    177a:	6078      	str	r0, [r7, #4]
    177c:	f001 ffc0 	bl	3700 <__errno>
    1780:	4603      	mov	r3, r0
    1782:	2209      	movs	r2, #9
    1784:	601a      	str	r2, [r3, #0]
    1786:	f04f 33ff 	mov.w	r3, #4294967295	@ 0xffffffff
    178a:	4618      	mov	r0, r3
    178c:	3708      	adds	r7, #8
    178e:	46bd      	mov	sp, r7
    1790:	bd80      	pop	{r7, pc}

00001792 <_fstat>:
int _fstat(int fd, struct stat *st) { (void)fd; st->st_mode = S_IFCHR; return 0; }
    1792:	b480      	push	{r7}
    1794:	b083      	sub	sp, #12
    1796:	af00      	add	r7, sp, #0
    1798:	6078      	str	r0, [r7, #4]
    179a:	6039      	str	r1, [r7, #0]
    179c:	683b      	ldr	r3, [r7, #0]
    179e:	f44f 5200 	mov.w	r2, #8192	@ 0x2000
    17a2:	605a      	str	r2, [r3, #4]
    17a4:	2300      	movs	r3, #0
    17a6:	4618      	mov	r0, r3
    17a8:	370c      	adds	r7, #12
    17aa:	46bd      	mov	sp, r7
    17ac:	f85d 7b04 	ldr.w	r7, [sp], #4
    17b0:	4770      	bx	lr

000017b2 <_isatty>:
int _isatty(int fd) { (void)fd; return 1; }
    17b2:	b480      	push	{r7}
    17b4:	b083      	sub	sp, #12
    17b6:	af00      	add	r7, sp, #0
    17b8:	6078      	str	r0, [r7, #4]
    17ba:	2301      	movs	r3, #1
    17bc:	4618      	mov	r0, r3
    17be:	370c      	adds	r7, #12
    17c0:	46bd      	mov	sp, r7
    17c2:	f85d 7b04 	ldr.w	r7, [sp], #4
    17c6:	4770      	bx	lr

000017c8 <_lseek>:
off_t _lseek(int fd, off_t offset, int whence) { (void)fd; (void)offset; (void)whence; return (off_t)0; }
    17c8:	b480      	push	{r7}
    17ca:	b085      	sub	sp, #20
    17cc:	af00      	add	r7, sp, #0
    17ce:	60f8      	str	r0, [r7, #12]
    17d0:	60b9      	str	r1, [r7, #8]
    17d2:	607a      	str	r2, [r7, #4]
    17d4:	2300      	movs	r3, #0
    17d6:	4618      	mov	r0, r3
    17d8:	3714      	adds	r7, #20
    17da:	46bd      	mov	sp, r7
    17dc:	f85d 7b04 	ldr.w	r7, [sp], #4
    17e0:	4770      	bx	lr

000017e2 <_read>:
ssize_t _read(int fd, void *buf, size_t count) { (void)fd; (void)buf; (void)count; errno = EBADF; return -1; }
    17e2:	b580      	push	{r7, lr}
    17e4:	b084      	sub	sp, #16
    17e6:	af00      	add	r7, sp, #0
    17e8:	60f8      	str	r0, [r7, #12]
    17ea:	60b9      	str	r1, [r7, #8]
    17ec:	607a      	str	r2, [r7, #4]
    17ee:	f001 ff87 	bl	3700 <__errno>
    17f2:	4603      	mov	r3, r0
    17f4:	2209      	movs	r2, #9
    17f6:	601a      	str	r2, [r3, #0]
    17f8:	f04f 33ff 	mov.w	r3, #4294967295	@ 0xffffffff
    17fc:	4618      	mov	r0, r3
    17fe:	3710      	adds	r7, #16
    1800:	46bd      	mov	sp, r7
    1802:	bd80      	pop	{r7, pc}

00001804 <_write>:
ssize_t _write(int fd, const void *buf, size_t count) { (void)fd; (void)buf; (void)count; errno = EBADF; return -1; }
    1804:	b580      	push	{r7, lr}
    1806:	b084      	sub	sp, #16
    1808:	af00      	add	r7, sp, #0
    180a:	60f8      	str	r0, [r7, #12]
    180c:	60b9      	str	r1, [r7, #8]
    180e:	607a      	str	r2, [r7, #4]
    1810:	f001 ff76 	bl	3700 <__errno>
    1814:	4603      	mov	r3, r0
    1816:	2209      	movs	r2, #9
    1818:	601a      	str	r2, [r3, #0]
    181a:	f04f 33ff 	mov.w	r3, #4294967295	@ 0xffffffff
    181e:	4618      	mov	r0, r3
    1820:	3710      	adds	r7, #16
    1822:	46bd      	mov	sp, r7
    1824:	bd80      	pop	{r7, pc}

00001826 <_exit>:

void _exit(int status) { (void)status; while (1) { } }
    1826:	b480      	push	{r7}
    1828:	b083      	sub	sp, #12
    182a:	af00      	add	r7, sp, #0
    182c:	6078      	str	r0, [r7, #4]
    182e:	bf00      	nop
    1830:	e7fd      	b.n	182e <_exit+0x8>

00001832 <_kill>:
int _kill(int pid, int sig) { (void)pid; (void)sig; errno = EINVAL; return -1; }
    1832:	b580      	push	{r7, lr}
    1834:	b082      	sub	sp, #8
    1836:	af00      	add	r7, sp, #0
    1838:	6078      	str	r0, [r7, #4]
    183a:	6039      	str	r1, [r7, #0]
    183c:	f001 ff60 	bl	3700 <__errno>
    1840:	4603      	mov	r3, r0
    1842:	2216      	movs	r2, #22
    1844:	601a      	str	r2, [r3, #0]
    1846:	f04f 33ff 	mov.w	r3, #4294967295	@ 0xffffffff
    184a:	4618      	mov	r0, r3
    184c:	3708      	adds	r7, #8
    184e:	46bd      	mov	sp, r7
    1850:	bd80      	pop	{r7, pc}

00001852 <_getpid>:
int _getpid(void) { return 1; }
    1852:	b480      	push	{r7}
    1854:	af00      	add	r7, sp, #0
    1856:	2301      	movs	r3, #1
    1858:	4618      	mov	r0, r3
    185a:	46bd      	mov	sp, r7
    185c:	f85d 7b04 	ldr.w	r7, [sp], #4
    1860:	4770      	bx	lr
	...

00001864 <rst_handler>:
    empty_def_handler       // GPIO Port T              124
};

/* Reset handler: copy .data from flash to RAM and zero .bss, then call main */
void rst_handler(void)
{
    1864:	b580      	push	{r7, lr}
    1866:	b082      	sub	sp, #8
    1868:	af00      	add	r7, sp, #0
    unsigned long *src = &_end_text;    /* load address for .data (in flash) */
    186a:	4b10      	ldr	r3, [pc, #64]	@ (18ac <rst_handler+0x48>)
    186c:	607b      	str	r3, [r7, #4]
    unsigned long *dest = &_start_data; /* runtime address in RAM */
    186e:	4b10      	ldr	r3, [pc, #64]	@ (18b0 <rst_handler+0x4c>)
    1870:	603b      	str	r3, [r7, #0]

    /* Copy initialized data from flash to RAM */
    while (dest < &_end_data) {
    1872:	e007      	b.n	1884 <rst_handler+0x20>
        *dest++ = *src++;
    1874:	687a      	ldr	r2, [r7, #4]
    1876:	1d13      	adds	r3, r2, #4
    1878:	607b      	str	r3, [r7, #4]
    187a:	683b      	ldr	r3, [r7, #0]
    187c:	1d19      	adds	r1, r3, #4
    187e:	6039      	str	r1, [r7, #0]
    1880:	6812      	ldr	r2, [r2, #0]
    1882:	601a      	str	r2, [r3, #0]
    while (dest < &_end_data) {
    1884:	683b      	ldr	r3, [r7, #0]
    1886:	4a0b      	ldr	r2, [pc, #44]	@ (18b4 <rst_handler+0x50>)
    1888:	4293      	cmp	r3, r2
    188a:	d3f3      	bcc.n	1874 <rst_handler+0x10>
    }

    /* Zero BSS */
    dest = &_start_bss;
    188c:	4b0a      	ldr	r3, [pc, #40]	@ (18b8 <rst_handler+0x54>)
    188e:	603b      	str	r3, [r7, #0]
    while (dest < &_end_bss) {
    1890:	e004      	b.n	189c <rst_handler+0x38>
        *dest++ = 0;
    1892:	683b      	ldr	r3, [r7, #0]
    1894:	1d1a      	adds	r2, r3, #4
    1896:	603a      	str	r2, [r7, #0]
    1898:	2200      	movs	r2, #0
    189a:	601a      	str	r2, [r3, #0]
    while (dest < &_end_bss) {
    189c:	683b      	ldr	r3, [r7, #0]
    189e:	4a07      	ldr	r2, [pc, #28]	@ (18bc <rst_handler+0x58>)
    18a0:	4293      	cmp	r3, r2
    18a2:	d3f6      	bcc.n	1892 <rst_handler+0x2e>
    }

    /* Call the user entry (does not return under normal operation) */
    main();
    18a4:	f7ff fd5c 	bl	1360 <main>

    /* If main returns, loop forever */
    while (1) {}
    18a8:	bf00      	nop
    18aa:	e7fd      	b.n	18a8 <rst_handler+0x44>
    18ac:	00009a50 	.word	0x00009a50
    18b0:	20000000 	.word	0x20000000
    18b4:	200006b0 	.word	0x200006b0
    18b8:	200006b0 	.word	0x200006b0
    18bc:	20000880 	.word	0x20000880

000018c0 <nmi_handler>:
}

/* Minimal handlers */
void nmi_handler(void) { while (1) {} }
    18c0:	b480      	push	{r7}
    18c2:	af00      	add	r7, sp, #0
    18c4:	bf00      	nop
    18c6:	e7fd      	b.n	18c4 <nmi_handler+0x4>

000018c8 <hardfault_handler>:
void hardfault_handler(void) { while (1) {} }
    18c8:	b480      	push	{r7}
    18ca:	af00      	add	r7, sp, #0
    18cc:	bf00      	nop
    18ce:	e7fd      	b.n	18cc <hardfault_handler+0x4>

000018d0 <empty_def_handler>:
void empty_def_handler(void) { while (1) {} }
    18d0:	b480      	push	{r7}
    18d2:	af00      	add	r7, sp, #0
    18d4:	bf00      	nop
    18d6:	e7fd      	b.n	18d4 <empty_def_handler+0x4>

000018d8 <GPIODirModeSet>:
    18d8:	f8d0 3400 	ldr.w	r3, [r0, #1024]	@ 0x400
    18dc:	f012 0f01 	tst.w	r2, #1
    18e0:	bf14      	ite	ne
    18e2:	430b      	orrne	r3, r1
    18e4:	438b      	biceq	r3, r1
    18e6:	f8c0 3400 	str.w	r3, [r0, #1024]	@ 0x400
    18ea:	f8d0 3420 	ldr.w	r3, [r0, #1056]	@ 0x420
    18ee:	0792      	lsls	r2, r2, #30
    18f0:	bf4c      	ite	mi
    18f2:	4319      	orrmi	r1, r3
    18f4:	ea23 0101 	bicpl.w	r1, r3, r1
    18f8:	f8c0 1420 	str.w	r1, [r0, #1056]	@ 0x420
    18fc:	4770      	bx	lr

000018fe <GPIOPadConfigSet>:
    18fe:	b5f0      	push	{r4, r5, r6, r7, lr}
    1900:	f04f 0c03 	mov.w	ip, #3
    1904:	f3c2 1741 	ubfx	r7, r2, #5, #2
    1908:	2500      	movs	r5, #0
    190a:	fa41 f405 	asr.w	r4, r1, r5
    190e:	07e6      	lsls	r6, r4, #31
    1910:	d50f      	bpl.n	1932 <GPIOPadConfigSet+0x34>
    1912:	f8d0 6fc4 	ldr.w	r6, [r0, #4036]	@ 0xfc4
    1916:	006c      	lsls	r4, r5, #1
    1918:	fa0c fe04 	lsl.w	lr, ip, r4
    191c:	ea26 060e 	bic.w	r6, r6, lr
    1920:	f8c0 6fc4 	str.w	r6, [r0, #4036]	@ 0xfc4
    1924:	f8d0 6fc4 	ldr.w	r6, [r0, #4036]	@ 0xfc4
    1928:	fa07 f404 	lsl.w	r4, r7, r4
    192c:	4334      	orrs	r4, r6
    192e:	f8c0 4fc4 	str.w	r4, [r0, #4036]	@ 0xfc4
    1932:	3501      	adds	r5, #1
    1934:	2d08      	cmp	r5, #8
    1936:	d1e8      	bne.n	190a <GPIOPadConfigSet+0xc>
    1938:	f8d0 4500 	ldr.w	r4, [r0, #1280]	@ 0x500
    193c:	07d5      	lsls	r5, r2, #31
    193e:	bf4c      	ite	mi
    1940:	430c      	orrmi	r4, r1
    1942:	438c      	bicpl	r4, r1
    1944:	f8c0 4500 	str.w	r4, [r0, #1280]	@ 0x500
    1948:	f8d0 4504 	ldr.w	r4, [r0, #1284]	@ 0x504
    194c:	0797      	lsls	r7, r2, #30
    194e:	bf4c      	ite	mi
    1950:	430c      	orrmi	r4, r1
    1952:	438c      	bicpl	r4, r1
    1954:	f8c0 4504 	str.w	r4, [r0, #1284]	@ 0x504
    1958:	f8d0 4508 	ldr.w	r4, [r0, #1288]	@ 0x508
    195c:	0756      	lsls	r6, r2, #29
    195e:	bf4c      	ite	mi
    1960:	430c      	orrmi	r4, r1
    1962:	438c      	bicpl	r4, r1
    1964:	f8c0 4508 	str.w	r4, [r0, #1288]	@ 0x508
    1968:	f8d0 4518 	ldr.w	r4, [r0, #1304]	@ 0x518
    196c:	0715      	lsls	r5, r2, #28
    196e:	bf4c      	ite	mi
    1970:	430c      	orrmi	r4, r1
    1972:	438c      	bicpl	r4, r1
    1974:	f8c0 4518 	str.w	r4, [r0, #1304]	@ 0x518
    1978:	f012 0f10 	tst.w	r2, #16
    197c:	f8d0 253c 	ldr.w	r2, [r0, #1340]	@ 0x53c
    1980:	bf14      	ite	ne
    1982:	430a      	orrne	r2, r1
    1984:	438a      	biceq	r2, r1
    1986:	f8c0 253c 	str.w	r2, [r0, #1340]	@ 0x53c
    198a:	f8d0 250c 	ldr.w	r2, [r0, #1292]	@ 0x50c
    198e:	07dc      	lsls	r4, r3, #31
    1990:	bf4c      	ite	mi
    1992:	430a      	orrmi	r2, r1
    1994:	438a      	bicpl	r2, r1
    1996:	f8c0 250c 	str.w	r2, [r0, #1292]	@ 0x50c
    199a:	f8d0 2510 	ldr.w	r2, [r0, #1296]	@ 0x510
    199e:	079f      	lsls	r7, r3, #30
    19a0:	bf4c      	ite	mi
    19a2:	430a      	orrmi	r2, r1
    19a4:	438a      	bicpl	r2, r1
    19a6:	f8c0 2510 	str.w	r2, [r0, #1296]	@ 0x510
    19aa:	f8d0 2514 	ldr.w	r2, [r0, #1300]	@ 0x514
    19ae:	075e      	lsls	r6, r3, #29
    19b0:	bf4c      	ite	mi
    19b2:	430a      	orrmi	r2, r1
    19b4:	438a      	bicpl	r2, r1
    19b6:	f8c0 2514 	str.w	r2, [r0, #1300]	@ 0x514
    19ba:	f8d0 251c 	ldr.w	r2, [r0, #1308]	@ 0x51c
    19be:	071d      	lsls	r5, r3, #28
    19c0:	bf4c      	ite	mi
    19c2:	430a      	orrmi	r2, r1
    19c4:	438a      	bicpl	r2, r1
    19c6:	f8c0 251c 	str.w	r2, [r0, #1308]	@ 0x51c
    19ca:	f8d0 2544 	ldr.w	r2, [r0, #1348]	@ 0x544
    19ce:	059c      	lsls	r4, r3, #22
    19d0:	bf4c      	ite	mi
    19d2:	430a      	orrmi	r2, r1
    19d4:	438a      	bicpl	r2, r1
    19d6:	f8c0 2544 	str.w	r2, [r0, #1348]	@ 0x544
    19da:	f8d0 2540 	ldr.w	r2, [r0, #1344]	@ 0x540
    19de:	f413 7f40 	tst.w	r3, #768	@ 0x300
    19e2:	bf14      	ite	ne
    19e4:	430a      	orrne	r2, r1
    19e6:	438a      	biceq	r2, r1
    19e8:	f8c0 2540 	str.w	r2, [r0, #1344]	@ 0x540
    19ec:	b92b      	cbnz	r3, 19fa <GPIOPadConfigSet+0xfc>
    19ee:	f8d0 3528 	ldr.w	r3, [r0, #1320]	@ 0x528
    19f2:	4319      	orrs	r1, r3
    19f4:	f8c0 1528 	str.w	r1, [r0, #1320]	@ 0x528
    19f8:	bdf0      	pop	{r4, r5, r6, r7, pc}
    19fa:	f8d0 3528 	ldr.w	r3, [r0, #1320]	@ 0x528
    19fe:	ea23 0101 	bic.w	r1, r3, r1
    1a02:	e7f7      	b.n	19f4 <GPIOPadConfigSet+0xf6>

00001a04 <GPIOPinWrite>:
    1a04:	f840 2021 	str.w	r2, [r0, r1, lsl #2]
    1a08:	4770      	bx	lr

00001a0a <GPIOPinTypeComparatorOutput>:
    1a0a:	b510      	push	{r4, lr}
    1a0c:	2202      	movs	r2, #2
    1a0e:	460c      	mov	r4, r1
    1a10:	f7ff ff62 	bl	18d8 <GPIODirModeSet>
    1a14:	4621      	mov	r1, r4
    1a16:	2308      	movs	r3, #8
    1a18:	e8bd 4010 	ldmia.w	sp!, {r4, lr}
    1a1c:	2201      	movs	r2, #1
    1a1e:	f7ff bf6e 	b.w	18fe <GPIOPadConfigSet>

00001a22 <GPIOPinTypePWM>:
    1a22:	f7ff bff2 	b.w	1a0a <GPIOPinTypeComparatorOutput>
	...

00001a28 <GPIOPinConfigure>:
    1a28:	4b0e      	ldr	r3, [pc, #56]	@ (1a64 <GPIOPinConfigure+0x3c>)
    1a2a:	f3c0 4107 	ubfx	r1, r0, #16, #8
    1a2e:	b510      	push	{r4, lr}
    1a30:	2201      	movs	r2, #1
    1a32:	6edc      	ldr	r4, [r3, #108]	@ 0x6c
    1a34:	408a      	lsls	r2, r1
    1a36:	004b      	lsls	r3, r1, #1
    1a38:	4222      	tst	r2, r4
    1a3a:	bf18      	it	ne
    1a3c:	3301      	addne	r3, #1
    1a3e:	4a0a      	ldr	r2, [pc, #40]	@ (1a68 <GPIOPinConfigure+0x40>)
    1a40:	f852 2023 	ldr.w	r2, [r2, r3, lsl #2]
    1a44:	f3c0 2407 	ubfx	r4, r0, #8, #8
    1a48:	f8d2 352c 	ldr.w	r3, [r2, #1324]	@ 0x52c
    1a4c:	210f      	movs	r1, #15
    1a4e:	40a1      	lsls	r1, r4
    1a50:	f000 000f 	and.w	r0, r0, #15
    1a54:	ea23 0301 	bic.w	r3, r3, r1
    1a58:	40a0      	lsls	r0, r4
    1a5a:	4303      	orrs	r3, r0
    1a5c:	f8c2 352c 	str.w	r3, [r2, #1324]	@ 0x52c
    1a60:	bd10      	pop	{r4, pc}
    1a62:	bf00      	nop
    1a64:	400fe000 	.word	0x400fe000
    1a68:	000093e8 	.word	0x000093e8

00001a6c <PWMGenConfigure>:
    1a6c:	5843      	ldr	r3, [r0, r1]
    1a6e:	b510      	push	{r4, lr}
    1a70:	f36f 0352 	bfc	r3, #1, #18
    1a74:	4313      	orrs	r3, r2
    1a76:	5043      	str	r3, [r0, r1]
    1a78:	1844      	adds	r4, r0, r1
    1a7a:	0793      	lsls	r3, r2, #30
    1a7c:	bf4b      	itete	mi
    1a7e:	23b0      	movmi	r3, #176	@ 0xb0
    1a80:	238c      	movpl	r3, #140	@ 0x8c
    1a82:	6223      	strmi	r3, [r4, #32]
    1a84:	6223      	strpl	r3, [r4, #32]
    1a86:	bf4c      	ite	mi
    1a88:	f44f 6330 	movmi.w	r3, #2816	@ 0xb00
    1a8c:	f640 030c 	movwpl	r3, #2060	@ 0x80c
    1a90:	6263      	str	r3, [r4, #36]	@ 0x24
    1a92:	bd10      	pop	{r4, pc}

00001a94 <PWMGenPeriodSet>:
    1a94:	1843      	adds	r3, r0, r1
    1a96:	5841      	ldr	r1, [r0, r1]
    1a98:	0789      	lsls	r1, r1, #30
    1a9a:	bf4c      	ite	mi
    1a9c:	0852      	lsrmi	r2, r2, #1
    1a9e:	f102 32ff 	addpl.w	r2, r2, #4294967295	@ 0xffffffff
    1aa2:	611a      	str	r2, [r3, #16]
    1aa4:	4770      	bx	lr

00001aa6 <PWMGenEnable>:
    1aa6:	5843      	ldr	r3, [r0, r1]
    1aa8:	f043 0301 	orr.w	r3, r3, #1
    1aac:	5043      	str	r3, [r0, r1]
    1aae:	4770      	bx	lr

00001ab0 <PWMPulseWidthSet>:
    1ab0:	f021 033f 	bic.w	r3, r1, #63	@ 0x3f
    1ab4:	b510      	push	{r4, lr}
    1ab6:	181c      	adds	r4, r3, r0
    1ab8:	581b      	ldr	r3, [r3, r0]
    1aba:	0798      	lsls	r0, r3, #30
    1abc:	6923      	ldr	r3, [r4, #16]
    1abe:	bf48      	it	mi
    1ac0:	0852      	lsrmi	r2, r2, #1
    1ac2:	1a9b      	subs	r3, r3, r2
    1ac4:	07ca      	lsls	r2, r1, #31
    1ac6:	bf4c      	ite	mi
    1ac8:	61e3      	strmi	r3, [r4, #28]
    1aca:	61a3      	strpl	r3, [r4, #24]
    1acc:	bd10      	pop	{r4, pc}

00001ace <PWMOutputState>:
    1ace:	6883      	ldr	r3, [r0, #8]
    1ad0:	b112      	cbz	r2, 1ad8 <PWMOutputState+0xa>
    1ad2:	430b      	orrs	r3, r1
    1ad4:	6083      	str	r3, [r0, #8]
    1ad6:	4770      	bx	lr
    1ad8:	ea23 0301 	bic.w	r3, r3, r1
    1adc:	e7fa      	b.n	1ad4 <PWMOutputState+0x6>

00001ade <PWMClockSet>:
    1ade:	f8d0 3fc8 	ldr.w	r3, [r0, #4040]	@ 0xfc8
    1ae2:	f423 7383 	bic.w	r3, r3, #262	@ 0x106
    1ae6:	f023 0301 	bic.w	r3, r3, #1
    1aea:	430b      	orrs	r3, r1
    1aec:	f8c0 3fc8 	str.w	r3, [r0, #4040]	@ 0xfc8
    1af0:	4770      	bx	lr
	...

00001af4 <_SysCtlMemTimingGet>:
    1af4:	4b11      	ldr	r3, [pc, #68]	@ (1b3c <_SysCtlMemTimingGet+0x48>)
    1af6:	4298      	cmp	r0, r3
    1af8:	d914      	bls.n	1b24 <_SysCtlMemTimingGet+0x30>
    1afa:	4b11      	ldr	r3, [pc, #68]	@ (1b40 <_SysCtlMemTimingGet+0x4c>)
    1afc:	4298      	cmp	r0, r3
    1afe:	d913      	bls.n	1b28 <_SysCtlMemTimingGet+0x34>
    1b00:	4b10      	ldr	r3, [pc, #64]	@ (1b44 <_SysCtlMemTimingGet+0x50>)
    1b02:	4298      	cmp	r0, r3
    1b04:	d912      	bls.n	1b2c <_SysCtlMemTimingGet+0x38>
    1b06:	4b10      	ldr	r3, [pc, #64]	@ (1b48 <_SysCtlMemTimingGet+0x54>)
    1b08:	4298      	cmp	r0, r3
    1b0a:	d911      	bls.n	1b30 <_SysCtlMemTimingGet+0x3c>
    1b0c:	4b0f      	ldr	r3, [pc, #60]	@ (1b4c <_SysCtlMemTimingGet+0x58>)
    1b0e:	4298      	cmp	r0, r3
    1b10:	d910      	bls.n	1b34 <_SysCtlMemTimingGet+0x40>
    1b12:	4b0f      	ldr	r3, [pc, #60]	@ (1b50 <_SysCtlMemTimingGet+0x5c>)
    1b14:	4298      	cmp	r0, r3
    1b16:	d80f      	bhi.n	1b38 <_SysCtlMemTimingGet+0x44>
    1b18:	2305      	movs	r3, #5
    1b1a:	4a0e      	ldr	r2, [pc, #56]	@ (1b54 <_SysCtlMemTimingGet+0x60>)
    1b1c:	eb02 03c3 	add.w	r3, r2, r3, lsl #3
    1b20:	6858      	ldr	r0, [r3, #4]
    1b22:	4770      	bx	lr
    1b24:	2300      	movs	r3, #0
    1b26:	e7f8      	b.n	1b1a <_SysCtlMemTimingGet+0x26>
    1b28:	2301      	movs	r3, #1
    1b2a:	e7f6      	b.n	1b1a <_SysCtlMemTimingGet+0x26>
    1b2c:	2302      	movs	r3, #2
    1b2e:	e7f4      	b.n	1b1a <_SysCtlMemTimingGet+0x26>
    1b30:	2303      	movs	r3, #3
    1b32:	e7f2      	b.n	1b1a <_SysCtlMemTimingGet+0x26>
    1b34:	2304      	movs	r3, #4
    1b36:	e7f0      	b.n	1b1a <_SysCtlMemTimingGet+0x26>
    1b38:	2000      	movs	r0, #0
    1b3a:	4770      	bx	lr
    1b3c:	00f42400 	.word	0x00f42400
    1b40:	02625a00 	.word	0x02625a00
    1b44:	03938700 	.word	0x03938700
    1b48:	04c4b400 	.word	0x04c4b400
    1b4c:	05f5e100 	.word	0x05f5e100
    1b50:	07270e00 	.word	0x07270e00
    1b54:	00009480 	.word	0x00009480

00001b58 <SysCtlPeripheralReady>:
    1b58:	4b07      	ldr	r3, [pc, #28]	@ (1b78 <SysCtlPeripheralReady+0x20>)
    1b5a:	f3c0 2207 	ubfx	r2, r0, #8, #8
    1b5e:	0080      	lsls	r0, r0, #2
    1b60:	4413      	add	r3, r2
    1b62:	f400 707f 	and.w	r0, r0, #1020	@ 0x3fc
    1b66:	ea40 1043 	orr.w	r0, r0, r3, lsl #5
    1b6a:	f040 4084 	orr.w	r0, r0, #1107296256	@ 0x42000000
    1b6e:	6800      	ldr	r0, [r0, #0]
    1b70:	3800      	subs	r0, #0
    1b72:	bf18      	it	ne
    1b74:	2001      	movne	r0, #1
    1b76:	4770      	bx	lr
    1b78:	400fea00 	.word	0x400fea00

00001b7c <SysCtlPeripheralEnable>:
    1b7c:	4b06      	ldr	r3, [pc, #24]	@ (1b98 <SysCtlPeripheralEnable+0x1c>)
    1b7e:	f3c0 2207 	ubfx	r2, r0, #8, #8
    1b82:	0080      	lsls	r0, r0, #2
    1b84:	4413      	add	r3, r2
    1b86:	f400 707f 	and.w	r0, r0, #1020	@ 0x3fc
    1b8a:	ea40 1043 	orr.w	r0, r0, r3, lsl #5
    1b8e:	f040 4084 	orr.w	r0, r0, #1107296256	@ 0x42000000
    1b92:	2301      	movs	r3, #1
    1b94:	6003      	str	r3, [r0, #0]
    1b96:	4770      	bx	lr
    1b98:	400fe600 	.word	0x400fe600

00001b9c <SysCtlDelay>:
    1b9c:	3801      	subs	r0, #1
    1b9e:	f47f affd 	bne.w	1b9c <SysCtlDelay>
    1ba2:	4770      	bx	lr

00001ba4 <SysCtlClockFreqSet>:
    1ba4:	4a86      	ldr	r2, [pc, #536]	@ (1dc0 <SysCtlClockFreqSet+0x21c>)
    1ba6:	4b87      	ldr	r3, [pc, #540]	@ (1dc4 <SysCtlClockFreqSet+0x220>)
    1ba8:	e92d 41f0 	stmdb	sp!, {r4, r5, r6, r7, r8, lr}
    1bac:	6814      	ldr	r4, [r2, #0]
    1bae:	4023      	ands	r3, r4
    1bb0:	4c85      	ldr	r4, [pc, #532]	@ (1dc8 <SysCtlClockFreqSet+0x224>)
    1bb2:	42a3      	cmp	r3, r4
    1bb4:	d102      	bne.n	1bbc <SysCtlClockFreqSet+0x18>
    1bb6:	2000      	movs	r0, #0
    1bb8:	e8bd 81f0 	ldmia.w	sp!, {r4, r5, r6, r7, r8, pc}
    1bbc:	f000 0338 	and.w	r3, r0, #56	@ 0x38
    1bc0:	2b10      	cmp	r3, #16
    1bc2:	f000 80af 	beq.w	1d24 <SysCtlClockFreqSet+0x180>
    1bc6:	2b30      	cmp	r3, #48	@ 0x30
    1bc8:	f3c0 1884 	ubfx	r8, r0, #6, #5
    1bcc:	f000 80af 	beq.w	1d2e <SysCtlClockFreqSet+0x18a>
    1bd0:	2b38      	cmp	r3, #56	@ 0x38
    1bd2:	f000 80b1 	beq.w	1d38 <SysCtlClockFreqSet+0x194>
    1bd6:	2b00      	cmp	r3, #0
    1bd8:	f040 80b3 	bne.w	1d42 <SysCtlClockFreqSet+0x19e>
    1bdc:	f1a8 0309 	sub.w	r3, r8, #9
    1be0:	2b11      	cmp	r3, #17
    1be2:	d8e8      	bhi.n	1bb6 <SysCtlClockFreqSet+0x12>
    1be4:	4b79      	ldr	r3, [pc, #484]	@ (1dcc <SysCtlClockFreqSet+0x228>)
    1be6:	f853 7028 	ldr.w	r7, [r3, r8, lsl #2]
    1bea:	6fd3      	ldr	r3, [r2, #124]	@ 0x7c
    1bec:	f023 031c 	bic.w	r3, r3, #28
    1bf0:	f043 0310 	orr.w	r3, r3, #16
    1bf4:	67d3      	str	r3, [r2, #124]	@ 0x7c
    1bf6:	f44f 2300 	mov.w	r3, #524288	@ 0x80000
    1bfa:	6d14      	ldr	r4, [r2, #80]	@ 0x50
    1bfc:	05e4      	lsls	r4, r4, #23
    1bfe:	f140 808d 	bpl.w	1d1c <SysCtlClockFreqSet+0x178>
    1c02:	f04f 764c 	mov.w	r6, #53477376	@ 0x3300000
    1c06:	f410 5f60 	tst.w	r0, #14336	@ 0x3800
    1c0a:	f040 809d 	bne.w	1d48 <SysCtlClockFreqSet+0x1a4>
    1c0e:	f010 0f28 	tst.w	r0, #40	@ 0x28
    1c12:	d1d0      	bne.n	1bb6 <SysCtlClockFreqSet+0x12>
    1c14:	f3c0 6402 	ubfx	r4, r0, #24, #3
    1c18:	486d      	ldr	r0, [pc, #436]	@ (1dd0 <SysCtlClockFreqSet+0x22c>)
    1c1a:	4d69      	ldr	r5, [pc, #420]	@ (1dc0 <SysCtlClockFreqSet+0x21c>)
    1c1c:	f7ff ff6a 	bl	1af4 <_SysCtlMemTimingGet>
    1c20:	f8c5 00c0 	str.w	r0, [r5, #192]	@ 0xc0
    1c24:	f8d5 20b0 	ldr.w	r2, [r5, #176]	@ 0xb0
    1c28:	4b6a      	ldr	r3, [pc, #424]	@ (1dd4 <SysCtlClockFreqSet+0x230>)
    1c2a:	4013      	ands	r3, r2
    1c2c:	f043 4300 	orr.w	r3, r3, #2147483648	@ 0x80000000
    1c30:	f8c5 30b0 	str.w	r3, [r5, #176]	@ 0xb0
    1c34:	4b68      	ldr	r3, [pc, #416]	@ (1dd8 <SysCtlClockFreqSet+0x234>)
    1c36:	f853 3024 	ldr.w	r3, [r3, r4, lsl #2]
    1c3a:	1e4a      	subs	r2, r1, #1
    1c3c:	441a      	add	r2, r3
    1c3e:	f8d5 30b0 	ldr.w	r3, [r5, #176]	@ 0xb0
    1c42:	fbb2 f2f1 	udiv	r2, r2, r1
    1c46:	4333      	orrs	r3, r6
    1c48:	f8c5 30b0 	str.w	r3, [r5, #176]	@ 0xb0
    1c4c:	23d8      	movs	r3, #216	@ 0xd8
    1c4e:	4963      	ldr	r1, [pc, #396]	@ (1ddc <SysCtlClockFreqSet+0x238>)
    1c50:	fb03 f004 	mul.w	r0, r3, r4
    1c54:	f1a8 0809 	sub.w	r8, r8, #9
    1c58:	230c      	movs	r3, #12
    1c5a:	fb03 0008 	mla	r0, r3, r8, r0
    1c5e:	180b      	adds	r3, r1, r0
    1c60:	3a01      	subs	r2, #1
    1c62:	685b      	ldr	r3, [r3, #4]
    1c64:	f8c5 3164 	str.w	r3, [r5, #356]	@ 0x164
    1c68:	f8d5 3164 	ldr.w	r3, [r5, #356]	@ 0x164
    1c6c:	ea43 2302 	orr.w	r3, r3, r2, lsl #8
    1c70:	f8c5 3164 	str.w	r3, [r5, #356]	@ 0x164
    1c74:	f8d5 3160 	ldr.w	r3, [r5, #352]	@ 0x160
    1c78:	580a      	ldr	r2, [r1, r0]
    1c7a:	f403 0300 	and.w	r3, r3, #8388608	@ 0x800000
    1c7e:	4313      	orrs	r3, r2
    1c80:	f8c5 3160 	str.w	r3, [r5, #352]	@ 0x160
    1c84:	f8d5 3160 	ldr.w	r3, [r5, #352]	@ 0x160
    1c88:	f8d5 4160 	ldr.w	r4, [r5, #352]	@ 0x160
    1c8c:	f8d5 0164 	ldr.w	r0, [r5, #356]	@ 0x164
    1c90:	f8d5 1164 	ldr.w	r1, [r5, #356]	@ 0x164
    1c94:	0a9a      	lsrs	r2, r3, #10
    1c96:	f001 011f 	and.w	r1, r1, #31
    1c9a:	f3c3 2389 	ubfx	r3, r3, #10, #10
    1c9e:	3101      	adds	r1, #1
    1ca0:	f402 7278 	and.w	r2, r2, #992	@ 0x3e0
    1ca4:	fbb7 f1f1 	udiv	r1, r7, r1
    1ca8:	f3c4 0709 	ubfx	r7, r4, #0, #10
    1cac:	095c      	lsrs	r4, r3, #5
    1cae:	1a9a      	subs	r2, r3, r2
    1cb0:	434c      	muls	r4, r1
    1cb2:	434a      	muls	r2, r1
    1cb4:	0964      	lsrs	r4, r4, #5
    1cb6:	eb04 2492 	add.w	r4, r4, r2, lsr #10
    1cba:	f3c0 2004 	ubfx	r0, r0, #8, #5
    1cbe:	3001      	adds	r0, #1
    1cc0:	fb01 4407 	mla	r4, r1, r7, r4
    1cc4:	fbb4 f4f0 	udiv	r4, r4, r0
    1cc8:	0864      	lsrs	r4, r4, #1
    1cca:	4620      	mov	r0, r4
    1ccc:	f7ff ff12 	bl	1af4 <_SysCtlMemTimingGet>
    1cd0:	f8c5 00c0 	str.w	r0, [r5, #192]	@ 0xc0
    1cd4:	f8d5 3160 	ldr.w	r3, [r5, #352]	@ 0x160
    1cd8:	4a39      	ldr	r2, [pc, #228]	@ (1dc0 <SysCtlClockFreqSet+0x21c>)
    1cda:	021b      	lsls	r3, r3, #8
    1cdc:	bf4b      	itete	mi
    1cde:	f8d5 30b0 	ldrmi.w	r3, [r5, #176]	@ 0xb0
    1ce2:	f8d5 3160 	ldrpl.w	r3, [r5, #352]	@ 0x160
    1ce6:	f043 4380 	orrmi.w	r3, r3, #1073741824	@ 0x40000000
    1cea:	f443 0300 	orrpl.w	r3, r3, #8388608	@ 0x800000
    1cee:	bf4c      	ite	mi
    1cf0:	f8c5 30b0 	strmi.w	r3, [r5, #176]	@ 0xb0
    1cf4:	f8c5 3160 	strpl.w	r3, [r5, #352]	@ 0x160
    1cf8:	f44f 4300 	mov.w	r3, #32768	@ 0x8000
    1cfc:	f8d2 1168 	ldr.w	r1, [r2, #360]	@ 0x168
    1d00:	f011 0101 	ands.w	r1, r1, #1
    1d04:	d150      	bne.n	1da8 <SysCtlClockFreqSet+0x204>
    1d06:	3b01      	subs	r3, #1
    1d08:	d1f8      	bne.n	1cfc <SysCtlClockFreqSet+0x158>
    1d0a:	4a2d      	ldr	r2, [pc, #180]	@ (1dc0 <SysCtlClockFreqSet+0x21c>)
    1d0c:	f8d2 30b0 	ldr.w	r3, [r2, #176]	@ 0xb0
    1d10:	f423 0370 	bic.w	r3, r3, #15728640	@ 0xf00000
    1d14:	f8c2 30b0 	str.w	r3, [r2, #176]	@ 0xb0
    1d18:	4608      	mov	r0, r1
    1d1a:	e74d      	b.n	1bb8 <SysCtlClockFreqSet+0x14>
    1d1c:	3b01      	subs	r3, #1
    1d1e:	f47f af6c 	bne.w	1bfa <SysCtlClockFreqSet+0x56>
    1d22:	e748      	b.n	1bb6 <SysCtlClockFreqSet+0x12>
    1d24:	4f2e      	ldr	r7, [pc, #184]	@ (1de0 <SysCtlClockFreqSet+0x23c>)
    1d26:	2600      	movs	r6, #0
    1d28:	f04f 0815 	mov.w	r8, #21
    1d2c:	e76b      	b.n	1c06 <SysCtlClockFreqSet+0x62>
    1d2e:	f44f 1600 	mov.w	r6, #2097152	@ 0x200000
    1d32:	f247 5730 	movw	r7, #30000	@ 0x7530
    1d36:	e766      	b.n	1c06 <SysCtlClockFreqSet+0x62>
    1d38:	f44f 0680 	mov.w	r6, #4194304	@ 0x400000
    1d3c:	f44f 4700 	mov.w	r7, #32768	@ 0x8000
    1d40:	e761      	b.n	1c06 <SysCtlClockFreqSet+0x62>
    1d42:	2600      	movs	r6, #0
    1d44:	4637      	mov	r7, r6
    1d46:	e75e      	b.n	1c06 <SysCtlClockFreqSet+0x62>
    1d48:	4825      	ldr	r0, [pc, #148]	@ (1de0 <SysCtlClockFreqSet+0x23c>)
    1d4a:	f7ff fed3 	bl	1af4 <_SysCtlMemTimingGet>
    1d4e:	4b1c      	ldr	r3, [pc, #112]	@ (1dc0 <SysCtlClockFreqSet+0x21c>)
    1d50:	f8c3 00c0 	str.w	r0, [r3, #192]	@ 0xc0
    1d54:	f8d3 2160 	ldr.w	r2, [r3, #352]	@ 0x160
    1d58:	f422 0200 	bic.w	r2, r2, #8388608	@ 0x800000
    1d5c:	f8c3 2160 	str.w	r2, [r3, #352]	@ 0x160
    1d60:	f8d3 00b0 	ldr.w	r0, [r3, #176]	@ 0xb0
    1d64:	4a1f      	ldr	r2, [pc, #124]	@ (1de4 <SysCtlClockFreqSet+0x240>)
    1d66:	4002      	ands	r2, r0
    1d68:	f042 4200 	orr.w	r2, r2, #2147483648	@ 0x80000000
    1d6c:	f8c3 20b0 	str.w	r2, [r3, #176]	@ 0xb0
    1d70:	b1c1      	cbz	r1, 1da4 <SysCtlClockFreqSet+0x200>
    1d72:	fbb7 f4f1 	udiv	r4, r7, r1
    1d76:	428f      	cmp	r7, r1
    1d78:	bf28      	it	cs
    1d7a:	f104 34ff 	addcs.w	r4, r4, #4294967295	@ 0xffffffff
    1d7e:	1c61      	adds	r1, r4, #1
    1d80:	fbb7 f1f1 	udiv	r1, r7, r1
    1d84:	4608      	mov	r0, r1
    1d86:	f7ff feb5 	bl	1af4 <_SysCtlMemTimingGet>
    1d8a:	4a0d      	ldr	r2, [pc, #52]	@ (1dc0 <SysCtlClockFreqSet+0x21c>)
    1d8c:	f8c2 00c0 	str.w	r0, [r2, #192]	@ 0xc0
    1d90:	f8d2 30b0 	ldr.w	r3, [r2, #176]	@ 0xb0
    1d94:	ea43 2384 	orr.w	r3, r3, r4, lsl #10
    1d98:	4333      	orrs	r3, r6
    1d9a:	f043 4300 	orr.w	r3, r3, #2147483648	@ 0x80000000
    1d9e:	f8c2 30b0 	str.w	r3, [r2, #176]	@ 0xb0
    1da2:	e7b2      	b.n	1d0a <SysCtlClockFreqSet+0x166>
    1da4:	460c      	mov	r4, r1
    1da6:	e7ed      	b.n	1d84 <SysCtlClockFreqSet+0x1e0>
    1da8:	f8d2 30b0 	ldr.w	r3, [r2, #176]	@ 0xb0
    1dac:	4333      	orrs	r3, r6
    1dae:	f043 4310 	orr.w	r3, r3, #2415919104	@ 0x90000000
    1db2:	f043 0301 	orr.w	r3, r3, #1
    1db6:	f8c2 30b0 	str.w	r3, [r2, #176]	@ 0xb0
    1dba:	4621      	mov	r1, r4
    1dbc:	e7a5      	b.n	1d0a <SysCtlClockFreqSet+0x166>
    1dbe:	bf00      	nop
    1dc0:	400fe000 	.word	0x400fe000
    1dc4:	70ff0000 	.word	0x70ff0000
    1dc8:	10050000 	.word	0x10050000
    1dcc:	00009660 	.word	0x00009660
    1dd0:	017d7840 	.word	0x017d7840
    1dd4:	e00ffc00 	.word	0xe00ffc00
    1dd8:	00009478 	.word	0x00009478
    1ddc:	000094b0 	.word	0x000094b0
    1de0:	00f42400 	.word	0x00f42400
    1de4:	ef0003ff 	.word	0xef0003ff

00001de8 <strncpy>:
    1de8:	ea40 0301 	orr.w	r3, r0, r1
    1dec:	079b      	lsls	r3, r3, #30
    1dee:	b510      	push	{r4, lr}
    1df0:	d101      	bne.n	1df6 <strncpy+0xe>
    1df2:	2a03      	cmp	r2, #3
    1df4:	d817      	bhi.n	1e26 <strncpy+0x3e>
    1df6:	4684      	mov	ip, r0
    1df8:	f101 3eff 	add.w	lr, r1, #4294967295	@ 0xffffffff
    1dfc:	e007      	b.n	1e0e <strncpy+0x26>
    1dfe:	f81e 1f01 	ldrb.w	r1, [lr, #1]!
    1e02:	f803 1b01 	strb.w	r1, [r3], #1
    1e06:	1e54      	subs	r4, r2, #1
    1e08:	b129      	cbz	r1, 1e16 <strncpy+0x2e>
    1e0a:	469c      	mov	ip, r3
    1e0c:	4622      	mov	r2, r4
    1e0e:	4663      	mov	r3, ip
    1e10:	2a00      	cmp	r2, #0
    1e12:	d1f4      	bne.n	1dfe <strncpy+0x16>
    1e14:	bd10      	pop	{r4, pc}
    1e16:	4494      	add	ip, r2
    1e18:	2c00      	cmp	r4, #0
    1e1a:	d0fb      	beq.n	1e14 <strncpy+0x2c>
    1e1c:	f803 1b01 	strb.w	r1, [r3], #1
    1e20:	4563      	cmp	r3, ip
    1e22:	d1fb      	bne.n	1e1c <strncpy+0x34>
    1e24:	bd10      	pop	{r4, pc}
    1e26:	468e      	mov	lr, r1
    1e28:	4684      	mov	ip, r0
    1e2a:	f8de 4000 	ldr.w	r4, [lr]
    1e2e:	f1a4 3301 	sub.w	r3, r4, #16843009	@ 0x1010101
    1e32:	ea23 0304 	bic.w	r3, r3, r4
    1e36:	f013 3f80 	tst.w	r3, #2155905152	@ 0x80808080
    1e3a:	4671      	mov	r1, lr
    1e3c:	f10e 0e04 	add.w	lr, lr, #4
    1e40:	d1da      	bne.n	1df8 <strncpy+0x10>
    1e42:	3a04      	subs	r2, #4
    1e44:	2a03      	cmp	r2, #3
    1e46:	f84c 4b04 	str.w	r4, [ip], #4
    1e4a:	d8ee      	bhi.n	1e2a <strncpy+0x42>
    1e4c:	4671      	mov	r1, lr
    1e4e:	e7d3      	b.n	1df8 <strncpy+0x10>
	...

00001e80 <strlen>:
    1e80:	b430      	push	{r4, r5}
    1e82:	f890 f000 	pld	[r0]
    1e86:	f020 0107 	bic.w	r1, r0, #7
    1e8a:	f06f 0c00 	mvn.w	ip, #0
    1e8e:	f010 0407 	ands.w	r4, r0, #7
    1e92:	f891 f020 	pld	[r1, #32]
    1e96:	f040 8048 	bne.w	1f2a <strlen+0xaa>
    1e9a:	f04f 0400 	mov.w	r4, #0
    1e9e:	f06f 0007 	mvn.w	r0, #7
    1ea2:	e9d1 2300 	ldrd	r2, r3, [r1]
    1ea6:	f891 f040 	pld	[r1, #64]	@ 0x40
    1eaa:	f100 0008 	add.w	r0, r0, #8
    1eae:	fa82 f24c 	uadd8	r2, r2, ip
    1eb2:	faa4 f28c 	sel	r2, r4, ip
    1eb6:	fa83 f34c 	uadd8	r3, r3, ip
    1eba:	faa2 f38c 	sel	r3, r2, ip
    1ebe:	bb4b      	cbnz	r3, 1f14 <strlen+0x94>
    1ec0:	e9d1 2302 	ldrd	r2, r3, [r1, #8]
    1ec4:	fa82 f24c 	uadd8	r2, r2, ip
    1ec8:	f100 0008 	add.w	r0, r0, #8
    1ecc:	faa4 f28c 	sel	r2, r4, ip
    1ed0:	fa83 f34c 	uadd8	r3, r3, ip
    1ed4:	faa2 f38c 	sel	r3, r2, ip
    1ed8:	b9e3      	cbnz	r3, 1f14 <strlen+0x94>
    1eda:	e9d1 2304 	ldrd	r2, r3, [r1, #16]
    1ede:	fa82 f24c 	uadd8	r2, r2, ip
    1ee2:	f100 0008 	add.w	r0, r0, #8
    1ee6:	faa4 f28c 	sel	r2, r4, ip
    1eea:	fa83 f34c 	uadd8	r3, r3, ip
    1eee:	faa2 f38c 	sel	r3, r2, ip
    1ef2:	b97b      	cbnz	r3, 1f14 <strlen+0x94>
    1ef4:	e9d1 2306 	ldrd	r2, r3, [r1, #24]
    1ef8:	f101 0120 	add.w	r1, r1, #32
    1efc:	fa82 f24c 	uadd8	r2, r2, ip
    1f00:	f100 0008 	add.w	r0, r0, #8
    1f04:	faa4 f28c 	sel	r2, r4, ip
    1f08:	fa83 f34c 	uadd8	r3, r3, ip
    1f0c:	faa2 f38c 	sel	r3, r2, ip
    1f10:	2b00      	cmp	r3, #0
    1f12:	d0c6      	beq.n	1ea2 <strlen+0x22>
    1f14:	2a00      	cmp	r2, #0
    1f16:	bf04      	itt	eq
    1f18:	3004      	addeq	r0, #4
    1f1a:	461a      	moveq	r2, r3
    1f1c:	ba12      	rev	r2, r2
    1f1e:	fab2 f282 	clz	r2, r2
    1f22:	eb00 00d2 	add.w	r0, r0, r2, lsr #3
    1f26:	bc30      	pop	{r4, r5}
    1f28:	4770      	bx	lr
    1f2a:	e9d1 2300 	ldrd	r2, r3, [r1]
    1f2e:	f004 0503 	and.w	r5, r4, #3
    1f32:	f1c4 0000 	rsb	r0, r4, #0
    1f36:	ea4f 05c5 	mov.w	r5, r5, lsl #3
    1f3a:	f014 0f04 	tst.w	r4, #4
    1f3e:	f891 f040 	pld	[r1, #64]	@ 0x40
    1f42:	fa0c f505 	lsl.w	r5, ip, r5
    1f46:	ea62 0205 	orn	r2, r2, r5
    1f4a:	bf1c      	itt	ne
    1f4c:	ea63 0305 	ornne	r3, r3, r5
    1f50:	4662      	movne	r2, ip
    1f52:	f04f 0400 	mov.w	r4, #0
    1f56:	e7aa      	b.n	1eae <strlen+0x2e>

00001f58 <vsnprintf>:
    1f58:	b510      	push	{r4, lr}
    1f5a:	4c1c      	ldr	r4, [pc, #112]	@ (1fcc <vsnprintf+0x74>)
    1f5c:	2900      	cmp	r1, #0
    1f5e:	6824      	ldr	r4, [r4, #0]
    1f60:	b09a      	sub	sp, #104	@ 0x68
    1f62:	db2d      	blt.n	1fc0 <vsnprintf+0x68>
    1f64:	9000      	str	r0, [sp, #0]
    1f66:	9004      	str	r0, [sp, #16]
    1f68:	f44f 7002 	mov.w	r0, #520	@ 0x208
    1f6c:	f8ad 000c 	strh.w	r0, [sp, #12]
    1f70:	f04f 0000 	mov.w	r0, #0
    1f74:	9019      	str	r0, [sp, #100]	@ 0x64
    1f76:	d013      	beq.n	1fa0 <vsnprintf+0x48>
    1f78:	3901      	subs	r1, #1
    1f7a:	f64f 70ff 	movw	r0, #65535	@ 0xffff
    1f7e:	9102      	str	r1, [sp, #8]
    1f80:	9105      	str	r1, [sp, #20]
    1f82:	f8ad 000e 	strh.w	r0, [sp, #14]
    1f86:	4669      	mov	r1, sp
    1f88:	4620      	mov	r0, r4
    1f8a:	f000 f85d 	bl	2048 <_svfprintf_r>
    1f8e:	1c42      	adds	r2, r0, #1
    1f90:	da01      	bge.n	1f96 <vsnprintf+0x3e>
    1f92:	238b      	movs	r3, #139	@ 0x8b
    1f94:	6023      	str	r3, [r4, #0]
    1f96:	9b00      	ldr	r3, [sp, #0]
    1f98:	2200      	movs	r2, #0
    1f9a:	701a      	strb	r2, [r3, #0]
    1f9c:	b01a      	add	sp, #104	@ 0x68
    1f9e:	bd10      	pop	{r4, pc}
    1fa0:	f64f 70ff 	movw	r0, #65535	@ 0xffff
    1fa4:	9102      	str	r1, [sp, #8]
    1fa6:	9105      	str	r1, [sp, #20]
    1fa8:	f8ad 000e 	strh.w	r0, [sp, #14]
    1fac:	4669      	mov	r1, sp
    1fae:	4620      	mov	r0, r4
    1fb0:	f000 f84a 	bl	2048 <_svfprintf_r>
    1fb4:	1c43      	adds	r3, r0, #1
    1fb6:	da01      	bge.n	1fbc <vsnprintf+0x64>
    1fb8:	238b      	movs	r3, #139	@ 0x8b
    1fba:	6023      	str	r3, [r4, #0]
    1fbc:	b01a      	add	sp, #104	@ 0x68
    1fbe:	bd10      	pop	{r4, pc}
    1fc0:	238b      	movs	r3, #139	@ 0x8b
    1fc2:	6023      	str	r3, [r4, #0]
    1fc4:	f04f 30ff 	mov.w	r0, #4294967295	@ 0xffffffff
    1fc8:	e7f8      	b.n	1fbc <vsnprintf+0x64>
    1fca:	bf00      	nop
    1fcc:	20000000 	.word	0x20000000

00001fd0 <_vsnprintf_r>:
    1fd0:	b530      	push	{r4, r5, lr}
    1fd2:	4614      	mov	r4, r2
    1fd4:	2c00      	cmp	r4, #0
    1fd6:	b09b      	sub	sp, #108	@ 0x6c
    1fd8:	4605      	mov	r5, r0
    1fda:	db2e      	blt.n	203a <_stack_size+0x3a>
    1fdc:	461a      	mov	r2, r3
    1fde:	f44f 7302 	mov.w	r3, #520	@ 0x208
    1fe2:	f8ad 300c 	strh.w	r3, [sp, #12]
    1fe6:	f04f 0300 	mov.w	r3, #0
    1fea:	9100      	str	r1, [sp, #0]
    1fec:	9104      	str	r1, [sp, #16]
    1fee:	9319      	str	r3, [sp, #100]	@ 0x64
    1ff0:	d013      	beq.n	201a <_stack_size+0x1a>
    1ff2:	f64f 73ff 	movw	r3, #65535	@ 0xffff
    1ff6:	3c01      	subs	r4, #1
    1ff8:	f8ad 300e 	strh.w	r3, [sp, #14]
    1ffc:	4669      	mov	r1, sp
    1ffe:	9b1e      	ldr	r3, [sp, #120]	@ 0x78
    2000:	9402      	str	r4, [sp, #8]
    2002:	9405      	str	r4, [sp, #20]
    2004:	f000 f820 	bl	2048 <_svfprintf_r>
    2008:	1c42      	adds	r2, r0, #1
    200a:	da01      	bge.n	2010 <_stack_size+0x10>
    200c:	238b      	movs	r3, #139	@ 0x8b
    200e:	602b      	str	r3, [r5, #0]
    2010:	9b00      	ldr	r3, [sp, #0]
    2012:	2200      	movs	r2, #0
    2014:	701a      	strb	r2, [r3, #0]
    2016:	b01b      	add	sp, #108	@ 0x6c
    2018:	bd30      	pop	{r4, r5, pc}
    201a:	f64f 73ff 	movw	r3, #65535	@ 0xffff
    201e:	f8ad 300e 	strh.w	r3, [sp, #14]
    2022:	4669      	mov	r1, sp
    2024:	9b1e      	ldr	r3, [sp, #120]	@ 0x78
    2026:	9402      	str	r4, [sp, #8]
    2028:	9405      	str	r4, [sp, #20]
    202a:	f000 f80d 	bl	2048 <_svfprintf_r>
    202e:	1c43      	adds	r3, r0, #1
    2030:	da01      	bge.n	2036 <_stack_size+0x36>
    2032:	238b      	movs	r3, #139	@ 0x8b
    2034:	602b      	str	r3, [r5, #0]
    2036:	b01b      	add	sp, #108	@ 0x6c
    2038:	bd30      	pop	{r4, r5, pc}
    203a:	238b      	movs	r3, #139	@ 0x8b
    203c:	6003      	str	r3, [r0, #0]
    203e:	f04f 30ff 	mov.w	r0, #4294967295	@ 0xffffffff
    2042:	e7f8      	b.n	2036 <_stack_size+0x36>
    2044:	0000      	movs	r0, r0
	...

00002048 <_svfprintf_r>:
    2048:	e92d 4ff0 	stmdb	sp!, {r4, r5, r6, r7, r8, r9, sl, fp, lr}
    204c:	b0bf      	sub	sp, #252	@ 0xfc
    204e:	460c      	mov	r4, r1
    2050:	9107      	str	r1, [sp, #28]
    2052:	4692      	mov	sl, r2
    2054:	9309      	str	r3, [sp, #36]	@ 0x24
    2056:	9008      	str	r0, [sp, #32]
    2058:	f004 f86c 	bl	6134 <_localeconv_r>
    205c:	6803      	ldr	r3, [r0, #0]
    205e:	9310      	str	r3, [sp, #64]	@ 0x40
    2060:	4618      	mov	r0, r3
    2062:	f7ff ff0d 	bl	1e80 <strlen>
    2066:	89a3      	ldrh	r3, [r4, #12]
    2068:	900f      	str	r0, [sp, #60]	@ 0x3c
    206a:	061e      	lsls	r6, r3, #24
    206c:	d503      	bpl.n	2076 <_svfprintf_r+0x2e>
    206e:	6923      	ldr	r3, [r4, #16]
    2070:	2b00      	cmp	r3, #0
    2072:	f000 86a8 	beq.w	2dc6 <_svfprintf_r+0xd7e>
    2076:	ed9f 7ba4 	vldr	d7, [pc, #656]	@ 2308 <_svfprintf_r+0x2c0>
    207a:	2300      	movs	r3, #0
    207c:	e9cd 3322 	strd	r3, r3, [sp, #136]	@ 0x88
    2080:	e9cd 3311 	strd	r3, r3, [sp, #68]	@ 0x44
    2084:	ed8d 7b0c 	vstr	d7, [sp, #48]	@ 0x30
    2088:	aa2e      	add	r2, sp, #184	@ 0xb8
    208a:	930e      	str	r3, [sp, #56]	@ 0x38
    208c:	9221      	str	r2, [sp, #132]	@ 0x84
    208e:	4691      	mov	r9, r2
    2090:	9305      	str	r3, [sp, #20]
    2092:	46d3      	mov	fp, sl
    2094:	f89b 3000 	ldrb.w	r3, [fp]
    2098:	2b00      	cmp	r3, #0
    209a:	f000 8142 	beq.w	2322 <_svfprintf_r+0x2da>
    209e:	465c      	mov	r4, fp
    20a0:	e004      	b.n	20ac <_svfprintf_r+0x64>
    20a2:	f814 3f01 	ldrb.w	r3, [r4, #1]!
    20a6:	2b00      	cmp	r3, #0
    20a8:	f000 8119 	beq.w	22de <_svfprintf_r+0x296>
    20ac:	2b25      	cmp	r3, #37	@ 0x25
    20ae:	d1f8      	bne.n	20a2 <_svfprintf_r+0x5a>
    20b0:	ebb4 050b 	subs.w	r5, r4, fp
    20b4:	f040 8116 	bne.w	22e4 <_svfprintf_r+0x29c>
    20b8:	7823      	ldrb	r3, [r4, #0]
    20ba:	2b00      	cmp	r3, #0
    20bc:	f000 8131 	beq.w	2322 <_svfprintf_r+0x2da>
    20c0:	f04f 0300 	mov.w	r3, #0
    20c4:	f88d 3067 	strb.w	r3, [sp, #103]	@ 0x67
    20c8:	2700      	movs	r7, #0
    20ca:	7863      	ldrb	r3, [r4, #1]
    20cc:	9704      	str	r7, [sp, #16]
    20ce:	f104 0b01 	add.w	fp, r4, #1
    20d2:	f04f 3aff 	mov.w	sl, #4294967295	@ 0xffffffff
    20d6:	f10b 0b01 	add.w	fp, fp, #1
    20da:	4698      	mov	r8, r3
    20dc:	f1a8 0320 	sub.w	r3, r8, #32
    20e0:	2b58      	cmp	r3, #88	@ 0x58
    20e2:	f200 812b 	bhi.w	233c <_svfprintf_r+0x2f4>
    20e6:	e8df f013 	tbh	[pc, r3, lsl #1]
    20ea:	0252      	.short	0x0252
    20ec:	01290129 	.word	0x01290129
    20f0:	0129024d 	.word	0x0129024d
    20f4:	01290129 	.word	0x01290129
    20f8:	01290129 	.word	0x01290129
    20fc:	02150129 	.word	0x02150129
    2100:	01290247 	.word	0x01290247
    2104:	02250220 	.word	0x02250220
    2108:	02420129 	.word	0x02420129
    210c:	00590059 	.word	0x00590059
    2110:	00590059 	.word	0x00590059
    2114:	00590059 	.word	0x00590059
    2118:	00590059 	.word	0x00590059
    211c:	01290059 	.word	0x01290059
    2120:	01290129 	.word	0x01290129
    2124:	01290129 	.word	0x01290129
    2128:	01290129 	.word	0x01290129
    212c:	01290129 	.word	0x01290129
    2130:	00680129 	.word	0x00680129
    2134:	012901a4 	.word	0x012901a4
    2138:	012901a4 	.word	0x012901a4
    213c:	01290129 	.word	0x01290129
    2140:	027d0129 	.word	0x027d0129
    2144:	01290129 	.word	0x01290129
    2148:	01290095 	.word	0x01290095
    214c:	01290129 	.word	0x01290129
    2150:	01290129 	.word	0x01290129
    2154:	012900a6 	.word	0x012900a6
    2158:	06460129 	.word	0x06460129
    215c:	01290129 	.word	0x01290129
    2160:	01290129 	.word	0x01290129
    2164:	01290129 	.word	0x01290129
    2168:	01290129 	.word	0x01290129
    216c:	01290129 	.word	0x01290129
    2170:	006a026f 	.word	0x006a026f
    2174:	01a401a4 	.word	0x01a401a4
    2178:	026a01a4 	.word	0x026a01a4
    217c:	0129006a 	.word	0x0129006a
    2180:	025d0129 	.word	0x025d0129
    2184:	02b90129 	.word	0x02b90129
    2188:	02a80097 	.word	0x02a80097
    218c:	012902a3 	.word	0x012902a3
    2190:	01290282 	.word	0x01290282
    2194:	012900a8 	.word	0x012900a8
    2198:	06660129 	.word	0x06660129
    219c:	f1a8 0330 	sub.w	r3, r8, #48	@ 0x30
    21a0:	2200      	movs	r2, #0
    21a2:	f81b 8b01 	ldrb.w	r8, [fp], #1
    21a6:	eb02 0282 	add.w	r2, r2, r2, lsl #2
    21aa:	eb03 0242 	add.w	r2, r3, r2, lsl #1
    21ae:	f1a8 0330 	sub.w	r3, r8, #48	@ 0x30
    21b2:	2b09      	cmp	r3, #9
    21b4:	d9f5      	bls.n	21a2 <_svfprintf_r+0x15a>
    21b6:	9204      	str	r2, [sp, #16]
    21b8:	e790      	b.n	20dc <_svfprintf_r+0x94>
    21ba:	f047 0710 	orr.w	r7, r7, #16
    21be:	06bd      	lsls	r5, r7, #26
    21c0:	f140 8177 	bpl.w	24b2 <_svfprintf_r+0x46a>
    21c4:	9b09      	ldr	r3, [sp, #36]	@ 0x24
    21c6:	3307      	adds	r3, #7
    21c8:	f023 0307 	bic.w	r3, r3, #7
    21cc:	461a      	mov	r2, r3
    21ce:	6859      	ldr	r1, [r3, #4]
    21d0:	f852 3b08 	ldr.w	r3, [r2], #8
    21d4:	9209      	str	r2, [sp, #36]	@ 0x24
    21d6:	460a      	mov	r2, r1
    21d8:	2900      	cmp	r1, #0
    21da:	f2c0 8195 	blt.w	2508 <_svfprintf_r+0x4c0>
    21de:	f1ba 0f00 	cmp.w	sl, #0
    21e2:	f89d 4067 	ldrb.w	r4, [sp, #103]	@ 0x67
    21e6:	db07      	blt.n	21f8 <_svfprintf_r+0x1b0>
    21e8:	f027 0180 	bic.w	r1, r7, #128	@ 0x80
    21ec:	9102      	str	r1, [sp, #8]
    21ee:	ea53 0102 	orrs.w	r1, r3, r2
    21f2:	f000 83b2 	beq.w	295a <_svfprintf_r+0x912>
    21f6:	9f02      	ldr	r7, [sp, #8]
    21f8:	2b0a      	cmp	r3, #10
    21fa:	f172 0100 	sbcs.w	r1, r2, #0
    21fe:	f080 866d 	bcs.w	2edc <_svfprintf_r+0xe94>
    2202:	3330      	adds	r3, #48	@ 0x30
    2204:	f88d 30b7 	strb.w	r3, [sp, #183]	@ 0xb7
    2208:	2301      	movs	r3, #1
    220a:	9702      	str	r7, [sp, #8]
    220c:	9306      	str	r3, [sp, #24]
    220e:	f10d 05b7 	add.w	r5, sp, #183	@ 0xb7
    2212:	e050      	b.n	22b6 <_svfprintf_r+0x26e>
    2214:	f047 0710 	orr.w	r7, r7, #16
    2218:	f017 0220 	ands.w	r2, r7, #32
    221c:	f000 8160 	beq.w	24e0 <_svfprintf_r+0x498>
    2220:	9b09      	ldr	r3, [sp, #36]	@ 0x24
    2222:	3307      	adds	r3, #7
    2224:	f023 0307 	bic.w	r3, r3, #7
    2228:	4619      	mov	r1, r3
    222a:	685a      	ldr	r2, [r3, #4]
    222c:	f851 3b08 	ldr.w	r3, [r1], #8
    2230:	9109      	str	r1, [sp, #36]	@ 0x24
    2232:	2100      	movs	r1, #0
    2234:	e00f      	b.n	2256 <_svfprintf_r+0x20e>
    2236:	f047 0710 	orr.w	r7, r7, #16
    223a:	f017 0220 	ands.w	r2, r7, #32
    223e:	f000 8145 	beq.w	24cc <_svfprintf_r+0x484>
    2242:	9b09      	ldr	r3, [sp, #36]	@ 0x24
    2244:	3307      	adds	r3, #7
    2246:	f023 0307 	bic.w	r3, r3, #7
    224a:	4619      	mov	r1, r3
    224c:	685a      	ldr	r2, [r3, #4]
    224e:	f851 3b08 	ldr.w	r3, [r1], #8
    2252:	9109      	str	r1, [sp, #36]	@ 0x24
    2254:	2101      	movs	r1, #1
    2256:	2400      	movs	r4, #0
    2258:	f1ba 0f00 	cmp.w	sl, #0
    225c:	f88d 4067 	strb.w	r4, [sp, #103]	@ 0x67
    2260:	db07      	blt.n	2272 <_svfprintf_r+0x22a>
    2262:	f027 0080 	bic.w	r0, r7, #128	@ 0x80
    2266:	9002      	str	r0, [sp, #8]
    2268:	ea53 0002 	orrs.w	r0, r3, r2
    226c:	f000 8376 	beq.w	295c <_svfprintf_r+0x914>
    2270:	9f02      	ldr	r7, [sp, #8]
    2272:	2901      	cmp	r1, #1
    2274:	d0c0      	beq.n	21f8 <_svfprintf_r+0x1b0>
    2276:	2902      	cmp	r1, #2
    2278:	f000 82f1 	beq.w	285e <_svfprintf_r+0x816>
    227c:	ad2e      	add	r5, sp, #184	@ 0xb8
    227e:	f003 0107 	and.w	r1, r3, #7
    2282:	08db      	lsrs	r3, r3, #3
    2284:	ea43 7342 	orr.w	r3, r3, r2, lsl #29
    2288:	08d2      	lsrs	r2, r2, #3
    228a:	3130      	adds	r1, #48	@ 0x30
    228c:	ea53 0602 	orrs.w	r6, r3, r2
    2290:	4628      	mov	r0, r5
    2292:	f805 1d01 	strb.w	r1, [r5, #-1]!
    2296:	d1f2      	bne.n	227e <_svfprintf_r+0x236>
    2298:	07fb      	lsls	r3, r7, #31
    229a:	f140 82ee 	bpl.w	287a <_svfprintf_r+0x832>
    229e:	2930      	cmp	r1, #48	@ 0x30
    22a0:	f000 82eb 	beq.w	287a <_svfprintf_r+0x832>
    22a4:	2330      	movs	r3, #48	@ 0x30
    22a6:	3802      	subs	r0, #2
    22a8:	f805 3c01 	strb.w	r3, [r5, #-1]
    22ac:	ab2e      	add	r3, sp, #184	@ 0xb8
    22ae:	1a1b      	subs	r3, r3, r0
    22b0:	9702      	str	r7, [sp, #8]
    22b2:	9306      	str	r3, [sp, #24]
    22b4:	4605      	mov	r5, r0
    22b6:	9b06      	ldr	r3, [sp, #24]
    22b8:	4553      	cmp	r3, sl
    22ba:	bfb8      	it	lt
    22bc:	4653      	movlt	r3, sl
    22be:	9303      	str	r3, [sp, #12]
    22c0:	2300      	movs	r3, #0
    22c2:	930b      	str	r3, [sp, #44]	@ 0x2c
    22c4:	b114      	cbz	r4, 22cc <_svfprintf_r+0x284>
    22c6:	9b03      	ldr	r3, [sp, #12]
    22c8:	3301      	adds	r3, #1
    22ca:	9303      	str	r3, [sp, #12]
    22cc:	9b02      	ldr	r3, [sp, #8]
    22ce:	f013 0302 	ands.w	r3, r3, #2
    22d2:	d045      	beq.n	2360 <_svfprintf_r+0x318>
    22d4:	9b03      	ldr	r3, [sp, #12]
    22d6:	3302      	adds	r3, #2
    22d8:	9303      	str	r3, [sp, #12]
    22da:	2302      	movs	r3, #2
    22dc:	e040      	b.n	2360 <_svfprintf_r+0x318>
    22de:	ebb4 050b 	subs.w	r5, r4, fp
    22e2:	d01e      	beq.n	2322 <_svfprintf_r+0x2da>
    22e4:	9b23      	ldr	r3, [sp, #140]	@ 0x8c
    22e6:	442b      	add	r3, r5
    22e8:	9323      	str	r3, [sp, #140]	@ 0x8c
    22ea:	9b22      	ldr	r3, [sp, #136]	@ 0x88
    22ec:	3301      	adds	r3, #1
    22ee:	2b07      	cmp	r3, #7
    22f0:	e9c9 b500 	strd	fp, r5, [r9]
    22f4:	9322      	str	r3, [sp, #136]	@ 0x88
    22f6:	dc0b      	bgt.n	2310 <_svfprintf_r+0x2c8>
    22f8:	f109 0908 	add.w	r9, r9, #8
    22fc:	9b05      	ldr	r3, [sp, #20]
    22fe:	442b      	add	r3, r5
    2300:	9305      	str	r3, [sp, #20]
    2302:	e6d9      	b.n	20b8 <_svfprintf_r+0x70>
    2304:	f3af 8000 	nop.w
	...
    2310:	e9dd 1007 	ldrd	r1, r0, [sp, #28]
    2314:	aa21      	add	r2, sp, #132	@ 0x84
    2316:	f003 f879 	bl	540c <__ssprint_r>
    231a:	b930      	cbnz	r0, 232a <_svfprintf_r+0x2e2>
    231c:	f10d 09b8 	add.w	r9, sp, #184	@ 0xb8
    2320:	e7ec      	b.n	22fc <_svfprintf_r+0x2b4>
    2322:	9b23      	ldr	r3, [sp, #140]	@ 0x8c
    2324:	2b00      	cmp	r3, #0
    2326:	f040 873c 	bne.w	31a2 <_svfprintf_r+0x115a>
    232a:	9b07      	ldr	r3, [sp, #28]
    232c:	899b      	ldrh	r3, [r3, #12]
    232e:	065b      	lsls	r3, r3, #25
    2330:	f101 800c 	bmi.w	334c <_svfprintf_r+0x1304>
    2334:	9805      	ldr	r0, [sp, #20]
    2336:	b03f      	add	sp, #252	@ 0xfc
    2338:	e8bd 8ff0 	ldmia.w	sp!, {r4, r5, r6, r7, r8, r9, sl, fp, pc}
    233c:	f1b8 0f00 	cmp.w	r8, #0
    2340:	d0ef      	beq.n	2322 <_svfprintf_r+0x2da>
    2342:	2300      	movs	r3, #0
    2344:	f88d 3067 	strb.w	r3, [sp, #103]	@ 0x67
    2348:	2301      	movs	r3, #1
    234a:	f88d 8090 	strb.w	r8, [sp, #144]	@ 0x90
    234e:	9303      	str	r3, [sp, #12]
    2350:	9306      	str	r3, [sp, #24]
    2352:	ad24      	add	r5, sp, #144	@ 0x90
    2354:	f04f 0a00 	mov.w	sl, #0
    2358:	9702      	str	r7, [sp, #8]
    235a:	f8cd a02c 	str.w	sl, [sp, #44]	@ 0x2c
    235e:	4653      	mov	r3, sl
    2360:	9a02      	ldr	r2, [sp, #8]
    2362:	9c23      	ldr	r4, [sp, #140]	@ 0x8c
    2364:	f012 0284 	ands.w	r2, r2, #132	@ 0x84
    2368:	920a      	str	r2, [sp, #40]	@ 0x28
    236a:	d105      	bne.n	2378 <_svfprintf_r+0x330>
    236c:	e9dd 1203 	ldrd	r1, r2, [sp, #12]
    2370:	1a56      	subs	r6, r2, r1
    2372:	2e00      	cmp	r6, #0
    2374:	f300 8304 	bgt.w	2980 <_svfprintf_r+0x938>
    2378:	f89d 2067 	ldrb.w	r2, [sp, #103]	@ 0x67
    237c:	b18a      	cbz	r2, 23a2 <_svfprintf_r+0x35a>
    237e:	9a22      	ldr	r2, [sp, #136]	@ 0x88
    2380:	f10d 0167 	add.w	r1, sp, #103	@ 0x67
    2384:	3201      	adds	r2, #1
    2386:	3401      	adds	r4, #1
    2388:	f8c9 1000 	str.w	r1, [r9]
    238c:	2a07      	cmp	r2, #7
    238e:	f04f 0101 	mov.w	r1, #1
    2392:	9423      	str	r4, [sp, #140]	@ 0x8c
    2394:	9222      	str	r2, [sp, #136]	@ 0x88
    2396:	f8c9 1004 	str.w	r1, [r9, #4]
    239a:	f300 832a 	bgt.w	29f2 <_svfprintf_r+0x9aa>
    239e:	f109 0908 	add.w	r9, r9, #8
    23a2:	b183      	cbz	r3, 23c6 <_svfprintf_r+0x37e>
    23a4:	9a22      	ldr	r2, [sp, #136]	@ 0x88
    23a6:	a91a      	add	r1, sp, #104	@ 0x68
    23a8:	3201      	adds	r2, #1
    23aa:	3402      	adds	r4, #2
    23ac:	f8c9 1000 	str.w	r1, [r9]
    23b0:	2a07      	cmp	r2, #7
    23b2:	f04f 0102 	mov.w	r1, #2
    23b6:	9423      	str	r4, [sp, #140]	@ 0x8c
    23b8:	9222      	str	r2, [sp, #136]	@ 0x88
    23ba:	f8c9 1004 	str.w	r1, [r9, #4]
    23be:	f300 8326 	bgt.w	2a0e <_svfprintf_r+0x9c6>
    23c2:	f109 0908 	add.w	r9, r9, #8
    23c6:	9b0a      	ldr	r3, [sp, #40]	@ 0x28
    23c8:	2b80      	cmp	r3, #128	@ 0x80
    23ca:	f000 81bd 	beq.w	2748 <_svfprintf_r+0x700>
    23ce:	9b06      	ldr	r3, [sp, #24]
    23d0:	ebaa 0603 	sub.w	r6, sl, r3
    23d4:	2e00      	cmp	r6, #0
    23d6:	f300 81f9 	bgt.w	27cc <_svfprintf_r+0x784>
    23da:	9b02      	ldr	r3, [sp, #8]
    23dc:	05de      	lsls	r6, r3, #23
    23de:	f100 814a 	bmi.w	2676 <_svfprintf_r+0x62e>
    23e2:	9b06      	ldr	r3, [sp, #24]
    23e4:	f8c9 3004 	str.w	r3, [r9, #4]
    23e8:	441c      	add	r4, r3
    23ea:	9b22      	ldr	r3, [sp, #136]	@ 0x88
    23ec:	f8c9 5000 	str.w	r5, [r9]
    23f0:	3301      	adds	r3, #1
    23f2:	2b07      	cmp	r3, #7
    23f4:	9423      	str	r4, [sp, #140]	@ 0x8c
    23f6:	9322      	str	r3, [sp, #136]	@ 0x88
    23f8:	f300 8258 	bgt.w	28ac <_svfprintf_r+0x864>
    23fc:	f109 0908 	add.w	r9, r9, #8
    2400:	9b02      	ldr	r3, [sp, #8]
    2402:	075a      	lsls	r2, r3, #29
    2404:	d505      	bpl.n	2412 <_svfprintf_r+0x3ca>
    2406:	e9dd 2303 	ldrd	r2, r3, [sp, #12]
    240a:	1a9d      	subs	r5, r3, r2
    240c:	2d00      	cmp	r5, #0
    240e:	f300 830a 	bgt.w	2a26 <_svfprintf_r+0x9de>
    2412:	e9dd 2304 	ldrd	r2, r3, [sp, #16]
    2416:	9903      	ldr	r1, [sp, #12]
    2418:	428a      	cmp	r2, r1
    241a:	bfac      	ite	ge
    241c:	189b      	addge	r3, r3, r2
    241e:	185b      	addlt	r3, r3, r1
    2420:	9305      	str	r3, [sp, #20]
    2422:	2c00      	cmp	r4, #0
    2424:	f040 822e 	bne.w	2884 <_svfprintf_r+0x83c>
    2428:	2300      	movs	r3, #0
    242a:	9322      	str	r3, [sp, #136]	@ 0x88
    242c:	f10d 09b8 	add.w	r9, sp, #184	@ 0xb8
    2430:	e630      	b.n	2094 <_svfprintf_r+0x4c>
    2432:	9b09      	ldr	r3, [sp, #36]	@ 0x24
    2434:	3307      	adds	r3, #7
    2436:	f023 0307 	bic.w	r3, r3, #7
    243a:	ecb3 7b02 	vldmia	r3!, {d7}
    243e:	ec55 4b17 	vmov	r4, r5, d7
    2442:	9309      	str	r3, [sp, #36]	@ 0x24
    2444:	f025 4300 	bic.w	r3, r5, #2147483648	@ 0x80000000
    2448:	9315      	str	r3, [sp, #84]	@ 0x54
    244a:	ed8d 7a14 	vstr	s14, [sp, #80]	@ 0x50
    244e:	e9dd 0114 	ldrd	r0, r1, [sp, #80]	@ 0x50
    2452:	4bb7      	ldr	r3, [pc, #732]	@ (2730 <_svfprintf_r+0x6e8>)
    2454:	f04f 32ff 	mov.w	r2, #4294967295	@ 0xffffffff
    2458:	ed8d 7b0c 	vstr	d7, [sp, #48]	@ 0x30
    245c:	f006 f9a6 	bl	87ac <__aeabi_dcmpun>
    2460:	2800      	cmp	r0, #0
    2462:	f040 8410 	bne.w	2c86 <_svfprintf_r+0xc3e>
    2466:	e9dd 0114 	ldrd	r0, r1, [sp, #80]	@ 0x50
    246a:	4bb1      	ldr	r3, [pc, #708]	@ (2730 <_svfprintf_r+0x6e8>)
    246c:	f04f 32ff 	mov.w	r2, #4294967295	@ 0xffffffff
    2470:	f006 f97e 	bl	8770 <__aeabi_dcmple>
    2474:	2800      	cmp	r0, #0
    2476:	f040 8406 	bne.w	2c86 <_svfprintf_r+0xc3e>
    247a:	2200      	movs	r2, #0
    247c:	2300      	movs	r3, #0
    247e:	4620      	mov	r0, r4
    2480:	4629      	mov	r1, r5
    2482:	f006 f96b 	bl	875c <__aeabi_dcmplt>
    2486:	2800      	cmp	r0, #0
    2488:	f040 8625 	bne.w	30d6 <_svfprintf_r+0x108e>
    248c:	f89d 4067 	ldrb.w	r4, [sp, #103]	@ 0x67
    2490:	4da8      	ldr	r5, [pc, #672]	@ (2734 <_svfprintf_r+0x6ec>)
    2492:	f027 0380 	bic.w	r3, r7, #128	@ 0x80
    2496:	9302      	str	r3, [sp, #8]
    2498:	4ba7      	ldr	r3, [pc, #668]	@ (2738 <_svfprintf_r+0x6f0>)
    249a:	f1b8 0f47 	cmp.w	r8, #71	@ 0x47
    249e:	bfd8      	it	le
    24a0:	461d      	movle	r5, r3
    24a2:	f04f 0a00 	mov.w	sl, #0
    24a6:	2303      	movs	r3, #3
    24a8:	9303      	str	r3, [sp, #12]
    24aa:	9306      	str	r3, [sp, #24]
    24ac:	f8cd a02c 	str.w	sl, [sp, #44]	@ 0x2c
    24b0:	e708      	b.n	22c4 <_svfprintf_r+0x27c>
    24b2:	9a09      	ldr	r2, [sp, #36]	@ 0x24
    24b4:	06fc      	lsls	r4, r7, #27
    24b6:	f852 3b04 	ldr.w	r3, [r2], #4
    24ba:	9209      	str	r2, [sp, #36]	@ 0x24
    24bc:	d41f      	bmi.n	24fe <_svfprintf_r+0x4b6>
    24be:	0678      	lsls	r0, r7, #25
    24c0:	d51d      	bpl.n	24fe <_svfprintf_r+0x4b6>
    24c2:	f343 32c0 	sbfx	r2, r3, #15, #1
    24c6:	4611      	mov	r1, r2
    24c8:	b21b      	sxth	r3, r3
    24ca:	e685      	b.n	21d8 <_svfprintf_r+0x190>
    24cc:	9909      	ldr	r1, [sp, #36]	@ 0x24
    24ce:	f851 3b04 	ldr.w	r3, [r1], #4
    24d2:	9109      	str	r1, [sp, #36]	@ 0x24
    24d4:	f017 0110 	ands.w	r1, r7, #16
    24d8:	f000 83cd 	beq.w	2c76 <_svfprintf_r+0xc2e>
    24dc:	2101      	movs	r1, #1
    24de:	e6ba      	b.n	2256 <_svfprintf_r+0x20e>
    24e0:	9909      	ldr	r1, [sp, #36]	@ 0x24
    24e2:	f851 3b04 	ldr.w	r3, [r1], #4
    24e6:	9109      	str	r1, [sp, #36]	@ 0x24
    24e8:	f017 0110 	ands.w	r1, r7, #16
    24ec:	f47f aea1 	bne.w	2232 <_svfprintf_r+0x1ea>
    24f0:	f017 0240 	ands.w	r2, r7, #64	@ 0x40
    24f4:	f43f ae9d 	beq.w	2232 <_svfprintf_r+0x1ea>
    24f8:	460a      	mov	r2, r1
    24fa:	b29b      	uxth	r3, r3
    24fc:	e699      	b.n	2232 <_svfprintf_r+0x1ea>
    24fe:	17da      	asrs	r2, r3, #31
    2500:	4611      	mov	r1, r2
    2502:	2900      	cmp	r1, #0
    2504:	f6bf ae6b 	bge.w	21de <_svfprintf_r+0x196>
    2508:	425b      	negs	r3, r3
    250a:	eb62 0242 	sbc.w	r2, r2, r2, lsl #1
    250e:	242d      	movs	r4, #45	@ 0x2d
    2510:	2101      	movs	r1, #1
    2512:	e6a1      	b.n	2258 <_svfprintf_r+0x210>
    2514:	9b09      	ldr	r3, [sp, #36]	@ 0x24
    2516:	f853 2b04 	ldr.w	r2, [r3], #4
    251a:	9204      	str	r2, [sp, #16]
    251c:	2a00      	cmp	r2, #0
    251e:	f280 83a2 	bge.w	2c66 <_svfprintf_r+0xc1e>
    2522:	9a04      	ldr	r2, [sp, #16]
    2524:	9309      	str	r3, [sp, #36]	@ 0x24
    2526:	4252      	negs	r2, r2
    2528:	9204      	str	r2, [sp, #16]
    252a:	f89b 3000 	ldrb.w	r3, [fp]
    252e:	f047 0704 	orr.w	r7, r7, #4
    2532:	e5d0      	b.n	20d6 <_svfprintf_r+0x8e>
    2534:	465a      	mov	r2, fp
    2536:	f812 8b01 	ldrb.w	r8, [r2], #1
    253a:	f1b8 0f2a 	cmp.w	r8, #42	@ 0x2a
    253e:	f000 874e 	beq.w	33de <_svfprintf_r+0x1396>
    2542:	f1a8 0330 	sub.w	r3, r8, #48	@ 0x30
    2546:	2b09      	cmp	r3, #9
    2548:	bf98      	it	ls
    254a:	f04f 0a00 	movls.w	sl, #0
    254e:	f200 86b9 	bhi.w	32c4 <_svfprintf_r+0x127c>
    2552:	f812 8b01 	ldrb.w	r8, [r2], #1
    2556:	eb0a 0a8a 	add.w	sl, sl, sl, lsl #2
    255a:	eb03 0a4a 	add.w	sl, r3, sl, lsl #1
    255e:	f1a8 0330 	sub.w	r3, r8, #48	@ 0x30
    2562:	2b09      	cmp	r3, #9
    2564:	d9f5      	bls.n	2552 <_svfprintf_r+0x50a>
    2566:	ea4a 7aea 	orr.w	sl, sl, sl, asr #31
    256a:	4693      	mov	fp, r2
    256c:	e5b6      	b.n	20dc <_svfprintf_r+0x94>
    256e:	f89b 3000 	ldrb.w	r3, [fp]
    2572:	f047 0780 	orr.w	r7, r7, #128	@ 0x80
    2576:	e5ae      	b.n	20d6 <_svfprintf_r+0x8e>
    2578:	232b      	movs	r3, #43	@ 0x2b
    257a:	f88d 3067 	strb.w	r3, [sp, #103]	@ 0x67
    257e:	f89b 3000 	ldrb.w	r3, [fp]
    2582:	e5a8      	b.n	20d6 <_svfprintf_r+0x8e>
    2584:	f89b 3000 	ldrb.w	r3, [fp]
    2588:	f047 0701 	orr.w	r7, r7, #1
    258c:	e5a3      	b.n	20d6 <_svfprintf_r+0x8e>
    258e:	f89d 2067 	ldrb.w	r2, [sp, #103]	@ 0x67
    2592:	f89b 3000 	ldrb.w	r3, [fp]
    2596:	2a00      	cmp	r2, #0
    2598:	f47f ad9d 	bne.w	20d6 <_svfprintf_r+0x8e>
    259c:	2220      	movs	r2, #32
    259e:	f88d 2067 	strb.w	r2, [sp, #103]	@ 0x67
    25a2:	e598      	b.n	20d6 <_svfprintf_r+0x8e>
    25a4:	f89b 3000 	ldrb.w	r3, [fp]
    25a8:	2b6c      	cmp	r3, #108	@ 0x6c
    25aa:	bf03      	ittte	eq
    25ac:	f89b 3001 	ldrbeq.w	r3, [fp, #1]
    25b0:	f047 0720 	orreq.w	r7, r7, #32
    25b4:	f10b 0b01 	addeq.w	fp, fp, #1
    25b8:	f047 0710 	orrne.w	r7, r7, #16
    25bc:	e58b      	b.n	20d6 <_svfprintf_r+0x8e>
    25be:	f89b 3000 	ldrb.w	r3, [fp]
    25c2:	f047 0740 	orr.w	r7, r7, #64	@ 0x40
    25c6:	e586      	b.n	20d6 <_svfprintf_r+0x8e>
    25c8:	9b09      	ldr	r3, [sp, #36]	@ 0x24
    25ca:	2200      	movs	r2, #0
    25cc:	f88d 2067 	strb.w	r2, [sp, #103]	@ 0x67
    25d0:	f853 2b04 	ldr.w	r2, [r3], #4
    25d4:	9309      	str	r3, [sp, #36]	@ 0x24
    25d6:	2301      	movs	r3, #1
    25d8:	f88d 2090 	strb.w	r2, [sp, #144]	@ 0x90
    25dc:	9303      	str	r3, [sp, #12]
    25de:	9306      	str	r3, [sp, #24]
    25e0:	ad24      	add	r5, sp, #144	@ 0x90
    25e2:	e6b7      	b.n	2354 <_svfprintf_r+0x30c>
    25e4:	f89b 3000 	ldrb.w	r3, [fp]
    25e8:	f047 0708 	orr.w	r7, r7, #8
    25ec:	e573      	b.n	20d6 <_svfprintf_r+0x8e>
    25ee:	9c09      	ldr	r4, [sp, #36]	@ 0x24
    25f0:	f854 5b04 	ldr.w	r5, [r4], #4
    25f4:	2600      	movs	r6, #0
    25f6:	f88d 6067 	strb.w	r6, [sp, #103]	@ 0x67
    25fa:	2d00      	cmp	r5, #0
    25fc:	f000 8512 	beq.w	3024 <_svfprintf_r+0xfdc>
    2600:	f1ba 0f00 	cmp.w	sl, #0
    2604:	f2c0 841a 	blt.w	2e3c <_svfprintf_r+0xdf4>
    2608:	4652      	mov	r2, sl
    260a:	4631      	mov	r1, r6
    260c:	4628      	mov	r0, r5
    260e:	f003 fd9f 	bl	6150 <memchr>
    2612:	2800      	cmp	r0, #0
    2614:	f000 8645 	beq.w	32a2 <_svfprintf_r+0x125a>
    2618:	1b43      	subs	r3, r0, r5
    261a:	9306      	str	r3, [sp, #24]
    261c:	ea23 73e3 	bic.w	r3, r3, r3, asr #31
    2620:	9409      	str	r4, [sp, #36]	@ 0x24
    2622:	46b2      	mov	sl, r6
    2624:	f89d 4067 	ldrb.w	r4, [sp, #103]	@ 0x67
    2628:	9702      	str	r7, [sp, #8]
    262a:	9303      	str	r3, [sp, #12]
    262c:	960b      	str	r6, [sp, #44]	@ 0x2c
    262e:	e649      	b.n	22c4 <_svfprintf_r+0x27c>
    2630:	f89b 3000 	ldrb.w	r3, [fp]
    2634:	f047 0720 	orr.w	r7, r7, #32
    2638:	e54d      	b.n	20d6 <_svfprintf_r+0x8e>
    263a:	9a09      	ldr	r2, [sp, #36]	@ 0x24
    263c:	f852 3b04 	ldr.w	r3, [r2], #4
    2640:	9209      	str	r2, [sp, #36]	@ 0x24
    2642:	f647 0230 	movw	r2, #30768	@ 0x7830
    2646:	f8ad 2068 	strh.w	r2, [sp, #104]	@ 0x68
    264a:	4a3c      	ldr	r2, [pc, #240]	@ (273c <_svfprintf_r+0x6f4>)
    264c:	9211      	str	r2, [sp, #68]	@ 0x44
    264e:	f047 0702 	orr.w	r7, r7, #2
    2652:	2200      	movs	r2, #0
    2654:	2102      	movs	r1, #2
    2656:	f04f 0878 	mov.w	r8, #120	@ 0x78
    265a:	e5fc      	b.n	2256 <_svfprintf_r+0x20e>
    265c:	06bd      	lsls	r5, r7, #26
    265e:	f140 8381 	bpl.w	2d64 <_svfprintf_r+0xd1c>
    2662:	9b09      	ldr	r3, [sp, #36]	@ 0x24
    2664:	9a05      	ldr	r2, [sp, #20]
    2666:	681b      	ldr	r3, [r3, #0]
    2668:	601a      	str	r2, [r3, #0]
    266a:	17d2      	asrs	r2, r2, #31
    266c:	605a      	str	r2, [r3, #4]
    266e:	9b09      	ldr	r3, [sp, #36]	@ 0x24
    2670:	3304      	adds	r3, #4
    2672:	9309      	str	r3, [sp, #36]	@ 0x24
    2674:	e50e      	b.n	2094 <_svfprintf_r+0x4c>
    2676:	f1b8 0f65 	cmp.w	r8, #101	@ 0x65
    267a:	f340 8123 	ble.w	28c4 <_svfprintf_r+0x87c>
    267e:	e9dd 010c 	ldrd	r0, r1, [sp, #48]	@ 0x30
    2682:	2200      	movs	r2, #0
    2684:	2300      	movs	r3, #0
    2686:	f006 f85f 	bl	8748 <__aeabi_dcmpeq>
    268a:	2800      	cmp	r0, #0
    268c:	f000 8207 	beq.w	2a9e <_svfprintf_r+0xa56>
    2690:	9b22      	ldr	r3, [sp, #136]	@ 0x88
    2692:	4a2b      	ldr	r2, [pc, #172]	@ (2740 <_svfprintf_r+0x6f8>)
    2694:	f8c9 2000 	str.w	r2, [r9]
    2698:	3301      	adds	r3, #1
    269a:	3401      	adds	r4, #1
    269c:	2201      	movs	r2, #1
    269e:	2b07      	cmp	r3, #7
    26a0:	9423      	str	r4, [sp, #140]	@ 0x8c
    26a2:	9322      	str	r3, [sp, #136]	@ 0x88
    26a4:	f8c9 2004 	str.w	r2, [r9, #4]
    26a8:	f300 8495 	bgt.w	2fd6 <_svfprintf_r+0xf8e>
    26ac:	f109 0908 	add.w	r9, r9, #8
    26b0:	9b1b      	ldr	r3, [sp, #108]	@ 0x6c
    26b2:	9a0e      	ldr	r2, [sp, #56]	@ 0x38
    26b4:	4293      	cmp	r3, r2
    26b6:	db03      	blt.n	26c0 <_svfprintf_r+0x678>
    26b8:	9b02      	ldr	r3, [sp, #8]
    26ba:	07dd      	lsls	r5, r3, #31
    26bc:	f57f aea0 	bpl.w	2400 <_svfprintf_r+0x3b8>
    26c0:	9b0f      	ldr	r3, [sp, #60]	@ 0x3c
    26c2:	9a10      	ldr	r2, [sp, #64]	@ 0x40
    26c4:	441c      	add	r4, r3
    26c6:	e9c9 2300 	strd	r2, r3, [r9]
    26ca:	9b22      	ldr	r3, [sp, #136]	@ 0x88
    26cc:	9423      	str	r4, [sp, #140]	@ 0x8c
    26ce:	3301      	adds	r3, #1
    26d0:	2b07      	cmp	r3, #7
    26d2:	9322      	str	r3, [sp, #136]	@ 0x88
    26d4:	f300 8499 	bgt.w	300a <_svfprintf_r+0xfc2>
    26d8:	f109 0908 	add.w	r9, r9, #8
    26dc:	9b0e      	ldr	r3, [sp, #56]	@ 0x38
    26de:	1e5d      	subs	r5, r3, #1
    26e0:	2d00      	cmp	r5, #0
    26e2:	f77f ae8d 	ble.w	2400 <_svfprintf_r+0x3b8>
    26e6:	2d10      	cmp	r5, #16
    26e8:	9b22      	ldr	r3, [sp, #136]	@ 0x88
    26ea:	4f16      	ldr	r7, [pc, #88]	@ (2744 <_svfprintf_r+0x6fc>)
    26ec:	f340 80d3 	ble.w	2896 <_svfprintf_r+0x84e>
    26f0:	e9dd a807 	ldrd	sl, r8, [sp, #28]
    26f4:	2610      	movs	r6, #16
    26f6:	e005      	b.n	2704 <_svfprintf_r+0x6bc>
    26f8:	f109 0908 	add.w	r9, r9, #8
    26fc:	3d10      	subs	r5, #16
    26fe:	2d10      	cmp	r5, #16
    2700:	f340 80c9 	ble.w	2896 <_svfprintf_r+0x84e>
    2704:	3301      	adds	r3, #1
    2706:	3410      	adds	r4, #16
    2708:	2b07      	cmp	r3, #7
    270a:	e9c9 7600 	strd	r7, r6, [r9]
    270e:	e9cd 3422 	strd	r3, r4, [sp, #136]	@ 0x88
    2712:	ddf1      	ble.n	26f8 <_svfprintf_r+0x6b0>
    2714:	aa21      	add	r2, sp, #132	@ 0x84
    2716:	4651      	mov	r1, sl
    2718:	4640      	mov	r0, r8
    271a:	f002 fe77 	bl	540c <__ssprint_r>
    271e:	2800      	cmp	r0, #0
    2720:	f47f ae03 	bne.w	232a <_svfprintf_r+0x2e2>
    2724:	e9dd 3422 	ldrd	r3, r4, [sp, #136]	@ 0x88
    2728:	f10d 09b8 	add.w	r9, sp, #184	@ 0xb8
    272c:	e7e6      	b.n	26fc <_svfprintf_r+0x6b4>
    272e:	bf00      	nop
    2730:	7fefffff 	.word	0x7fefffff
    2734:	000096d0 	.word	0x000096d0
    2738:	000096cc 	.word	0x000096cc
    273c:	000096f0 	.word	0x000096f0
    2740:	0000970c 	.word	0x0000970c
    2744:	000097f0 	.word	0x000097f0
    2748:	e9dd 2303 	ldrd	r2, r3, [sp, #12]
    274c:	1a9e      	subs	r6, r3, r2
    274e:	2e00      	cmp	r6, #0
    2750:	f77f ae3d 	ble.w	23ce <_svfprintf_r+0x386>
    2754:	2e10      	cmp	r6, #16
    2756:	9b22      	ldr	r3, [sp, #136]	@ 0x88
    2758:	4fb7      	ldr	r7, [pc, #732]	@ (2a38 <_svfprintf_r+0x9f0>)
    275a:	dd24      	ble.n	27a6 <_svfprintf_r+0x75e>
    275c:	464a      	mov	r2, r9
    275e:	4621      	mov	r1, r4
    2760:	46a9      	mov	r9, r5
    2762:	e9dd 5407 	ldrd	r5, r4, [sp, #28]
    2766:	e004      	b.n	2772 <_svfprintf_r+0x72a>
    2768:	3e10      	subs	r6, #16
    276a:	2e10      	cmp	r6, #16
    276c:	f102 0208 	add.w	r2, r2, #8
    2770:	dd16      	ble.n	27a0 <_svfprintf_r+0x758>
    2772:	3301      	adds	r3, #1
    2774:	3110      	adds	r1, #16
    2776:	2010      	movs	r0, #16
    2778:	2b07      	cmp	r3, #7
    277a:	e9cd 3122 	strd	r3, r1, [sp, #136]	@ 0x88
    277e:	6017      	str	r7, [r2, #0]
    2780:	6050      	str	r0, [r2, #4]
    2782:	ddf1      	ble.n	2768 <_svfprintf_r+0x720>
    2784:	aa21      	add	r2, sp, #132	@ 0x84
    2786:	4629      	mov	r1, r5
    2788:	4620      	mov	r0, r4
    278a:	f002 fe3f 	bl	540c <__ssprint_r>
    278e:	2800      	cmp	r0, #0
    2790:	f47f adcb 	bne.w	232a <_svfprintf_r+0x2e2>
    2794:	3e10      	subs	r6, #16
    2796:	2e10      	cmp	r6, #16
    2798:	e9dd 3122 	ldrd	r3, r1, [sp, #136]	@ 0x88
    279c:	aa2e      	add	r2, sp, #184	@ 0xb8
    279e:	dce8      	bgt.n	2772 <_svfprintf_r+0x72a>
    27a0:	464d      	mov	r5, r9
    27a2:	460c      	mov	r4, r1
    27a4:	4691      	mov	r9, r2
    27a6:	3301      	adds	r3, #1
    27a8:	4434      	add	r4, r6
    27aa:	2b07      	cmp	r3, #7
    27ac:	e9cd 3422 	strd	r3, r4, [sp, #136]	@ 0x88
    27b0:	f8c9 7000 	str.w	r7, [r9]
    27b4:	f8c9 6004 	str.w	r6, [r9, #4]
    27b8:	f300 841a 	bgt.w	2ff0 <_svfprintf_r+0xfa8>
    27bc:	9b06      	ldr	r3, [sp, #24]
    27be:	ebaa 0603 	sub.w	r6, sl, r3
    27c2:	2e00      	cmp	r6, #0
    27c4:	f109 0908 	add.w	r9, r9, #8
    27c8:	f77f ae07 	ble.w	23da <_svfprintf_r+0x392>
    27cc:	2e10      	cmp	r6, #16
    27ce:	9b22      	ldr	r3, [sp, #136]	@ 0x88
    27d0:	4f99      	ldr	r7, [pc, #612]	@ (2a38 <_svfprintf_r+0x9f0>)
    27d2:	dd2c      	ble.n	282e <_svfprintf_r+0x7e6>
    27d4:	464a      	mov	r2, r9
    27d6:	4621      	mov	r1, r4
    27d8:	46b1      	mov	r9, r6
    27da:	f04f 0a10 	mov.w	sl, #16
    27de:	462e      	mov	r6, r5
    27e0:	e9dd 5407 	ldrd	r5, r4, [sp, #28]
    27e4:	e006      	b.n	27f4 <_svfprintf_r+0x7ac>
    27e6:	f1a9 0910 	sub.w	r9, r9, #16
    27ea:	f1b9 0f10 	cmp.w	r9, #16
    27ee:	f102 0208 	add.w	r2, r2, #8
    27f2:	dd18      	ble.n	2826 <_svfprintf_r+0x7de>
    27f4:	3301      	adds	r3, #1
    27f6:	4890      	ldr	r0, [pc, #576]	@ (2a38 <_svfprintf_r+0x9f0>)
    27f8:	3110      	adds	r1, #16
    27fa:	2b07      	cmp	r3, #7
    27fc:	e9c2 0a00 	strd	r0, sl, [r2]
    2800:	e9cd 3122 	strd	r3, r1, [sp, #136]	@ 0x88
    2804:	ddef      	ble.n	27e6 <_svfprintf_r+0x79e>
    2806:	aa21      	add	r2, sp, #132	@ 0x84
    2808:	4629      	mov	r1, r5
    280a:	4620      	mov	r0, r4
    280c:	f002 fdfe 	bl	540c <__ssprint_r>
    2810:	2800      	cmp	r0, #0
    2812:	f47f ad8a 	bne.w	232a <_svfprintf_r+0x2e2>
    2816:	f1a9 0910 	sub.w	r9, r9, #16
    281a:	f1b9 0f10 	cmp.w	r9, #16
    281e:	e9dd 3122 	ldrd	r3, r1, [sp, #136]	@ 0x88
    2822:	aa2e      	add	r2, sp, #184	@ 0xb8
    2824:	dce6      	bgt.n	27f4 <_svfprintf_r+0x7ac>
    2826:	4635      	mov	r5, r6
    2828:	460c      	mov	r4, r1
    282a:	464e      	mov	r6, r9
    282c:	4691      	mov	r9, r2
    282e:	3301      	adds	r3, #1
    2830:	4434      	add	r4, r6
    2832:	2b07      	cmp	r3, #7
    2834:	e9cd 3422 	strd	r3, r4, [sp, #136]	@ 0x88
    2838:	f8c9 7000 	str.w	r7, [r9]
    283c:	f8c9 6004 	str.w	r6, [r9, #4]
    2840:	f300 81ea 	bgt.w	2c18 <_svfprintf_r+0xbd0>
    2844:	f109 0908 	add.w	r9, r9, #8
    2848:	e5c7      	b.n	23da <_svfprintf_r+0x392>
    284a:	2901      	cmp	r1, #1
    284c:	9f02      	ldr	r7, [sp, #8]
    284e:	f04f 0300 	mov.w	r3, #0
    2852:	f43f acd6 	beq.w	2202 <_svfprintf_r+0x1ba>
    2856:	2902      	cmp	r1, #2
    2858:	461a      	mov	r2, r3
    285a:	f47f ad0f 	bne.w	227c <_svfprintf_r+0x234>
    285e:	9811      	ldr	r0, [sp, #68]	@ 0x44
    2860:	ad2e      	add	r5, sp, #184	@ 0xb8
    2862:	f003 010f 	and.w	r1, r3, #15
    2866:	091b      	lsrs	r3, r3, #4
    2868:	5c41      	ldrb	r1, [r0, r1]
    286a:	f805 1d01 	strb.w	r1, [r5, #-1]!
    286e:	ea43 7302 	orr.w	r3, r3, r2, lsl #28
    2872:	0912      	lsrs	r2, r2, #4
    2874:	ea53 0102 	orrs.w	r1, r3, r2
    2878:	d1f3      	bne.n	2862 <_svfprintf_r+0x81a>
    287a:	ab2e      	add	r3, sp, #184	@ 0xb8
    287c:	1b5b      	subs	r3, r3, r5
    287e:	9702      	str	r7, [sp, #8]
    2880:	9306      	str	r3, [sp, #24]
    2882:	e518      	b.n	22b6 <_svfprintf_r+0x26e>
    2884:	e9dd 1007 	ldrd	r1, r0, [sp, #28]
    2888:	aa21      	add	r2, sp, #132	@ 0x84
    288a:	f002 fdbf 	bl	540c <__ssprint_r>
    288e:	2800      	cmp	r0, #0
    2890:	f43f adca 	beq.w	2428 <_svfprintf_r+0x3e0>
    2894:	e549      	b.n	232a <_svfprintf_r+0x2e2>
    2896:	3301      	adds	r3, #1
    2898:	442c      	add	r4, r5
    289a:	2b07      	cmp	r3, #7
    289c:	f8c9 7000 	str.w	r7, [r9]
    28a0:	f8c9 5004 	str.w	r5, [r9, #4]
    28a4:	e9cd 3422 	strd	r3, r4, [sp, #136]	@ 0x88
    28a8:	f77f ada8 	ble.w	23fc <_svfprintf_r+0x3b4>
    28ac:	e9dd 1007 	ldrd	r1, r0, [sp, #28]
    28b0:	aa21      	add	r2, sp, #132	@ 0x84
    28b2:	f002 fdab 	bl	540c <__ssprint_r>
    28b6:	2800      	cmp	r0, #0
    28b8:	f47f ad37 	bne.w	232a <_svfprintf_r+0x2e2>
    28bc:	9c23      	ldr	r4, [sp, #140]	@ 0x8c
    28be:	f10d 09b8 	add.w	r9, sp, #184	@ 0xb8
    28c2:	e59d      	b.n	2400 <_svfprintf_r+0x3b8>
    28c4:	9b0e      	ldr	r3, [sp, #56]	@ 0x38
    28c6:	9e22      	ldr	r6, [sp, #136]	@ 0x88
    28c8:	2b01      	cmp	r3, #1
    28ca:	f104 0401 	add.w	r4, r4, #1
    28ce:	f106 0601 	add.w	r6, r6, #1
    28d2:	f109 0808 	add.w	r8, r9, #8
    28d6:	f340 815b 	ble.w	2b90 <_svfprintf_r+0xb48>
    28da:	2301      	movs	r3, #1
    28dc:	2e07      	cmp	r6, #7
    28de:	e9cd 6422 	strd	r6, r4, [sp, #136]	@ 0x88
    28e2:	f8c9 5000 	str.w	r5, [r9]
    28e6:	f8c9 3004 	str.w	r3, [r9, #4]
    28ea:	f300 81a2 	bgt.w	2c32 <_svfprintf_r+0xbea>
    28ee:	9b0f      	ldr	r3, [sp, #60]	@ 0x3c
    28f0:	9a10      	ldr	r2, [sp, #64]	@ 0x40
    28f2:	3601      	adds	r6, #1
    28f4:	441c      	add	r4, r3
    28f6:	2e07      	cmp	r6, #7
    28f8:	e9c8 2300 	strd	r2, r3, [r8]
    28fc:	e9cd 6422 	strd	r6, r4, [sp, #136]	@ 0x88
    2900:	f300 81a4 	bgt.w	2c4c <_svfprintf_r+0xc04>
    2904:	f108 0808 	add.w	r8, r8, #8
    2908:	9b0e      	ldr	r3, [sp, #56]	@ 0x38
    290a:	e9dd 010c 	ldrd	r0, r1, [sp, #48]	@ 0x30
    290e:	f103 39ff 	add.w	r9, r3, #4294967295	@ 0xffffffff
    2912:	2200      	movs	r2, #0
    2914:	2300      	movs	r3, #0
    2916:	f005 ff17 	bl	8748 <__aeabi_dcmpeq>
    291a:	2800      	cmp	r0, #0
    291c:	f040 8153 	bne.w	2bc6 <_svfprintf_r+0xb7e>
    2920:	3601      	adds	r6, #1
    2922:	3501      	adds	r5, #1
    2924:	444c      	add	r4, r9
    2926:	2e07      	cmp	r6, #7
    2928:	e9cd 6422 	strd	r6, r4, [sp, #136]	@ 0x88
    292c:	f8c8 5000 	str.w	r5, [r8]
    2930:	f8c8 9004 	str.w	r9, [r8, #4]
    2934:	f300 813a 	bgt.w	2bac <_svfprintf_r+0xb64>
    2938:	f108 0808 	add.w	r8, r8, #8
    293c:	9b12      	ldr	r3, [sp, #72]	@ 0x48
    293e:	f8c8 3004 	str.w	r3, [r8, #4]
    2942:	3601      	adds	r6, #1
    2944:	441c      	add	r4, r3
    2946:	2e07      	cmp	r6, #7
    2948:	ab1d      	add	r3, sp, #116	@ 0x74
    294a:	e9cd 6422 	strd	r6, r4, [sp, #136]	@ 0x88
    294e:	f8c8 3000 	str.w	r3, [r8]
    2952:	dcab      	bgt.n	28ac <_svfprintf_r+0x864>
    2954:	f108 0908 	add.w	r9, r8, #8
    2958:	e552      	b.n	2400 <_svfprintf_r+0x3b8>
    295a:	2101      	movs	r1, #1
    295c:	f1ba 0f00 	cmp.w	sl, #0
    2960:	f47f af73 	bne.w	284a <_svfprintf_r+0x802>
    2964:	2900      	cmp	r1, #0
    2966:	f040 810e 	bne.w	2b86 <_svfprintf_r+0xb3e>
    296a:	f017 0301 	ands.w	r3, r7, #1
    296e:	9306      	str	r3, [sp, #24]
    2970:	f000 817e 	beq.w	2c70 <_svfprintf_r+0xc28>
    2974:	2330      	movs	r3, #48	@ 0x30
    2976:	f88d 30b7 	strb.w	r3, [sp, #183]	@ 0xb7
    297a:	f10d 05b7 	add.w	r5, sp, #183	@ 0xb7
    297e:	e49a      	b.n	22b6 <_svfprintf_r+0x26e>
    2980:	2e10      	cmp	r6, #16
    2982:	9a22      	ldr	r2, [sp, #136]	@ 0x88
    2984:	4f2d      	ldr	r7, [pc, #180]	@ (2a3c <_svfprintf_r+0x9f4>)
    2986:	dd26      	ble.n	29d6 <_svfprintf_r+0x98e>
    2988:	4649      	mov	r1, r9
    298a:	4620      	mov	r0, r4
    298c:	46a9      	mov	r9, r5
    298e:	9313      	str	r3, [sp, #76]	@ 0x4c
    2990:	e9dd 5407 	ldrd	r5, r4, [sp, #28]
    2994:	e004      	b.n	29a0 <_svfprintf_r+0x958>
    2996:	3e10      	subs	r6, #16
    2998:	2e10      	cmp	r6, #16
    299a:	f101 0108 	add.w	r1, r1, #8
    299e:	dd16      	ble.n	29ce <_svfprintf_r+0x986>
    29a0:	3201      	adds	r2, #1
    29a2:	3010      	adds	r0, #16
    29a4:	2310      	movs	r3, #16
    29a6:	2a07      	cmp	r2, #7
    29a8:	e9cd 2022 	strd	r2, r0, [sp, #136]	@ 0x88
    29ac:	600f      	str	r7, [r1, #0]
    29ae:	604b      	str	r3, [r1, #4]
    29b0:	ddf1      	ble.n	2996 <_svfprintf_r+0x94e>
    29b2:	aa21      	add	r2, sp, #132	@ 0x84
    29b4:	4629      	mov	r1, r5
    29b6:	4620      	mov	r0, r4
    29b8:	f002 fd28 	bl	540c <__ssprint_r>
    29bc:	2800      	cmp	r0, #0
    29be:	f47f acb4 	bne.w	232a <_svfprintf_r+0x2e2>
    29c2:	3e10      	subs	r6, #16
    29c4:	2e10      	cmp	r6, #16
    29c6:	e9dd 2022 	ldrd	r2, r0, [sp, #136]	@ 0x88
    29ca:	a92e      	add	r1, sp, #184	@ 0xb8
    29cc:	dce8      	bgt.n	29a0 <_svfprintf_r+0x958>
    29ce:	9b13      	ldr	r3, [sp, #76]	@ 0x4c
    29d0:	464d      	mov	r5, r9
    29d2:	4604      	mov	r4, r0
    29d4:	4689      	mov	r9, r1
    29d6:	3201      	adds	r2, #1
    29d8:	4434      	add	r4, r6
    29da:	2a07      	cmp	r2, #7
    29dc:	e9cd 2422 	strd	r2, r4, [sp, #136]	@ 0x88
    29e0:	f8c9 7000 	str.w	r7, [r9]
    29e4:	f8c9 6004 	str.w	r6, [r9, #4]
    29e8:	f300 82b2 	bgt.w	2f50 <_svfprintf_r+0xf08>
    29ec:	f109 0908 	add.w	r9, r9, #8
    29f0:	e4c2      	b.n	2378 <_svfprintf_r+0x330>
    29f2:	e9dd 1007 	ldrd	r1, r0, [sp, #28]
    29f6:	aa21      	add	r2, sp, #132	@ 0x84
    29f8:	9313      	str	r3, [sp, #76]	@ 0x4c
    29fa:	f002 fd07 	bl	540c <__ssprint_r>
    29fe:	2800      	cmp	r0, #0
    2a00:	f47f ac93 	bne.w	232a <_svfprintf_r+0x2e2>
    2a04:	9c23      	ldr	r4, [sp, #140]	@ 0x8c
    2a06:	9b13      	ldr	r3, [sp, #76]	@ 0x4c
    2a08:	f10d 09b8 	add.w	r9, sp, #184	@ 0xb8
    2a0c:	e4c9      	b.n	23a2 <_svfprintf_r+0x35a>
    2a0e:	e9dd 1007 	ldrd	r1, r0, [sp, #28]
    2a12:	aa21      	add	r2, sp, #132	@ 0x84
    2a14:	f002 fcfa 	bl	540c <__ssprint_r>
    2a18:	2800      	cmp	r0, #0
    2a1a:	f47f ac86 	bne.w	232a <_svfprintf_r+0x2e2>
    2a1e:	9c23      	ldr	r4, [sp, #140]	@ 0x8c
    2a20:	f10d 09b8 	add.w	r9, sp, #184	@ 0xb8
    2a24:	e4cf      	b.n	23c6 <_svfprintf_r+0x37e>
    2a26:	2d10      	cmp	r5, #16
    2a28:	9b22      	ldr	r3, [sp, #136]	@ 0x88
    2a2a:	4f04      	ldr	r7, [pc, #16]	@ (2a3c <_svfprintf_r+0x9f4>)
    2a2c:	dd24      	ble.n	2a78 <_svfprintf_r+0xa30>
    2a2e:	e9dd a807 	ldrd	sl, r8, [sp, #28]
    2a32:	2610      	movs	r6, #16
    2a34:	e009      	b.n	2a4a <_svfprintf_r+0xa02>
    2a36:	bf00      	nop
    2a38:	000097f0 	.word	0x000097f0
    2a3c:	000097e0 	.word	0x000097e0
    2a40:	3d10      	subs	r5, #16
    2a42:	2d10      	cmp	r5, #16
    2a44:	f109 0908 	add.w	r9, r9, #8
    2a48:	dd16      	ble.n	2a78 <_svfprintf_r+0xa30>
    2a4a:	3301      	adds	r3, #1
    2a4c:	3410      	adds	r4, #16
    2a4e:	2b07      	cmp	r3, #7
    2a50:	e9c9 7600 	strd	r7, r6, [r9]
    2a54:	e9cd 3422 	strd	r3, r4, [sp, #136]	@ 0x88
    2a58:	ddf2      	ble.n	2a40 <_svfprintf_r+0x9f8>
    2a5a:	aa21      	add	r2, sp, #132	@ 0x84
    2a5c:	4651      	mov	r1, sl
    2a5e:	4640      	mov	r0, r8
    2a60:	f002 fcd4 	bl	540c <__ssprint_r>
    2a64:	2800      	cmp	r0, #0
    2a66:	f47f ac60 	bne.w	232a <_svfprintf_r+0x2e2>
    2a6a:	3d10      	subs	r5, #16
    2a6c:	2d10      	cmp	r5, #16
    2a6e:	e9dd 3422 	ldrd	r3, r4, [sp, #136]	@ 0x88
    2a72:	f10d 09b8 	add.w	r9, sp, #184	@ 0xb8
    2a76:	dce8      	bgt.n	2a4a <_svfprintf_r+0xa02>
    2a78:	3301      	adds	r3, #1
    2a7a:	442c      	add	r4, r5
    2a7c:	2b07      	cmp	r3, #7
    2a7e:	e9c9 7500 	strd	r7, r5, [r9]
    2a82:	e9cd 3422 	strd	r3, r4, [sp, #136]	@ 0x88
    2a86:	f77f acc4 	ble.w	2412 <_svfprintf_r+0x3ca>
    2a8a:	e9dd 1007 	ldrd	r1, r0, [sp, #28]
    2a8e:	aa21      	add	r2, sp, #132	@ 0x84
    2a90:	f002 fcbc 	bl	540c <__ssprint_r>
    2a94:	2800      	cmp	r0, #0
    2a96:	f47f ac48 	bne.w	232a <_svfprintf_r+0x2e2>
    2a9a:	9c23      	ldr	r4, [sp, #140]	@ 0x8c
    2a9c:	e4b9      	b.n	2412 <_svfprintf_r+0x3ca>
    2a9e:	991b      	ldr	r1, [sp, #108]	@ 0x6c
    2aa0:	2900      	cmp	r1, #0
    2aa2:	f340 8264 	ble.w	2f6e <_svfprintf_r+0xf26>
    2aa6:	9f0b      	ldr	r7, [sp, #44]	@ 0x2c
    2aa8:	9b0e      	ldr	r3, [sp, #56]	@ 0x38
    2aaa:	429f      	cmp	r7, r3
    2aac:	bfa8      	it	ge
    2aae:	461f      	movge	r7, r3
    2ab0:	2f00      	cmp	r7, #0
    2ab2:	dd0b      	ble.n	2acc <_svfprintf_r+0xa84>
    2ab4:	9b22      	ldr	r3, [sp, #136]	@ 0x88
    2ab6:	3301      	adds	r3, #1
    2ab8:	443c      	add	r4, r7
    2aba:	2b07      	cmp	r3, #7
    2abc:	e9c9 5700 	strd	r5, r7, [r9]
    2ac0:	9423      	str	r4, [sp, #140]	@ 0x8c
    2ac2:	9322      	str	r3, [sp, #136]	@ 0x88
    2ac4:	f300 83cf 	bgt.w	3266 <_svfprintf_r+0x121e>
    2ac8:	f109 0908 	add.w	r9, r9, #8
    2acc:	9e0b      	ldr	r6, [sp, #44]	@ 0x2c
    2ace:	2f00      	cmp	r7, #0
    2ad0:	bfa8      	it	ge
    2ad2:	1bf6      	subge	r6, r6, r7
    2ad4:	2e00      	cmp	r6, #0
    2ad6:	f300 8185 	bgt.w	2de4 <_svfprintf_r+0xd9c>
    2ada:	9b1b      	ldr	r3, [sp, #108]	@ 0x6c
    2adc:	9a0e      	ldr	r2, [sp, #56]	@ 0x38
    2ade:	4293      	cmp	r3, r2
    2ae0:	f280 816c 	bge.w	2dbc <_svfprintf_r+0xd74>
    2ae4:	9a0f      	ldr	r2, [sp, #60]	@ 0x3c
    2ae6:	9910      	ldr	r1, [sp, #64]	@ 0x40
    2ae8:	4414      	add	r4, r2
    2aea:	e9c9 1200 	strd	r1, r2, [r9]
    2aee:	9a22      	ldr	r2, [sp, #136]	@ 0x88
    2af0:	9423      	str	r4, [sp, #140]	@ 0x8c
    2af2:	3201      	adds	r2, #1
    2af4:	2a07      	cmp	r2, #7
    2af6:	9222      	str	r2, [sp, #136]	@ 0x88
    2af8:	f300 82f2 	bgt.w	30e0 <_svfprintf_r+0x1098>
    2afc:	f109 0908 	add.w	r9, r9, #8
    2b00:	9a0e      	ldr	r2, [sp, #56]	@ 0x38
    2b02:	990b      	ldr	r1, [sp, #44]	@ 0x2c
    2b04:	1ad3      	subs	r3, r2, r3
    2b06:	1a56      	subs	r6, r2, r1
    2b08:	429e      	cmp	r6, r3
    2b0a:	bfa8      	it	ge
    2b0c:	461e      	movge	r6, r3
    2b0e:	2e00      	cmp	r6, #0
    2b10:	dd0e      	ble.n	2b30 <_svfprintf_r+0xae8>
    2b12:	9a22      	ldr	r2, [sp, #136]	@ 0x88
    2b14:	f8c9 6004 	str.w	r6, [r9, #4]
    2b18:	3201      	adds	r2, #1
    2b1a:	440d      	add	r5, r1
    2b1c:	4434      	add	r4, r6
    2b1e:	2a07      	cmp	r2, #7
    2b20:	f8c9 5000 	str.w	r5, [r9]
    2b24:	9423      	str	r4, [sp, #140]	@ 0x8c
    2b26:	9222      	str	r2, [sp, #136]	@ 0x88
    2b28:	f300 83a9 	bgt.w	327e <_svfprintf_r+0x1236>
    2b2c:	f109 0908 	add.w	r9, r9, #8
    2b30:	2e00      	cmp	r6, #0
    2b32:	bfac      	ite	ge
    2b34:	1b9d      	subge	r5, r3, r6
    2b36:	461d      	movlt	r5, r3
    2b38:	2d00      	cmp	r5, #0
    2b3a:	f77f ac61 	ble.w	2400 <_svfprintf_r+0x3b8>
    2b3e:	2d10      	cmp	r5, #16
    2b40:	9b22      	ldr	r3, [sp, #136]	@ 0x88
    2b42:	4fbb      	ldr	r7, [pc, #748]	@ (2e30 <_svfprintf_r+0xde8>)
    2b44:	f77f aea7 	ble.w	2896 <_svfprintf_r+0x84e>
    2b48:	e9dd a807 	ldrd	sl, r8, [sp, #28]
    2b4c:	2610      	movs	r6, #16
    2b4e:	e005      	b.n	2b5c <_svfprintf_r+0xb14>
    2b50:	f109 0908 	add.w	r9, r9, #8
    2b54:	3d10      	subs	r5, #16
    2b56:	2d10      	cmp	r5, #16
    2b58:	f77f ae9d 	ble.w	2896 <_svfprintf_r+0x84e>
    2b5c:	3301      	adds	r3, #1
    2b5e:	3410      	adds	r4, #16
    2b60:	2b07      	cmp	r3, #7
    2b62:	e9c9 7600 	strd	r7, r6, [r9]
    2b66:	e9cd 3422 	strd	r3, r4, [sp, #136]	@ 0x88
    2b6a:	ddf1      	ble.n	2b50 <_svfprintf_r+0xb08>
    2b6c:	aa21      	add	r2, sp, #132	@ 0x84
    2b6e:	4651      	mov	r1, sl
    2b70:	4640      	mov	r0, r8
    2b72:	f002 fc4b 	bl	540c <__ssprint_r>
    2b76:	2800      	cmp	r0, #0
    2b78:	f47f abd7 	bne.w	232a <_svfprintf_r+0x2e2>
    2b7c:	e9dd 3422 	ldrd	r3, r4, [sp, #136]	@ 0x88
    2b80:	f10d 09b8 	add.w	r9, sp, #184	@ 0xb8
    2b84:	e7e6      	b.n	2b54 <_svfprintf_r+0xb0c>
    2b86:	f8cd a018 	str.w	sl, [sp, #24]
    2b8a:	ad2e      	add	r5, sp, #184	@ 0xb8
    2b8c:	f7ff bb93 	b.w	22b6 <_svfprintf_r+0x26e>
    2b90:	9b02      	ldr	r3, [sp, #8]
    2b92:	07d9      	lsls	r1, r3, #31
    2b94:	f53f aea1 	bmi.w	28da <_svfprintf_r+0x892>
    2b98:	2301      	movs	r3, #1
    2b9a:	2e07      	cmp	r6, #7
    2b9c:	e9cd 6422 	strd	r6, r4, [sp, #136]	@ 0x88
    2ba0:	f8c9 5000 	str.w	r5, [r9]
    2ba4:	f8c9 3004 	str.w	r3, [r9, #4]
    2ba8:	f77f aec8 	ble.w	293c <_svfprintf_r+0x8f4>
    2bac:	e9dd 1007 	ldrd	r1, r0, [sp, #28]
    2bb0:	aa21      	add	r2, sp, #132	@ 0x84
    2bb2:	f002 fc2b 	bl	540c <__ssprint_r>
    2bb6:	2800      	cmp	r0, #0
    2bb8:	f47f abb7 	bne.w	232a <_svfprintf_r+0x2e2>
    2bbc:	e9dd 6422 	ldrd	r6, r4, [sp, #136]	@ 0x88
    2bc0:	f10d 08b8 	add.w	r8, sp, #184	@ 0xb8
    2bc4:	e6ba      	b.n	293c <_svfprintf_r+0x8f4>
    2bc6:	9b0e      	ldr	r3, [sp, #56]	@ 0x38
    2bc8:	2b01      	cmp	r3, #1
    2bca:	f77f aeb7 	ble.w	293c <_svfprintf_r+0x8f4>
    2bce:	2b11      	cmp	r3, #17
    2bd0:	4f97      	ldr	r7, [pc, #604]	@ (2e30 <_svfprintf_r+0xde8>)
    2bd2:	f340 8265 	ble.w	30a0 <_svfprintf_r+0x1058>
    2bd6:	f8dd a020 	ldr.w	sl, [sp, #32]
    2bda:	2510      	movs	r5, #16
    2bdc:	e007      	b.n	2bee <_svfprintf_r+0xba6>
    2bde:	f108 0808 	add.w	r8, r8, #8
    2be2:	f1a9 0910 	sub.w	r9, r9, #16
    2be6:	f1b9 0f10 	cmp.w	r9, #16
    2bea:	f340 8259 	ble.w	30a0 <_svfprintf_r+0x1058>
    2bee:	3601      	adds	r6, #1
    2bf0:	3410      	adds	r4, #16
    2bf2:	2e07      	cmp	r6, #7
    2bf4:	e9c8 7500 	strd	r7, r5, [r8]
    2bf8:	e9cd 6422 	strd	r6, r4, [sp, #136]	@ 0x88
    2bfc:	ddef      	ble.n	2bde <_svfprintf_r+0xb96>
    2bfe:	9907      	ldr	r1, [sp, #28]
    2c00:	aa21      	add	r2, sp, #132	@ 0x84
    2c02:	4650      	mov	r0, sl
    2c04:	f002 fc02 	bl	540c <__ssprint_r>
    2c08:	2800      	cmp	r0, #0
    2c0a:	f47f ab8e 	bne.w	232a <_svfprintf_r+0x2e2>
    2c0e:	e9dd 6422 	ldrd	r6, r4, [sp, #136]	@ 0x88
    2c12:	f10d 08b8 	add.w	r8, sp, #184	@ 0xb8
    2c16:	e7e4      	b.n	2be2 <_svfprintf_r+0xb9a>
    2c18:	e9dd 1007 	ldrd	r1, r0, [sp, #28]
    2c1c:	aa21      	add	r2, sp, #132	@ 0x84
    2c1e:	f002 fbf5 	bl	540c <__ssprint_r>
    2c22:	2800      	cmp	r0, #0
    2c24:	f47f ab81 	bne.w	232a <_svfprintf_r+0x2e2>
    2c28:	9c23      	ldr	r4, [sp, #140]	@ 0x8c
    2c2a:	f10d 09b8 	add.w	r9, sp, #184	@ 0xb8
    2c2e:	f7ff bbd4 	b.w	23da <_svfprintf_r+0x392>
    2c32:	e9dd 1007 	ldrd	r1, r0, [sp, #28]
    2c36:	aa21      	add	r2, sp, #132	@ 0x84
    2c38:	f002 fbe8 	bl	540c <__ssprint_r>
    2c3c:	2800      	cmp	r0, #0
    2c3e:	f47f ab74 	bne.w	232a <_svfprintf_r+0x2e2>
    2c42:	e9dd 6422 	ldrd	r6, r4, [sp, #136]	@ 0x88
    2c46:	f10d 08b8 	add.w	r8, sp, #184	@ 0xb8
    2c4a:	e650      	b.n	28ee <_svfprintf_r+0x8a6>
    2c4c:	e9dd 1007 	ldrd	r1, r0, [sp, #28]
    2c50:	aa21      	add	r2, sp, #132	@ 0x84
    2c52:	f002 fbdb 	bl	540c <__ssprint_r>
    2c56:	2800      	cmp	r0, #0
    2c58:	f47f ab67 	bne.w	232a <_svfprintf_r+0x2e2>
    2c5c:	e9dd 6422 	ldrd	r6, r4, [sp, #136]	@ 0x88
    2c60:	f10d 08b8 	add.w	r8, sp, #184	@ 0xb8
    2c64:	e650      	b.n	2908 <_svfprintf_r+0x8c0>
    2c66:	9309      	str	r3, [sp, #36]	@ 0x24
    2c68:	f89b 3000 	ldrb.w	r3, [fp]
    2c6c:	f7ff ba33 	b.w	20d6 <_svfprintf_r+0x8e>
    2c70:	ad2e      	add	r5, sp, #184	@ 0xb8
    2c72:	f7ff bb20 	b.w	22b6 <_svfprintf_r+0x26e>
    2c76:	f017 0240 	ands.w	r2, r7, #64	@ 0x40
    2c7a:	bf1c      	itt	ne
    2c7c:	460a      	movne	r2, r1
    2c7e:	b29b      	uxthne	r3, r3
    2c80:	2101      	movs	r1, #1
    2c82:	f7ff bae8 	b.w	2256 <_svfprintf_r+0x20e>
    2c86:	e9dd 010c 	ldrd	r0, r1, [sp, #48]	@ 0x30
    2c8a:	4602      	mov	r2, r0
    2c8c:	460b      	mov	r3, r1
    2c8e:	f005 fd8d 	bl	87ac <__aeabi_dcmpun>
    2c92:	2800      	cmp	r0, #0
    2c94:	f040 835f 	bne.w	3356 <_svfprintf_r+0x130e>
    2c98:	f1ba 3fff 	cmp.w	sl, #4294967295	@ 0xffffffff
    2c9c:	f028 0620 	bic.w	r6, r8, #32
    2ca0:	f000 82fc 	beq.w	329c <_svfprintf_r+0x1254>
    2ca4:	2e47      	cmp	r6, #71	@ 0x47
    2ca6:	d104      	bne.n	2cb2 <_svfprintf_r+0xc6a>
    2ca8:	f1ba 0f00 	cmp.w	sl, #0
    2cac:	bf08      	it	eq
    2cae:	f04f 0a01 	moveq.w	sl, #1
    2cb2:	e9dd 010c 	ldrd	r0, r1, [sp, #48]	@ 0x30
    2cb6:	f447 7280 	orr.w	r2, r7, #256	@ 0x100
    2cba:	2900      	cmp	r1, #0
    2cbc:	9202      	str	r2, [sp, #8]
    2cbe:	f2c0 8229 	blt.w	3114 <_svfprintf_r+0x10cc>
    2cc2:	ed9d 7b0c 	vldr	d7, [sp, #48]	@ 0x30
    2cc6:	ed8d 7b16 	vstr	d7, [sp, #88]	@ 0x58
    2cca:	2300      	movs	r3, #0
    2ccc:	930a      	str	r3, [sp, #40]	@ 0x28
    2cce:	f1b8 0f65 	cmp.w	r8, #101	@ 0x65
    2cd2:	f000 82f2 	beq.w	32ba <_svfprintf_r+0x1272>
    2cd6:	f300 8224 	bgt.w	3122 <_svfprintf_r+0x10da>
    2cda:	f1b8 0f45 	cmp.w	r8, #69	@ 0x45
    2cde:	f000 82ec 	beq.w	32ba <_svfprintf_r+0x1272>
    2ce2:	ab1f      	add	r3, sp, #124	@ 0x7c
    2ce4:	9301      	str	r3, [sp, #4]
    2ce6:	ab1c      	add	r3, sp, #112	@ 0x70
    2ce8:	9300      	str	r3, [sp, #0]
    2cea:	2102      	movs	r1, #2
    2cec:	ed9d 0b16 	vldr	d0, [sp, #88]	@ 0x58
    2cf0:	9808      	ldr	r0, [sp, #32]
    2cf2:	ab1b      	add	r3, sp, #108	@ 0x6c
    2cf4:	4652      	mov	r2, sl
    2cf6:	f001 f849 	bl	3d8c <_dtoa_r>
    2cfa:	07f9      	lsls	r1, r7, #31
    2cfc:	4605      	mov	r5, r0
    2cfe:	f140 80a8 	bpl.w	2e52 <_svfprintf_r+0xe0a>
    2d02:	eb00 040a 	add.w	r4, r0, sl
    2d06:	e9dd 0116 	ldrd	r0, r1, [sp, #88]	@ 0x58
    2d0a:	2200      	movs	r2, #0
    2d0c:	2300      	movs	r3, #0
    2d0e:	f005 fd1b 	bl	8748 <__aeabi_dcmpeq>
    2d12:	2800      	cmp	r0, #0
    2d14:	f040 8225 	bne.w	3162 <_svfprintf_r+0x111a>
    2d18:	9b1f      	ldr	r3, [sp, #124]	@ 0x7c
    2d1a:	42a3      	cmp	r3, r4
    2d1c:	d206      	bcs.n	2d2c <_svfprintf_r+0xce4>
    2d1e:	2130      	movs	r1, #48	@ 0x30
    2d20:	1c5a      	adds	r2, r3, #1
    2d22:	921f      	str	r2, [sp, #124]	@ 0x7c
    2d24:	7019      	strb	r1, [r3, #0]
    2d26:	9b1f      	ldr	r3, [sp, #124]	@ 0x7c
    2d28:	429c      	cmp	r4, r3
    2d2a:	d8f9      	bhi.n	2d20 <_svfprintf_r+0xcd8>
    2d2c:	9a1b      	ldr	r2, [sp, #108]	@ 0x6c
    2d2e:	920b      	str	r2, [sp, #44]	@ 0x2c
    2d30:	1b5b      	subs	r3, r3, r5
    2d32:	2e47      	cmp	r6, #71	@ 0x47
    2d34:	930e      	str	r3, [sp, #56]	@ 0x38
    2d36:	f000 8091 	beq.w	2e5c <_svfprintf_r+0xe14>
    2d3a:	f1b8 0f66 	cmp.w	r8, #102	@ 0x66
    2d3e:	f040 8093 	bne.w	2e68 <_svfprintf_r+0xe20>
    2d42:	9a0b      	ldr	r2, [sp, #44]	@ 0x2c
    2d44:	f007 0301 	and.w	r3, r7, #1
    2d48:	2a00      	cmp	r2, #0
    2d4a:	ea43 030a 	orr.w	r3, r3, sl
    2d4e:	f340 8261 	ble.w	3214 <_svfprintf_r+0x11cc>
    2d52:	2b00      	cmp	r3, #0
    2d54:	f040 8319 	bne.w	338a <_svfprintf_r+0x1342>
    2d58:	9b0b      	ldr	r3, [sp, #44]	@ 0x2c
    2d5a:	9303      	str	r3, [sp, #12]
    2d5c:	9306      	str	r3, [sp, #24]
    2d5e:	f04f 0866 	mov.w	r8, #102	@ 0x66
    2d62:	e214      	b.n	318e <_svfprintf_r+0x1146>
    2d64:	06fc      	lsls	r4, r7, #27
    2d66:	d46f      	bmi.n	2e48 <_svfprintf_r+0xe00>
    2d68:	0678      	lsls	r0, r7, #25
    2d6a:	d56d      	bpl.n	2e48 <_svfprintf_r+0xe00>
    2d6c:	9b09      	ldr	r3, [sp, #36]	@ 0x24
    2d6e:	9a05      	ldr	r2, [sp, #20]
    2d70:	681b      	ldr	r3, [r3, #0]
    2d72:	801a      	strh	r2, [r3, #0]
    2d74:	e47b      	b.n	266e <_svfprintf_r+0x626>
    2d76:	4b2f      	ldr	r3, [pc, #188]	@ (2e34 <_svfprintf_r+0xdec>)
    2d78:	9311      	str	r3, [sp, #68]	@ 0x44
    2d7a:	f017 0220 	ands.w	r2, r7, #32
    2d7e:	f000 809f 	beq.w	2ec0 <_svfprintf_r+0xe78>
    2d82:	9b09      	ldr	r3, [sp, #36]	@ 0x24
    2d84:	3307      	adds	r3, #7
    2d86:	f023 0307 	bic.w	r3, r3, #7
    2d8a:	4619      	mov	r1, r3
    2d8c:	685a      	ldr	r2, [r3, #4]
    2d8e:	f851 3b08 	ldr.w	r3, [r1], #8
    2d92:	9109      	str	r1, [sp, #36]	@ 0x24
    2d94:	07f9      	lsls	r1, r7, #31
    2d96:	f140 8090 	bpl.w	2eba <_svfprintf_r+0xe72>
    2d9a:	ea53 0102 	orrs.w	r1, r3, r2
    2d9e:	f000 808c 	beq.w	2eba <_svfprintf_r+0xe72>
    2da2:	2130      	movs	r1, #48	@ 0x30
    2da4:	f88d 1068 	strb.w	r1, [sp, #104]	@ 0x68
    2da8:	f88d 8069 	strb.w	r8, [sp, #105]	@ 0x69
    2dac:	f047 0702 	orr.w	r7, r7, #2
    2db0:	2102      	movs	r1, #2
    2db2:	f7ff ba50 	b.w	2256 <_svfprintf_r+0x20e>
    2db6:	4b20      	ldr	r3, [pc, #128]	@ (2e38 <_svfprintf_r+0xdf0>)
    2db8:	9311      	str	r3, [sp, #68]	@ 0x44
    2dba:	e7de      	b.n	2d7a <_svfprintf_r+0xd32>
    2dbc:	9a02      	ldr	r2, [sp, #8]
    2dbe:	07d0      	lsls	r0, r2, #31
    2dc0:	f57f ae9e 	bpl.w	2b00 <_svfprintf_r+0xab8>
    2dc4:	e68e      	b.n	2ae4 <_svfprintf_r+0xa9c>
    2dc6:	9808      	ldr	r0, [sp, #32]
    2dc8:	2140      	movs	r1, #64	@ 0x40
    2dca:	f000 fc9f 	bl	370c <_malloc_r>
    2dce:	9b07      	ldr	r3, [sp, #28]
    2dd0:	6018      	str	r0, [r3, #0]
    2dd2:	6118      	str	r0, [r3, #16]
    2dd4:	2800      	cmp	r0, #0
    2dd6:	f000 82b6 	beq.w	3346 <_svfprintf_r+0x12fe>
    2dda:	9a07      	ldr	r2, [sp, #28]
    2ddc:	2340      	movs	r3, #64	@ 0x40
    2dde:	6153      	str	r3, [r2, #20]
    2de0:	f7ff b949 	b.w	2076 <_svfprintf_r+0x2e>
    2de4:	2e10      	cmp	r6, #16
    2de6:	9b22      	ldr	r3, [sp, #136]	@ 0x88
    2de8:	4f11      	ldr	r7, [pc, #68]	@ (2e30 <_svfprintf_r+0xde8>)
    2dea:	f340 8166 	ble.w	30ba <_svfprintf_r+0x1072>
    2dee:	4622      	mov	r2, r4
    2df0:	f04f 0810 	mov.w	r8, #16
    2df4:	e9dd 4a07 	ldrd	r4, sl, [sp, #28]
    2df8:	e005      	b.n	2e06 <_svfprintf_r+0xdbe>
    2dfa:	f109 0908 	add.w	r9, r9, #8
    2dfe:	3e10      	subs	r6, #16
    2e00:	2e10      	cmp	r6, #16
    2e02:	f340 8159 	ble.w	30b8 <_svfprintf_r+0x1070>
    2e06:	3301      	adds	r3, #1
    2e08:	3210      	adds	r2, #16
    2e0a:	2b07      	cmp	r3, #7
    2e0c:	e9c9 7800 	strd	r7, r8, [r9]
    2e10:	e9cd 3222 	strd	r3, r2, [sp, #136]	@ 0x88
    2e14:	ddf1      	ble.n	2dfa <_svfprintf_r+0xdb2>
    2e16:	aa21      	add	r2, sp, #132	@ 0x84
    2e18:	4621      	mov	r1, r4
    2e1a:	4650      	mov	r0, sl
    2e1c:	f002 faf6 	bl	540c <__ssprint_r>
    2e20:	2800      	cmp	r0, #0
    2e22:	f47f aa82 	bne.w	232a <_svfprintf_r+0x2e2>
    2e26:	e9dd 3222 	ldrd	r3, r2, [sp, #136]	@ 0x88
    2e2a:	f10d 09b8 	add.w	r9, sp, #184	@ 0xb8
    2e2e:	e7e6      	b.n	2dfe <_svfprintf_r+0xdb6>
    2e30:	000097f0 	.word	0x000097f0
    2e34:	000096dc 	.word	0x000096dc
    2e38:	000096f0 	.word	0x000096f0
    2e3c:	4628      	mov	r0, r5
    2e3e:	f7ff f81f 	bl	1e80 <strlen>
    2e42:	4603      	mov	r3, r0
    2e44:	f7ff bbe9 	b.w	261a <_svfprintf_r+0x5d2>
    2e48:	9b09      	ldr	r3, [sp, #36]	@ 0x24
    2e4a:	9a05      	ldr	r2, [sp, #20]
    2e4c:	681b      	ldr	r3, [r3, #0]
    2e4e:	601a      	str	r2, [r3, #0]
    2e50:	e40d      	b.n	266e <_svfprintf_r+0x626>
    2e52:	9b1f      	ldr	r3, [sp, #124]	@ 0x7c
    2e54:	1a1b      	subs	r3, r3, r0
    2e56:	930e      	str	r3, [sp, #56]	@ 0x38
    2e58:	9b1b      	ldr	r3, [sp, #108]	@ 0x6c
    2e5a:	930b      	str	r3, [sp, #44]	@ 0x2c
    2e5c:	9b0b      	ldr	r3, [sp, #44]	@ 0x2c
    2e5e:	1cda      	adds	r2, r3, #3
    2e60:	f280 8183 	bge.w	316a <_svfprintf_r+0x1122>
    2e64:	f1a8 0802 	sub.w	r8, r8, #2
    2e68:	9b0b      	ldr	r3, [sp, #44]	@ 0x2c
    2e6a:	f88d 8074 	strb.w	r8, [sp, #116]	@ 0x74
    2e6e:	1e59      	subs	r1, r3, #1
    2e70:	2900      	cmp	r1, #0
    2e72:	911b      	str	r1, [sp, #108]	@ 0x6c
    2e74:	bfb6      	itet	lt
    2e76:	f1c3 0101 	rsblt	r1, r3, #1
    2e7a:	232b      	movge	r3, #43	@ 0x2b
    2e7c:	232d      	movlt	r3, #45	@ 0x2d
    2e7e:	2909      	cmp	r1, #9
    2e80:	f88d 3075 	strb.w	r3, [sp, #117]	@ 0x75
    2e84:	f300 819c 	bgt.w	31c0 <_svfprintf_r+0x1178>
    2e88:	2330      	movs	r3, #48	@ 0x30
    2e8a:	3130      	adds	r1, #48	@ 0x30
    2e8c:	f88d 3076 	strb.w	r3, [sp, #118]	@ 0x76
    2e90:	2304      	movs	r3, #4
    2e92:	f88d 1077 	strb.w	r1, [sp, #119]	@ 0x77
    2e96:	9312      	str	r3, [sp, #72]	@ 0x48
    2e98:	9a0e      	ldr	r2, [sp, #56]	@ 0x38
    2e9a:	9b12      	ldr	r3, [sp, #72]	@ 0x48
    2e9c:	2a01      	cmp	r2, #1
    2e9e:	4413      	add	r3, r2
    2ea0:	9306      	str	r3, [sp, #24]
    2ea2:	f340 8214 	ble.w	32ce <_svfprintf_r+0x1286>
    2ea6:	9b06      	ldr	r3, [sp, #24]
    2ea8:	9a0f      	ldr	r2, [sp, #60]	@ 0x3c
    2eaa:	4413      	add	r3, r2
    2eac:	9306      	str	r3, [sp, #24]
    2eae:	ea23 73e3 	bic.w	r3, r3, r3, asr #31
    2eb2:	9303      	str	r3, [sp, #12]
    2eb4:	2300      	movs	r3, #0
    2eb6:	930b      	str	r3, [sp, #44]	@ 0x2c
    2eb8:	e169      	b.n	318e <_svfprintf_r+0x1146>
    2eba:	2102      	movs	r1, #2
    2ebc:	f7ff b9cb 	b.w	2256 <_svfprintf_r+0x20e>
    2ec0:	9909      	ldr	r1, [sp, #36]	@ 0x24
    2ec2:	f851 3b04 	ldr.w	r3, [r1], #4
    2ec6:	9109      	str	r1, [sp, #36]	@ 0x24
    2ec8:	f017 0110 	ands.w	r1, r7, #16
    2ecc:	f47f af62 	bne.w	2d94 <_svfprintf_r+0xd4c>
    2ed0:	f017 0240 	ands.w	r2, r7, #64	@ 0x40
    2ed4:	bf1c      	itt	ne
    2ed6:	b29b      	uxthne	r3, r3
    2ed8:	460a      	movne	r2, r1
    2eda:	e75b      	b.n	2d94 <_svfprintf_r+0xd4c>
    2edc:	e9cd 8702 	strd	r8, r7, [sp, #8]
    2ee0:	4eb3      	ldr	r6, [pc, #716]	@ (31b0 <_svfprintf_r+0x1168>)
    2ee2:	ad2e      	add	r5, sp, #184	@ 0xb8
    2ee4:	f04f 0e05 	mov.w	lr, #5
    2ee8:	1899      	adds	r1, r3, r2
    2eea:	f141 0100 	adc.w	r1, r1, #0
    2eee:	fba6 0701 	umull	r0, r7, r6, r1
    2ef2:	f027 0003 	bic.w	r0, r7, #3
    2ef6:	eb00 0097 	add.w	r0, r0, r7, lsr #2
    2efa:	1a09      	subs	r1, r1, r0
    2efc:	1a58      	subs	r0, r3, r1
    2efe:	4698      	mov	r8, r3
    2f00:	4694      	mov	ip, r2
    2f02:	f162 0300 	sbc.w	r3, r2, #0
    2f06:	f04f 32cc 	mov.w	r2, #3435973836	@ 0xcccccccc
    2f0a:	fb02 f200 	mul.w	r2, r2, r0
    2f0e:	fb06 2203 	mla	r2, r6, r3, r2
    2f12:	fba0 3006 	umull	r3, r0, r0, r6
    2f16:	f003 0701 	and.w	r7, r3, #1
    2f1a:	4402      	add	r2, r0
    2f1c:	fba7 070e 	umull	r0, r7, r7, lr
    2f20:	1840      	adds	r0, r0, r1
    2f22:	f1b8 0f0a 	cmp.w	r8, #10
    2f26:	ea4f 0353 	mov.w	r3, r3, lsr #1
    2f2a:	f100 0030 	add.w	r0, r0, #48	@ 0x30
    2f2e:	f17c 0c00 	sbcs.w	ip, ip, #0
    2f32:	ea43 73c2 	orr.w	r3, r3, r2, lsl #31
    2f36:	f805 0d01 	strb.w	r0, [r5, #-1]!
    2f3a:	ea4f 0252 	mov.w	r2, r2, lsr #1
    2f3e:	d2d3      	bcs.n	2ee8 <_svfprintf_r+0xea0>
    2f40:	e9dd 8702 	ldrd	r8, r7, [sp, #8]
    2f44:	ab2e      	add	r3, sp, #184	@ 0xb8
    2f46:	1b5b      	subs	r3, r3, r5
    2f48:	9702      	str	r7, [sp, #8]
    2f4a:	9306      	str	r3, [sp, #24]
    2f4c:	f7ff b9b3 	b.w	22b6 <_svfprintf_r+0x26e>
    2f50:	e9dd 1007 	ldrd	r1, r0, [sp, #28]
    2f54:	aa21      	add	r2, sp, #132	@ 0x84
    2f56:	9313      	str	r3, [sp, #76]	@ 0x4c
    2f58:	f002 fa58 	bl	540c <__ssprint_r>
    2f5c:	2800      	cmp	r0, #0
    2f5e:	f47f a9e4 	bne.w	232a <_svfprintf_r+0x2e2>
    2f62:	9c23      	ldr	r4, [sp, #140]	@ 0x8c
    2f64:	9b13      	ldr	r3, [sp, #76]	@ 0x4c
    2f66:	f10d 09b8 	add.w	r9, sp, #184	@ 0xb8
    2f6a:	f7ff ba05 	b.w	2378 <_svfprintf_r+0x330>
    2f6e:	9b22      	ldr	r3, [sp, #136]	@ 0x88
    2f70:	4a90      	ldr	r2, [pc, #576]	@ (31b4 <_svfprintf_r+0x116c>)
    2f72:	f8c9 2000 	str.w	r2, [r9]
    2f76:	3301      	adds	r3, #1
    2f78:	3401      	adds	r4, #1
    2f7a:	2201      	movs	r2, #1
    2f7c:	2b07      	cmp	r3, #7
    2f7e:	9423      	str	r4, [sp, #140]	@ 0x8c
    2f80:	9322      	str	r3, [sp, #136]	@ 0x88
    2f82:	f8c9 2004 	str.w	r2, [r9, #4]
    2f86:	f300 80b8 	bgt.w	30fa <_svfprintf_r+0x10b2>
    2f8a:	f109 0908 	add.w	r9, r9, #8
    2f8e:	2900      	cmp	r1, #0
    2f90:	d152      	bne.n	3038 <_svfprintf_r+0xff0>
    2f92:	9b02      	ldr	r3, [sp, #8]
    2f94:	9a0e      	ldr	r2, [sp, #56]	@ 0x38
    2f96:	f003 0301 	and.w	r3, r3, #1
    2f9a:	4313      	orrs	r3, r2
    2f9c:	f43f aa30 	beq.w	2400 <_svfprintf_r+0x3b8>
    2fa0:	9b0f      	ldr	r3, [sp, #60]	@ 0x3c
    2fa2:	9910      	ldr	r1, [sp, #64]	@ 0x40
    2fa4:	191a      	adds	r2, r3, r4
    2fa6:	e9c9 1300 	strd	r1, r3, [r9]
    2faa:	9b22      	ldr	r3, [sp, #136]	@ 0x88
    2fac:	9223      	str	r2, [sp, #140]	@ 0x8c
    2fae:	3301      	adds	r3, #1
    2fb0:	2b07      	cmp	r3, #7
    2fb2:	9322      	str	r3, [sp, #136]	@ 0x88
    2fb4:	f300 8137 	bgt.w	3226 <_svfprintf_r+0x11de>
    2fb8:	f109 0908 	add.w	r9, r9, #8
    2fbc:	990e      	ldr	r1, [sp, #56]	@ 0x38
    2fbe:	f8c9 5000 	str.w	r5, [r9]
    2fc2:	3301      	adds	r3, #1
    2fc4:	188c      	adds	r4, r1, r2
    2fc6:	2b07      	cmp	r3, #7
    2fc8:	e9cd 3422 	strd	r3, r4, [sp, #136]	@ 0x88
    2fcc:	f8c9 1004 	str.w	r1, [r9, #4]
    2fd0:	f77f aa14 	ble.w	23fc <_svfprintf_r+0x3b4>
    2fd4:	e46a      	b.n	28ac <_svfprintf_r+0x864>
    2fd6:	e9dd 1007 	ldrd	r1, r0, [sp, #28]
    2fda:	aa21      	add	r2, sp, #132	@ 0x84
    2fdc:	f002 fa16 	bl	540c <__ssprint_r>
    2fe0:	2800      	cmp	r0, #0
    2fe2:	f47f a9a2 	bne.w	232a <_svfprintf_r+0x2e2>
    2fe6:	9c23      	ldr	r4, [sp, #140]	@ 0x8c
    2fe8:	f10d 09b8 	add.w	r9, sp, #184	@ 0xb8
    2fec:	f7ff bb60 	b.w	26b0 <_svfprintf_r+0x668>
    2ff0:	e9dd 1007 	ldrd	r1, r0, [sp, #28]
    2ff4:	aa21      	add	r2, sp, #132	@ 0x84
    2ff6:	f002 fa09 	bl	540c <__ssprint_r>
    2ffa:	2800      	cmp	r0, #0
    2ffc:	f47f a995 	bne.w	232a <_svfprintf_r+0x2e2>
    3000:	9c23      	ldr	r4, [sp, #140]	@ 0x8c
    3002:	f10d 09b8 	add.w	r9, sp, #184	@ 0xb8
    3006:	f7ff b9e2 	b.w	23ce <_svfprintf_r+0x386>
    300a:	e9dd 1007 	ldrd	r1, r0, [sp, #28]
    300e:	aa21      	add	r2, sp, #132	@ 0x84
    3010:	f002 f9fc 	bl	540c <__ssprint_r>
    3014:	2800      	cmp	r0, #0
    3016:	f47f a988 	bne.w	232a <_svfprintf_r+0x2e2>
    301a:	9c23      	ldr	r4, [sp, #140]	@ 0x8c
    301c:	f10d 09b8 	add.w	r9, sp, #184	@ 0xb8
    3020:	f7ff bb5c 	b.w	26dc <_svfprintf_r+0x694>
    3024:	4653      	mov	r3, sl
    3026:	2b06      	cmp	r3, #6
    3028:	bf28      	it	cs
    302a:	2306      	movcs	r3, #6
    302c:	4d62      	ldr	r5, [pc, #392]	@ (31b8 <_svfprintf_r+0x1170>)
    302e:	9306      	str	r3, [sp, #24]
    3030:	9409      	str	r4, [sp, #36]	@ 0x24
    3032:	9303      	str	r3, [sp, #12]
    3034:	f7ff b98e 	b.w	2354 <_svfprintf_r+0x30c>
    3038:	9b0f      	ldr	r3, [sp, #60]	@ 0x3c
    303a:	9810      	ldr	r0, [sp, #64]	@ 0x40
    303c:	191a      	adds	r2, r3, r4
    303e:	e9c9 0300 	strd	r0, r3, [r9]
    3042:	9b22      	ldr	r3, [sp, #136]	@ 0x88
    3044:	9223      	str	r2, [sp, #140]	@ 0x8c
    3046:	3301      	adds	r3, #1
    3048:	2b07      	cmp	r3, #7
    304a:	9322      	str	r3, [sp, #136]	@ 0x88
    304c:	f300 80eb 	bgt.w	3226 <_svfprintf_r+0x11de>
    3050:	f109 0908 	add.w	r9, r9, #8
    3054:	2900      	cmp	r1, #0
    3056:	dab1      	bge.n	2fbc <_svfprintf_r+0xf74>
    3058:	424e      	negs	r6, r1
    305a:	3110      	adds	r1, #16
    305c:	4f57      	ldr	r7, [pc, #348]	@ (31bc <_svfprintf_r+0x1174>)
    305e:	f280 813f 	bge.w	32e0 <_svfprintf_r+0x1298>
    3062:	e9dd a807 	ldrd	sl, r8, [sp, #28]
    3066:	2410      	movs	r4, #16
    3068:	e005      	b.n	3076 <_svfprintf_r+0x102e>
    306a:	f109 0908 	add.w	r9, r9, #8
    306e:	3e10      	subs	r6, #16
    3070:	2e10      	cmp	r6, #16
    3072:	f340 8135 	ble.w	32e0 <_svfprintf_r+0x1298>
    3076:	3301      	adds	r3, #1
    3078:	3210      	adds	r2, #16
    307a:	2b07      	cmp	r3, #7
    307c:	e9c9 7400 	strd	r7, r4, [r9]
    3080:	e9cd 3222 	strd	r3, r2, [sp, #136]	@ 0x88
    3084:	ddf1      	ble.n	306a <_svfprintf_r+0x1022>
    3086:	aa21      	add	r2, sp, #132	@ 0x84
    3088:	4651      	mov	r1, sl
    308a:	4640      	mov	r0, r8
    308c:	f002 f9be 	bl	540c <__ssprint_r>
    3090:	2800      	cmp	r0, #0
    3092:	f47f a94a 	bne.w	232a <_svfprintf_r+0x2e2>
    3096:	e9dd 3222 	ldrd	r3, r2, [sp, #136]	@ 0x88
    309a:	f10d 09b8 	add.w	r9, sp, #184	@ 0xb8
    309e:	e7e6      	b.n	306e <_svfprintf_r+0x1026>
    30a0:	3601      	adds	r6, #1
    30a2:	444c      	add	r4, r9
    30a4:	2e07      	cmp	r6, #7
    30a6:	e9cd 6422 	strd	r6, r4, [sp, #136]	@ 0x88
    30aa:	f8c8 7000 	str.w	r7, [r8]
    30ae:	f8c8 9004 	str.w	r9, [r8, #4]
    30b2:	f77f ac41 	ble.w	2938 <_svfprintf_r+0x8f0>
    30b6:	e579      	b.n	2bac <_svfprintf_r+0xb64>
    30b8:	4614      	mov	r4, r2
    30ba:	3301      	adds	r3, #1
    30bc:	4434      	add	r4, r6
    30be:	2b07      	cmp	r3, #7
    30c0:	e9cd 3422 	strd	r3, r4, [sp, #136]	@ 0x88
    30c4:	f8c9 7000 	str.w	r7, [r9]
    30c8:	f8c9 6004 	str.w	r6, [r9, #4]
    30cc:	f300 80b9 	bgt.w	3242 <_svfprintf_r+0x11fa>
    30d0:	f109 0908 	add.w	r9, r9, #8
    30d4:	e501      	b.n	2ada <_svfprintf_r+0xa92>
    30d6:	242d      	movs	r4, #45	@ 0x2d
    30d8:	f88d 4067 	strb.w	r4, [sp, #103]	@ 0x67
    30dc:	f7ff b9d8 	b.w	2490 <_svfprintf_r+0x448>
    30e0:	e9dd 1007 	ldrd	r1, r0, [sp, #28]
    30e4:	aa21      	add	r2, sp, #132	@ 0x84
    30e6:	f002 f991 	bl	540c <__ssprint_r>
    30ea:	2800      	cmp	r0, #0
    30ec:	f47f a91d 	bne.w	232a <_svfprintf_r+0x2e2>
    30f0:	9b1b      	ldr	r3, [sp, #108]	@ 0x6c
    30f2:	9c23      	ldr	r4, [sp, #140]	@ 0x8c
    30f4:	f10d 09b8 	add.w	r9, sp, #184	@ 0xb8
    30f8:	e502      	b.n	2b00 <_svfprintf_r+0xab8>
    30fa:	e9dd 1007 	ldrd	r1, r0, [sp, #28]
    30fe:	aa21      	add	r2, sp, #132	@ 0x84
    3100:	f002 f984 	bl	540c <__ssprint_r>
    3104:	2800      	cmp	r0, #0
    3106:	f47f a910 	bne.w	232a <_svfprintf_r+0x2e2>
    310a:	991b      	ldr	r1, [sp, #108]	@ 0x6c
    310c:	9c23      	ldr	r4, [sp, #140]	@ 0x8c
    310e:	f10d 09b8 	add.w	r9, sp, #184	@ 0xb8
    3112:	e73c      	b.n	2f8e <_svfprintf_r+0xf46>
    3114:	f101 4300 	add.w	r3, r1, #2147483648	@ 0x80000000
    3118:	9317      	str	r3, [sp, #92]	@ 0x5c
    311a:	232d      	movs	r3, #45	@ 0x2d
    311c:	9016      	str	r0, [sp, #88]	@ 0x58
    311e:	930a      	str	r3, [sp, #40]	@ 0x28
    3120:	e5d5      	b.n	2cce <_svfprintf_r+0xc86>
    3122:	f1b8 0f66 	cmp.w	r8, #102	@ 0x66
    3126:	f47f addc 	bne.w	2ce2 <_svfprintf_r+0xc9a>
    312a:	f8cd a00c 	str.w	sl, [sp, #12]
    312e:	2103      	movs	r1, #3
    3130:	9c03      	ldr	r4, [sp, #12]
    3132:	9808      	ldr	r0, [sp, #32]
    3134:	ab1f      	add	r3, sp, #124	@ 0x7c
    3136:	9301      	str	r3, [sp, #4]
    3138:	ab1c      	add	r3, sp, #112	@ 0x70
    313a:	9300      	str	r3, [sp, #0]
    313c:	4622      	mov	r2, r4
    313e:	ed9d 0b16 	vldr	d0, [sp, #88]	@ 0x58
    3142:	ab1b      	add	r3, sp, #108	@ 0x6c
    3144:	f000 fe22 	bl	3d8c <_dtoa_r>
    3148:	f1b8 0f66 	cmp.w	r8, #102	@ 0x66
    314c:	4605      	mov	r5, r0
    314e:	4404      	add	r4, r0
    3150:	f47f add9 	bne.w	2d06 <_svfprintf_r+0xcbe>
    3154:	782b      	ldrb	r3, [r5, #0]
    3156:	2b30      	cmp	r3, #48	@ 0x30
    3158:	f000 80e7 	beq.w	332a <_svfprintf_r+0x12e2>
    315c:	9b1b      	ldr	r3, [sp, #108]	@ 0x6c
    315e:	441c      	add	r4, r3
    3160:	e5d1      	b.n	2d06 <_svfprintf_r+0xcbe>
    3162:	9a1b      	ldr	r2, [sp, #108]	@ 0x6c
    3164:	920b      	str	r2, [sp, #44]	@ 0x2c
    3166:	4623      	mov	r3, r4
    3168:	e5e2      	b.n	2d30 <_svfprintf_r+0xce8>
    316a:	459a      	cmp	sl, r3
    316c:	f6ff ae7a 	blt.w	2e64 <_svfprintf_r+0xe1c>
    3170:	9b0e      	ldr	r3, [sp, #56]	@ 0x38
    3172:	9a0b      	ldr	r2, [sp, #44]	@ 0x2c
    3174:	4293      	cmp	r3, r2
    3176:	f300 80cb 	bgt.w	3310 <_svfprintf_r+0x12c8>
    317a:	07fe      	lsls	r6, r7, #31
    317c:	9b0b      	ldr	r3, [sp, #44]	@ 0x2c
    317e:	f100 80fb 	bmi.w	3378 <_svfprintf_r+0x1330>
    3182:	ea23 72e3 	bic.w	r2, r3, r3, asr #31
    3186:	9203      	str	r2, [sp, #12]
    3188:	9306      	str	r3, [sp, #24]
    318a:	f04f 0867 	mov.w	r8, #103	@ 0x67
    318e:	9b0a      	ldr	r3, [sp, #40]	@ 0x28
    3190:	2b00      	cmp	r3, #0
    3192:	d062      	beq.n	325a <_svfprintf_r+0x1212>
    3194:	232d      	movs	r3, #45	@ 0x2d
    3196:	f88d 3067 	strb.w	r3, [sp, #103]	@ 0x67
    319a:	f04f 0a00 	mov.w	sl, #0
    319e:	f7ff b892 	b.w	22c6 <_svfprintf_r+0x27e>
    31a2:	e9dd 1007 	ldrd	r1, r0, [sp, #28]
    31a6:	aa21      	add	r2, sp, #132	@ 0x84
    31a8:	f002 f930 	bl	540c <__ssprint_r>
    31ac:	f7ff b8bd 	b.w	232a <_svfprintf_r+0x2e2>
    31b0:	cccccccd 	.word	0xcccccccd
    31b4:	0000970c 	.word	0x0000970c
    31b8:	00009704 	.word	0x00009704
    31bc:	000097f0 	.word	0x000097f0
    31c0:	f10d 0483 	add.w	r4, sp, #131	@ 0x83
    31c4:	4e8d      	ldr	r6, [pc, #564]	@ (33fc <_svfprintf_r+0x13b4>)
    31c6:	4623      	mov	r3, r4
    31c8:	4618      	mov	r0, r3
    31ca:	fba6 2301 	umull	r2, r3, r6, r1
    31ce:	08db      	lsrs	r3, r3, #3
    31d0:	eb03 0283 	add.w	r2, r3, r3, lsl #2
    31d4:	eba1 0242 	sub.w	r2, r1, r2, lsl #1
    31d8:	3230      	adds	r2, #48	@ 0x30
    31da:	f800 2c01 	strb.w	r2, [r0, #-1]
    31de:	460a      	mov	r2, r1
    31e0:	2a63      	cmp	r2, #99	@ 0x63
    31e2:	4619      	mov	r1, r3
    31e4:	f100 33ff 	add.w	r3, r0, #4294967295	@ 0xffffffff
    31e8:	dcee      	bgt.n	31c8 <_svfprintf_r+0x1180>
    31ea:	3130      	adds	r1, #48	@ 0x30
    31ec:	f803 1c01 	strb.w	r1, [r3, #-1]
    31f0:	1e83      	subs	r3, r0, #2
    31f2:	42a3      	cmp	r3, r4
    31f4:	f080 80fe 	bcs.w	33f4 <_svfprintf_r+0x13ac>
    31f8:	f10d 0275 	add.w	r2, sp, #117	@ 0x75
    31fc:	f813 1b01 	ldrb.w	r1, [r3], #1
    3200:	f802 1f01 	strb.w	r1, [r2, #1]!
    3204:	42a3      	cmp	r3, r4
    3206:	d1f9      	bne.n	31fc <_svfprintf_r+0x11b4>
    3208:	ab3e      	add	r3, sp, #248	@ 0xf8
    320a:	1a18      	subs	r0, r3, r0
    320c:	f1a0 0371 	sub.w	r3, r0, #113	@ 0x71
    3210:	9312      	str	r3, [sp, #72]	@ 0x48
    3212:	e641      	b.n	2e98 <_svfprintf_r+0xe50>
    3214:	2b00      	cmp	r3, #0
    3216:	f040 80d0 	bne.w	33ba <_svfprintf_r+0x1372>
    321a:	2301      	movs	r3, #1
    321c:	9303      	str	r3, [sp, #12]
    321e:	f04f 0866 	mov.w	r8, #102	@ 0x66
    3222:	9306      	str	r3, [sp, #24]
    3224:	e7b3      	b.n	318e <_svfprintf_r+0x1146>
    3226:	e9dd 1007 	ldrd	r1, r0, [sp, #28]
    322a:	aa21      	add	r2, sp, #132	@ 0x84
    322c:	f002 f8ee 	bl	540c <__ssprint_r>
    3230:	2800      	cmp	r0, #0
    3232:	f47f a87a 	bne.w	232a <_svfprintf_r+0x2e2>
    3236:	e9dd 3222 	ldrd	r3, r2, [sp, #136]	@ 0x88
    323a:	991b      	ldr	r1, [sp, #108]	@ 0x6c
    323c:	f10d 09b8 	add.w	r9, sp, #184	@ 0xb8
    3240:	e708      	b.n	3054 <_svfprintf_r+0x100c>
    3242:	e9dd 1007 	ldrd	r1, r0, [sp, #28]
    3246:	aa21      	add	r2, sp, #132	@ 0x84
    3248:	f002 f8e0 	bl	540c <__ssprint_r>
    324c:	2800      	cmp	r0, #0
    324e:	f47f a86c 	bne.w	232a <_svfprintf_r+0x2e2>
    3252:	9c23      	ldr	r4, [sp, #140]	@ 0x8c
    3254:	f10d 09b8 	add.w	r9, sp, #184	@ 0xb8
    3258:	e43f      	b.n	2ada <_svfprintf_r+0xa92>
    325a:	f8dd a028 	ldr.w	sl, [sp, #40]	@ 0x28
    325e:	f89d 4067 	ldrb.w	r4, [sp, #103]	@ 0x67
    3262:	f7ff b82f 	b.w	22c4 <_svfprintf_r+0x27c>
    3266:	e9dd 1007 	ldrd	r1, r0, [sp, #28]
    326a:	aa21      	add	r2, sp, #132	@ 0x84
    326c:	f002 f8ce 	bl	540c <__ssprint_r>
    3270:	2800      	cmp	r0, #0
    3272:	f47f a85a 	bne.w	232a <_svfprintf_r+0x2e2>
    3276:	9c23      	ldr	r4, [sp, #140]	@ 0x8c
    3278:	f10d 09b8 	add.w	r9, sp, #184	@ 0xb8
    327c:	e426      	b.n	2acc <_svfprintf_r+0xa84>
    327e:	e9dd 1007 	ldrd	r1, r0, [sp, #28]
    3282:	aa21      	add	r2, sp, #132	@ 0x84
    3284:	f002 f8c2 	bl	540c <__ssprint_r>
    3288:	2800      	cmp	r0, #0
    328a:	f47f a84e 	bne.w	232a <_svfprintf_r+0x2e2>
    328e:	9b1b      	ldr	r3, [sp, #108]	@ 0x6c
    3290:	9a0e      	ldr	r2, [sp, #56]	@ 0x38
    3292:	9c23      	ldr	r4, [sp, #140]	@ 0x8c
    3294:	1ad3      	subs	r3, r2, r3
    3296:	f10d 09b8 	add.w	r9, sp, #184	@ 0xb8
    329a:	e449      	b.n	2b30 <_svfprintf_r+0xae8>
    329c:	f04f 0a06 	mov.w	sl, #6
    32a0:	e507      	b.n	2cb2 <_svfprintf_r+0xc6a>
    32a2:	9409      	str	r4, [sp, #36]	@ 0x24
    32a4:	f8cd a00c 	str.w	sl, [sp, #12]
    32a8:	f8cd a018 	str.w	sl, [sp, #24]
    32ac:	f89d 4067 	ldrb.w	r4, [sp, #103]	@ 0x67
    32b0:	9702      	str	r7, [sp, #8]
    32b2:	4682      	mov	sl, r0
    32b4:	900b      	str	r0, [sp, #44]	@ 0x2c
    32b6:	f7ff b805 	b.w	22c4 <_svfprintf_r+0x27c>
    32ba:	f10a 0301 	add.w	r3, sl, #1
    32be:	9303      	str	r3, [sp, #12]
    32c0:	2102      	movs	r1, #2
    32c2:	e735      	b.n	3130 <_svfprintf_r+0x10e8>
    32c4:	4693      	mov	fp, r2
    32c6:	f04f 0a00 	mov.w	sl, #0
    32ca:	f7fe bf07 	b.w	20dc <_svfprintf_r+0x94>
    32ce:	f017 0201 	ands.w	r2, r7, #1
    32d2:	920b      	str	r2, [sp, #44]	@ 0x2c
    32d4:	f47f ade7 	bne.w	2ea6 <_svfprintf_r+0xe5e>
    32d8:	ea23 73e3 	bic.w	r3, r3, r3, asr #31
    32dc:	9303      	str	r3, [sp, #12]
    32de:	e756      	b.n	318e <_svfprintf_r+0x1146>
    32e0:	3301      	adds	r3, #1
    32e2:	4432      	add	r2, r6
    32e4:	2b07      	cmp	r3, #7
    32e6:	e9cd 3222 	strd	r3, r2, [sp, #136]	@ 0x88
    32ea:	f8c9 7000 	str.w	r7, [r9]
    32ee:	f8c9 6004 	str.w	r6, [r9, #4]
    32f2:	f77f ae61 	ble.w	2fb8 <_svfprintf_r+0xf70>
    32f6:	e9dd 1007 	ldrd	r1, r0, [sp, #28]
    32fa:	aa21      	add	r2, sp, #132	@ 0x84
    32fc:	f002 f886 	bl	540c <__ssprint_r>
    3300:	2800      	cmp	r0, #0
    3302:	f47f a812 	bne.w	232a <_svfprintf_r+0x2e2>
    3306:	e9dd 3222 	ldrd	r3, r2, [sp, #136]	@ 0x88
    330a:	f10d 09b8 	add.w	r9, sp, #184	@ 0xb8
    330e:	e655      	b.n	2fbc <_svfprintf_r+0xf74>
    3310:	e9dd 320e 	ldrd	r3, r2, [sp, #56]	@ 0x38
    3314:	4413      	add	r3, r2
    3316:	9a0b      	ldr	r2, [sp, #44]	@ 0x2c
    3318:	9306      	str	r3, [sp, #24]
    331a:	2a00      	cmp	r2, #0
    331c:	dd41      	ble.n	33a2 <_svfprintf_r+0x135a>
    331e:	ea23 73e3 	bic.w	r3, r3, r3, asr #31
    3322:	9303      	str	r3, [sp, #12]
    3324:	f04f 0867 	mov.w	r8, #103	@ 0x67
    3328:	e731      	b.n	318e <_svfprintf_r+0x1146>
    332a:	e9dd 0116 	ldrd	r0, r1, [sp, #88]	@ 0x58
    332e:	2200      	movs	r2, #0
    3330:	2300      	movs	r3, #0
    3332:	f005 fa09 	bl	8748 <__aeabi_dcmpeq>
    3336:	2800      	cmp	r0, #0
    3338:	d04b      	beq.n	33d2 <_svfprintf_r+0x138a>
    333a:	9b1b      	ldr	r3, [sp, #108]	@ 0x6c
    333c:	930b      	str	r3, [sp, #44]	@ 0x2c
    333e:	441c      	add	r4, r3
    3340:	1b63      	subs	r3, r4, r5
    3342:	930e      	str	r3, [sp, #56]	@ 0x38
    3344:	e4fd      	b.n	2d42 <_svfprintf_r+0xcfa>
    3346:	9a08      	ldr	r2, [sp, #32]
    3348:	230c      	movs	r3, #12
    334a:	6013      	str	r3, [r2, #0]
    334c:	f04f 33ff 	mov.w	r3, #4294967295	@ 0xffffffff
    3350:	9305      	str	r3, [sp, #20]
    3352:	f7fe bfef 	b.w	2334 <_svfprintf_r+0x2ec>
    3356:	9b0d      	ldr	r3, [sp, #52]	@ 0x34
    3358:	4d29      	ldr	r5, [pc, #164]	@ (3400 <_svfprintf_r+0x13b8>)
    335a:	2b00      	cmp	r3, #0
    335c:	bfb8      	it	lt
    335e:	242d      	movlt	r4, #45	@ 0x2d
    3360:	f027 0380 	bic.w	r3, r7, #128	@ 0x80
    3364:	9302      	str	r3, [sp, #8]
    3366:	bfa8      	it	ge
    3368:	f89d 4067 	ldrbge.w	r4, [sp, #103]	@ 0x67
    336c:	4b25      	ldr	r3, [pc, #148]	@ (3404 <_svfprintf_r+0x13bc>)
    336e:	bfb8      	it	lt
    3370:	f88d 4067 	strblt.w	r4, [sp, #103]	@ 0x67
    3374:	f7ff b891 	b.w	249a <_svfprintf_r+0x452>
    3378:	9a0f      	ldr	r2, [sp, #60]	@ 0x3c
    337a:	4413      	add	r3, r2
    337c:	9306      	str	r3, [sp, #24]
    337e:	ea23 73e3 	bic.w	r3, r3, r3, asr #31
    3382:	9303      	str	r3, [sp, #12]
    3384:	f04f 0867 	mov.w	r8, #103	@ 0x67
    3388:	e701      	b.n	318e <_svfprintf_r+0x1146>
    338a:	9b0f      	ldr	r3, [sp, #60]	@ 0x3c
    338c:	eb0a 0803 	add.w	r8, sl, r3
    3390:	eb08 0302 	add.w	r3, r8, r2
    3394:	9306      	str	r3, [sp, #24]
    3396:	ea23 73e3 	bic.w	r3, r3, r3, asr #31
    339a:	9303      	str	r3, [sp, #12]
    339c:	f04f 0866 	mov.w	r8, #102	@ 0x66
    33a0:	e6f5      	b.n	318e <_svfprintf_r+0x1146>
    33a2:	9b0b      	ldr	r3, [sp, #44]	@ 0x2c
    33a4:	9a06      	ldr	r2, [sp, #24]
    33a6:	f1c3 0301 	rsb	r3, r3, #1
    33aa:	441a      	add	r2, r3
    33ac:	ea22 73e2 	bic.w	r3, r2, r2, asr #31
    33b0:	9206      	str	r2, [sp, #24]
    33b2:	9303      	str	r3, [sp, #12]
    33b4:	f04f 0867 	mov.w	r8, #103	@ 0x67
    33b8:	e6e9      	b.n	318e <_svfprintf_r+0x1146>
    33ba:	9b0f      	ldr	r3, [sp, #60]	@ 0x3c
    33bc:	f103 0801 	add.w	r8, r3, #1
    33c0:	eb08 030a 	add.w	r3, r8, sl
    33c4:	9306      	str	r3, [sp, #24]
    33c6:	ea23 73e3 	bic.w	r3, r3, r3, asr #31
    33ca:	9303      	str	r3, [sp, #12]
    33cc:	f04f 0866 	mov.w	r8, #102	@ 0x66
    33d0:	e6dd      	b.n	318e <_svfprintf_r+0x1146>
    33d2:	9b03      	ldr	r3, [sp, #12]
    33d4:	f1c3 0301 	rsb	r3, r3, #1
    33d8:	931b      	str	r3, [sp, #108]	@ 0x6c
    33da:	441c      	add	r4, r3
    33dc:	e493      	b.n	2d06 <_svfprintf_r+0xcbe>
    33de:	9909      	ldr	r1, [sp, #36]	@ 0x24
    33e0:	f89b 3001 	ldrb.w	r3, [fp, #1]
    33e4:	f851 ab04 	ldr.w	sl, [r1], #4
    33e8:	9109      	str	r1, [sp, #36]	@ 0x24
    33ea:	4693      	mov	fp, r2
    33ec:	ea4a 7aea 	orr.w	sl, sl, sl, asr #31
    33f0:	f7fe be71 	b.w	20d6 <_svfprintf_r+0x8e>
    33f4:	2302      	movs	r3, #2
    33f6:	9312      	str	r3, [sp, #72]	@ 0x48
    33f8:	e54e      	b.n	2e98 <_svfprintf_r+0xe50>
    33fa:	bf00      	nop
    33fc:	cccccccd 	.word	0xcccccccd
    3400:	000096d8 	.word	0x000096d8
    3404:	000096d4 	.word	0x000096d4
	...

00003420 <strcmp>:
    3420:	7802      	ldrb	r2, [r0, #0]
    3422:	780b      	ldrb	r3, [r1, #0]
    3424:	2a01      	cmp	r2, #1
    3426:	bf28      	it	cs
    3428:	429a      	cmpcs	r2, r3
    342a:	f040 80d8 	bne.w	35de <strcmp+0x1be>
    342e:	e96d 4504 	strd	r4, r5, [sp, #-16]!
    3432:	ea40 0401 	orr.w	r4, r0, r1
    3436:	e9cd 6702 	strd	r6, r7, [sp, #8]
    343a:	f06f 0c00 	mvn.w	ip, #0
    343e:	ea4f 7244 	mov.w	r2, r4, lsl #29
    3442:	b31a      	cbz	r2, 348c <strcmp+0x6c>
    3444:	ea80 0401 	eor.w	r4, r0, r1
    3448:	f014 0f07 	tst.w	r4, #7
    344c:	d16b      	bne.n	3526 <strcmp+0x106>
    344e:	f000 0407 	and.w	r4, r0, #7
    3452:	f020 0007 	bic.w	r0, r0, #7
    3456:	f004 0503 	and.w	r5, r4, #3
    345a:	f021 0107 	bic.w	r1, r1, #7
    345e:	ea4f 05c5 	mov.w	r5, r5, lsl #3
    3462:	e8f0 2304 	ldrd	r2, r3, [r0], #16
    3466:	f014 0f04 	tst.w	r4, #4
    346a:	e8f1 6704 	ldrd	r6, r7, [r1], #16
    346e:	fa0c f405 	lsl.w	r4, ip, r5
    3472:	ea62 0204 	orn	r2, r2, r4
    3476:	ea66 0604 	orn	r6, r6, r4
    347a:	d00b      	beq.n	3494 <strcmp+0x74>
    347c:	ea63 0304 	orn	r3, r3, r4
    3480:	4662      	mov	r2, ip
    3482:	ea67 0704 	orn	r7, r7, r4
    3486:	4666      	mov	r6, ip
    3488:	e004      	b.n	3494 <strcmp+0x74>
    348a:	bf00      	nop
    348c:	e8f0 2304 	ldrd	r2, r3, [r0], #16
    3490:	e8f1 6704 	ldrd	r6, r7, [r1], #16
    3494:	fa82 f54c 	uadd8	r5, r2, ip
    3498:	ea82 0406 	eor.w	r4, r2, r6
    349c:	faa4 f48c 	sel	r4, r4, ip
    34a0:	bb6c      	cbnz	r4, 34fe <strcmp+0xde>
    34a2:	fa83 f54c 	uadd8	r5, r3, ip
    34a6:	ea83 0507 	eor.w	r5, r3, r7
    34aa:	faa5 f58c 	sel	r5, r5, ip
    34ae:	b995      	cbnz	r5, 34d6 <strcmp+0xb6>
    34b0:	e950 2302 	ldrd	r2, r3, [r0, #-8]
    34b4:	e951 6702 	ldrd	r6, r7, [r1, #-8]
    34b8:	fa82 f54c 	uadd8	r5, r2, ip
    34bc:	ea82 0406 	eor.w	r4, r2, r6
    34c0:	faa4 f48c 	sel	r4, r4, ip
    34c4:	fa83 f54c 	uadd8	r5, r3, ip
    34c8:	ea83 0507 	eor.w	r5, r3, r7
    34cc:	faa5 f58c 	sel	r5, r5, ip
    34d0:	4325      	orrs	r5, r4
    34d2:	d0db      	beq.n	348c <strcmp+0x6c>
    34d4:	b99c      	cbnz	r4, 34fe <strcmp+0xde>
    34d6:	ba2d      	rev	r5, r5
    34d8:	fab5 f485 	clz	r4, r5
    34dc:	f024 0407 	bic.w	r4, r4, #7
    34e0:	fa27 f104 	lsr.w	r1, r7, r4
    34e4:	e9dd 6702 	ldrd	r6, r7, [sp, #8]
    34e8:	fa23 f304 	lsr.w	r3, r3, r4
    34ec:	f003 00ff 	and.w	r0, r3, #255	@ 0xff
    34f0:	f001 01ff 	and.w	r1, r1, #255	@ 0xff
    34f4:	e8fd 4504 	ldrd	r4, r5, [sp], #16
    34f8:	eba0 0001 	sub.w	r0, r0, r1
    34fc:	4770      	bx	lr
    34fe:	ba24      	rev	r4, r4
    3500:	fab4 f484 	clz	r4, r4
    3504:	f024 0407 	bic.w	r4, r4, #7
    3508:	fa26 f104 	lsr.w	r1, r6, r4
    350c:	e9dd 6702 	ldrd	r6, r7, [sp, #8]
    3510:	fa22 f204 	lsr.w	r2, r2, r4
    3514:	f002 00ff 	and.w	r0, r2, #255	@ 0xff
    3518:	f001 01ff 	and.w	r1, r1, #255	@ 0xff
    351c:	e8fd 4504 	ldrd	r4, r5, [sp], #16
    3520:	eba0 0001 	sub.w	r0, r0, r1
    3524:	4770      	bx	lr
    3526:	f014 0f03 	tst.w	r4, #3
    352a:	d13c      	bne.n	35a6 <strcmp+0x186>
    352c:	f010 0403 	ands.w	r4, r0, #3
    3530:	d128      	bne.n	3584 <strcmp+0x164>
    3532:	f850 2b08 	ldr.w	r2, [r0], #8
    3536:	f851 3b08 	ldr.w	r3, [r1], #8
    353a:	fa82 f54c 	uadd8	r5, r2, ip
    353e:	ea82 0503 	eor.w	r5, r2, r3
    3542:	faa5 f58c 	sel	r5, r5, ip
    3546:	b95d      	cbnz	r5, 3560 <strcmp+0x140>
    3548:	f850 2c04 	ldr.w	r2, [r0, #-4]
    354c:	f851 3c04 	ldr.w	r3, [r1, #-4]
    3550:	fa82 f54c 	uadd8	r5, r2, ip
    3554:	ea82 0503 	eor.w	r5, r2, r3
    3558:	faa5 f58c 	sel	r5, r5, ip
    355c:	2d00      	cmp	r5, #0
    355e:	d0e8      	beq.n	3532 <strcmp+0x112>
    3560:	ba2d      	rev	r5, r5
    3562:	fab5 f485 	clz	r4, r5
    3566:	f024 0407 	bic.w	r4, r4, #7
    356a:	fa23 f104 	lsr.w	r1, r3, r4
    356e:	fa22 f204 	lsr.w	r2, r2, r4
    3572:	f002 00ff 	and.w	r0, r2, #255	@ 0xff
    3576:	f001 01ff 	and.w	r1, r1, #255	@ 0xff
    357a:	e8fd 4504 	ldrd	r4, r5, [sp], #16
    357e:	eba0 0001 	sub.w	r0, r0, r1
    3582:	4770      	bx	lr
    3584:	ea4f 04c4 	mov.w	r4, r4, lsl #3
    3588:	f020 0003 	bic.w	r0, r0, #3
    358c:	f850 2b08 	ldr.w	r2, [r0], #8
    3590:	f021 0103 	bic.w	r1, r1, #3
    3594:	f851 3b08 	ldr.w	r3, [r1], #8
    3598:	fa0c f404 	lsl.w	r4, ip, r4
    359c:	ea62 0204 	orn	r2, r2, r4
    35a0:	ea63 0304 	orn	r3, r3, r4
    35a4:	e7c9      	b.n	353a <strcmp+0x11a>
    35a6:	f010 0403 	ands.w	r4, r0, #3
    35aa:	d01d      	beq.n	35e8 <strcmp+0x1c8>
    35ac:	eba1 0104 	sub.w	r1, r1, r4
    35b0:	f020 0003 	bic.w	r0, r0, #3
    35b4:	07e4      	lsls	r4, r4, #31
    35b6:	f850 2b04 	ldr.w	r2, [r0], #4
    35ba:	d006      	beq.n	35ca <strcmp+0x1aa>
    35bc:	d212      	bcs.n	35e4 <strcmp+0x1c4>
    35be:	788b      	ldrb	r3, [r1, #2]
    35c0:	fa5f f4a2 	uxtb.w	r4, r2, ror #16
    35c4:	1ae4      	subs	r4, r4, r3
    35c6:	d106      	bne.n	35d6 <strcmp+0x1b6>
    35c8:	b12b      	cbz	r3, 35d6 <strcmp+0x1b6>
    35ca:	78cb      	ldrb	r3, [r1, #3]
    35cc:	fa5f f4b2 	uxtb.w	r4, r2, ror #24
    35d0:	1ae4      	subs	r4, r4, r3
    35d2:	d100      	bne.n	35d6 <strcmp+0x1b6>
    35d4:	b933      	cbnz	r3, 35e4 <strcmp+0x1c4>
    35d6:	4620      	mov	r0, r4
    35d8:	f85d 4b10 	ldr.w	r4, [sp], #16
    35dc:	4770      	bx	lr
    35de:	eba2 0003 	sub.w	r0, r2, r3
    35e2:	4770      	bx	lr
    35e4:	f101 0104 	add.w	r1, r1, #4
    35e8:	f850 2b04 	ldr.w	r2, [r0], #4
    35ec:	07cc      	lsls	r4, r1, #31
    35ee:	f021 0103 	bic.w	r1, r1, #3
    35f2:	f851 3b04 	ldr.w	r3, [r1], #4
    35f6:	d848      	bhi.n	368a <strcmp+0x26a>
    35f8:	d224      	bcs.n	3644 <strcmp+0x224>
    35fa:	f022 447f 	bic.w	r4, r2, #4278190080	@ 0xff000000
    35fe:	fa82 f54c 	uadd8	r5, r2, ip
    3602:	ea94 2513 	eors.w	r5, r4, r3, lsr #8
    3606:	faa5 f58c 	sel	r5, r5, ip
    360a:	d10a      	bne.n	3622 <strcmp+0x202>
    360c:	b965      	cbnz	r5, 3628 <strcmp+0x208>
    360e:	f851 3b04 	ldr.w	r3, [r1], #4
    3612:	ea84 0402 	eor.w	r4, r4, r2
    3616:	ebb4 6f03 	cmp.w	r4, r3, lsl #24
    361a:	d10e      	bne.n	363a <strcmp+0x21a>
    361c:	f850 2b04 	ldr.w	r2, [r0], #4
    3620:	e7eb      	b.n	35fa <strcmp+0x1da>
    3622:	ea4f 2313 	mov.w	r3, r3, lsr #8
    3626:	e055      	b.n	36d4 <strcmp+0x2b4>
    3628:	f035 457f 	bics.w	r5, r5, #4278190080	@ 0xff000000
    362c:	d14d      	bne.n	36ca <strcmp+0x2aa>
    362e:	7808      	ldrb	r0, [r1, #0]
    3630:	e8fd 4504 	ldrd	r4, r5, [sp], #16
    3634:	f1c0 0000 	rsb	r0, r0, #0
    3638:	4770      	bx	lr
    363a:	ea4f 6212 	mov.w	r2, r2, lsr #24
    363e:	f003 03ff 	and.w	r3, r3, #255	@ 0xff
    3642:	e047      	b.n	36d4 <strcmp+0x2b4>
    3644:	ea02 441c 	and.w	r4, r2, ip, lsr #16
    3648:	fa82 f54c 	uadd8	r5, r2, ip
    364c:	ea94 4513 	eors.w	r5, r4, r3, lsr #16
    3650:	faa5 f58c 	sel	r5, r5, ip
    3654:	d10a      	bne.n	366c <strcmp+0x24c>
    3656:	b965      	cbnz	r5, 3672 <strcmp+0x252>
    3658:	f851 3b04 	ldr.w	r3, [r1], #4
    365c:	ea84 0402 	eor.w	r4, r4, r2
    3660:	ebb4 4f03 	cmp.w	r4, r3, lsl #16
    3664:	d10c      	bne.n	3680 <strcmp+0x260>
    3666:	f850 2b04 	ldr.w	r2, [r0], #4
    366a:	e7eb      	b.n	3644 <strcmp+0x224>
    366c:	ea4f 4313 	mov.w	r3, r3, lsr #16
    3670:	e030      	b.n	36d4 <strcmp+0x2b4>
    3672:	ea15 451c 	ands.w	r5, r5, ip, lsr #16
    3676:	d128      	bne.n	36ca <strcmp+0x2aa>
    3678:	880b      	ldrh	r3, [r1, #0]
    367a:	ea4f 4212 	mov.w	r2, r2, lsr #16
    367e:	e029      	b.n	36d4 <strcmp+0x2b4>
    3680:	ea4f 4212 	mov.w	r2, r2, lsr #16
    3684:	ea03 431c 	and.w	r3, r3, ip, lsr #16
    3688:	e024      	b.n	36d4 <strcmp+0x2b4>
    368a:	f002 04ff 	and.w	r4, r2, #255	@ 0xff
    368e:	fa82 f54c 	uadd8	r5, r2, ip
    3692:	ea94 6513 	eors.w	r5, r4, r3, lsr #24
    3696:	faa5 f58c 	sel	r5, r5, ip
    369a:	d10a      	bne.n	36b2 <strcmp+0x292>
    369c:	b965      	cbnz	r5, 36b8 <strcmp+0x298>
    369e:	f851 3b04 	ldr.w	r3, [r1], #4
    36a2:	ea84 0402 	eor.w	r4, r4, r2
    36a6:	ebb4 2f03 	cmp.w	r4, r3, lsl #8
    36aa:	d109      	bne.n	36c0 <strcmp+0x2a0>
    36ac:	f850 2b04 	ldr.w	r2, [r0], #4
    36b0:	e7eb      	b.n	368a <strcmp+0x26a>
    36b2:	ea4f 6313 	mov.w	r3, r3, lsr #24
    36b6:	e00d      	b.n	36d4 <strcmp+0x2b4>
    36b8:	f015 0fff 	tst.w	r5, #255	@ 0xff
    36bc:	d105      	bne.n	36ca <strcmp+0x2aa>
    36be:	680b      	ldr	r3, [r1, #0]
    36c0:	ea4f 2212 	mov.w	r2, r2, lsr #8
    36c4:	f023 437f 	bic.w	r3, r3, #4278190080	@ 0xff000000
    36c8:	e004      	b.n	36d4 <strcmp+0x2b4>
    36ca:	f04f 0000 	mov.w	r0, #0
    36ce:	e8fd 4504 	ldrd	r4, r5, [sp], #16
    36d2:	4770      	bx	lr
    36d4:	ba12      	rev	r2, r2
    36d6:	ba1b      	rev	r3, r3
    36d8:	fa82 f44c 	uadd8	r4, r2, ip
    36dc:	ea82 0403 	eor.w	r4, r2, r3
    36e0:	faa4 f58c 	sel	r5, r4, ip
    36e4:	fab5 f485 	clz	r4, r5
    36e8:	fa02 f204 	lsl.w	r2, r2, r4
    36ec:	fa03 f304 	lsl.w	r3, r3, r4
    36f0:	ea4f 6012 	mov.w	r0, r2, lsr #24
    36f4:	e8fd 4504 	ldrd	r4, r5, [sp], #16
    36f8:	eba0 6013 	sub.w	r0, r0, r3, lsr #24
    36fc:	4770      	bx	lr
    36fe:	bf00      	nop

00003700 <__errno>:
    3700:	4b01      	ldr	r3, [pc, #4]	@ (3708 <__errno+0x8>)
    3702:	6818      	ldr	r0, [r3, #0]
    3704:	4770      	bx	lr
    3706:	bf00      	nop
    3708:	20000000 	.word	0x20000000

0000370c <_malloc_r>:
    370c:	e92d 4ff0 	stmdb	sp!, {r4, r5, r6, r7, r8, r9, sl, fp, lr}
    3710:	f101 050b 	add.w	r5, r1, #11
    3714:	2d16      	cmp	r5, #22
    3716:	b083      	sub	sp, #12
    3718:	4606      	mov	r6, r0
    371a:	d823      	bhi.n	3764 <_malloc_r+0x58>
    371c:	2910      	cmp	r1, #16
    371e:	f200 80af 	bhi.w	3880 <_malloc_r+0x174>
    3722:	f7fd ff51 	bl	15c8 <__malloc_lock>
    3726:	2510      	movs	r5, #16
    3728:	2318      	movs	r3, #24
    372a:	2002      	movs	r0, #2
    372c:	4fc0      	ldr	r7, [pc, #768]	@ (3a30 <_malloc_r+0x324>)
    372e:	443b      	add	r3, r7
    3730:	f1a3 0208 	sub.w	r2, r3, #8
    3734:	685c      	ldr	r4, [r3, #4]
    3736:	4294      	cmp	r4, r2
    3738:	f000 8124 	beq.w	3984 <_malloc_r+0x278>
    373c:	6863      	ldr	r3, [r4, #4]
    373e:	68e2      	ldr	r2, [r4, #12]
    3740:	68a1      	ldr	r1, [r4, #8]
    3742:	f023 0303 	bic.w	r3, r3, #3
    3746:	60ca      	str	r2, [r1, #12]
    3748:	4423      	add	r3, r4
    374a:	4630      	mov	r0, r6
    374c:	6091      	str	r1, [r2, #8]
    374e:	685a      	ldr	r2, [r3, #4]
    3750:	f042 0201 	orr.w	r2, r2, #1
    3754:	605a      	str	r2, [r3, #4]
    3756:	f7fd ff41 	bl	15dc <__malloc_unlock>
    375a:	3408      	adds	r4, #8
    375c:	4620      	mov	r0, r4
    375e:	b003      	add	sp, #12
    3760:	e8bd 8ff0 	ldmia.w	sp!, {r4, r5, r6, r7, r8, r9, sl, fp, pc}
    3764:	f035 0507 	bics.w	r5, r5, #7
    3768:	f100 808a 	bmi.w	3880 <_malloc_r+0x174>
    376c:	42a9      	cmp	r1, r5
    376e:	f200 8087 	bhi.w	3880 <_malloc_r+0x174>
    3772:	f7fd ff29 	bl	15c8 <__malloc_lock>
    3776:	f5b5 7ffc 	cmp.w	r5, #504	@ 0x1f8
    377a:	f0c0 816b 	bcc.w	3a54 <_malloc_r+0x348>
    377e:	0a6b      	lsrs	r3, r5, #9
    3780:	f000 8082 	beq.w	3888 <_malloc_r+0x17c>
    3784:	2b04      	cmp	r3, #4
    3786:	f200 8123 	bhi.w	39d0 <_malloc_r+0x2c4>
    378a:	09ab      	lsrs	r3, r5, #6
    378c:	f103 0039 	add.w	r0, r3, #57	@ 0x39
    3790:	f103 0e38 	add.w	lr, r3, #56	@ 0x38
    3794:	00c3      	lsls	r3, r0, #3
    3796:	4fa6      	ldr	r7, [pc, #664]	@ (3a30 <_malloc_r+0x324>)
    3798:	443b      	add	r3, r7
    379a:	f1a3 0c08 	sub.w	ip, r3, #8
    379e:	685c      	ldr	r4, [r3, #4]
    37a0:	45a4      	cmp	ip, r4
    37a2:	d107      	bne.n	37b4 <_malloc_r+0xa8>
    37a4:	e00d      	b.n	37c2 <_malloc_r+0xb6>
    37a6:	2a00      	cmp	r2, #0
    37a8:	68e1      	ldr	r1, [r4, #12]
    37aa:	f280 80e5 	bge.w	3978 <_malloc_r+0x26c>
    37ae:	458c      	cmp	ip, r1
    37b0:	d007      	beq.n	37c2 <_malloc_r+0xb6>
    37b2:	460c      	mov	r4, r1
    37b4:	6863      	ldr	r3, [r4, #4]
    37b6:	f023 0303 	bic.w	r3, r3, #3
    37ba:	1b5a      	subs	r2, r3, r5
    37bc:	2a0f      	cmp	r2, #15
    37be:	ddf2      	ble.n	37a6 <_malloc_r+0x9a>
    37c0:	4670      	mov	r0, lr
    37c2:	f8df 8270 	ldr.w	r8, [pc, #624]	@ 3a34 <_malloc_r+0x328>
    37c6:	693c      	ldr	r4, [r7, #16]
    37c8:	4544      	cmp	r4, r8
    37ca:	f000 80c2 	beq.w	3952 <_malloc_r+0x246>
    37ce:	6863      	ldr	r3, [r4, #4]
    37d0:	f023 0c03 	bic.w	ip, r3, #3
    37d4:	ebac 0305 	sub.w	r3, ip, r5
    37d8:	2b0f      	cmp	r3, #15
    37da:	f300 813f 	bgt.w	3a5c <_malloc_r+0x350>
    37de:	2b00      	cmp	r3, #0
    37e0:	e9c7 8804 	strd	r8, r8, [r7, #16]
    37e4:	f280 812a 	bge.w	3a3c <_malloc_r+0x330>
    37e8:	f5bc 7f00 	cmp.w	ip, #512	@ 0x200
    37ec:	f8d7 e004 	ldr.w	lr, [r7, #4]
    37f0:	f080 80ce 	bcs.w	3990 <_malloc_r+0x284>
    37f4:	ea4f 01dc 	mov.w	r1, ip, lsr #3
    37f8:	3101      	adds	r1, #1
    37fa:	ea4f 1c5c 	mov.w	ip, ip, lsr #5
    37fe:	2301      	movs	r3, #1
    3800:	fa03 f30c 	lsl.w	r3, r3, ip
    3804:	f857 2031 	ldr.w	r2, [r7, r1, lsl #3]
    3808:	60a2      	str	r2, [r4, #8]
    380a:	ea4e 0e03 	orr.w	lr, lr, r3
    380e:	eb07 03c1 	add.w	r3, r7, r1, lsl #3
    3812:	3b08      	subs	r3, #8
    3814:	60e3      	str	r3, [r4, #12]
    3816:	f8c7 e004 	str.w	lr, [r7, #4]
    381a:	f847 4031 	str.w	r4, [r7, r1, lsl #3]
    381e:	60d4      	str	r4, [r2, #12]
    3820:	1083      	asrs	r3, r0, #2
    3822:	f04f 0c01 	mov.w	ip, #1
    3826:	fa0c fc03 	lsl.w	ip, ip, r3
    382a:	45f4      	cmp	ip, lr
    382c:	d832      	bhi.n	3894 <_malloc_r+0x188>
    382e:	ea1c 0f0e 	tst.w	ip, lr
    3832:	d108      	bne.n	3846 <_malloc_r+0x13a>
    3834:	f020 0003 	bic.w	r0, r0, #3
    3838:	ea4f 0c4c 	mov.w	ip, ip, lsl #1
    383c:	ea1c 0f0e 	tst.w	ip, lr
    3840:	f100 0004 	add.w	r0, r0, #4
    3844:	d0f8      	beq.n	3838 <_malloc_r+0x12c>
    3846:	eb07 0ac0 	add.w	sl, r7, r0, lsl #3
    384a:	46d6      	mov	lr, sl
    384c:	4681      	mov	r9, r0
    384e:	f8de 300c 	ldr.w	r3, [lr, #12]
    3852:	e00b      	b.n	386c <_malloc_r+0x160>
    3854:	6859      	ldr	r1, [r3, #4]
    3856:	f021 0103 	bic.w	r1, r1, #3
    385a:	1b4a      	subs	r2, r1, r5
    385c:	2a0f      	cmp	r2, #15
    385e:	461c      	mov	r4, r3
    3860:	68db      	ldr	r3, [r3, #12]
    3862:	f300 80c1 	bgt.w	39e8 <_malloc_r+0x2dc>
    3866:	2a00      	cmp	r2, #0
    3868:	f280 80d5 	bge.w	3a16 <_malloc_r+0x30a>
    386c:	459e      	cmp	lr, r3
    386e:	d1f1      	bne.n	3854 <_malloc_r+0x148>
    3870:	f109 0901 	add.w	r9, r9, #1
    3874:	f019 0f03 	tst.w	r9, #3
    3878:	f10e 0e08 	add.w	lr, lr, #8
    387c:	d1e7      	bne.n	384e <_malloc_r+0x142>
    387e:	e116      	b.n	3aae <_malloc_r+0x3a2>
    3880:	230c      	movs	r3, #12
    3882:	6033      	str	r3, [r6, #0]
    3884:	2400      	movs	r4, #0
    3886:	e769      	b.n	375c <_malloc_r+0x50>
    3888:	f44f 7300 	mov.w	r3, #512	@ 0x200
    388c:	2040      	movs	r0, #64	@ 0x40
    388e:	f04f 0e3f 	mov.w	lr, #63	@ 0x3f
    3892:	e780      	b.n	3796 <_malloc_r+0x8a>
    3894:	68bc      	ldr	r4, [r7, #8]
    3896:	6863      	ldr	r3, [r4, #4]
    3898:	f023 0903 	bic.w	r9, r3, #3
    389c:	45a9      	cmp	r9, r5
    389e:	d303      	bcc.n	38a8 <_malloc_r+0x19c>
    38a0:	eba9 0305 	sub.w	r3, r9, r5
    38a4:	2b0f      	cmp	r3, #15
    38a6:	dc57      	bgt.n	3958 <_malloc_r+0x24c>
    38a8:	f8df b18c 	ldr.w	fp, [pc, #396]	@ 3a38 <_malloc_r+0x32c>
    38ac:	f8db 2000 	ldr.w	r2, [fp]
    38b0:	eb04 0309 	add.w	r3, r4, r9
    38b4:	3210      	adds	r2, #16
    38b6:	2008      	movs	r0, #8
    38b8:	eb02 0805 	add.w	r8, r2, r5
    38bc:	9300      	str	r3, [sp, #0]
    38be:	f001 fc85 	bl	51cc <sysconf>
    38c2:	f8d7 1408 	ldr.w	r1, [r7, #1032]	@ 0x408
    38c6:	3101      	adds	r1, #1
    38c8:	4602      	mov	r2, r0
    38ca:	d005      	beq.n	38d8 <_malloc_r+0x1cc>
    38cc:	f108 38ff 	add.w	r8, r8, #4294967295	@ 0xffffffff
    38d0:	4480      	add	r8, r0
    38d2:	4241      	negs	r1, r0
    38d4:	ea01 0808 	and.w	r8, r1, r8
    38d8:	4641      	mov	r1, r8
    38da:	4630      	mov	r0, r6
    38dc:	9201      	str	r2, [sp, #4]
    38de:	f001 fdc1 	bl	5464 <_sbrk_r>
    38e2:	f1b0 3fff 	cmp.w	r0, #4294967295	@ 0xffffffff
    38e6:	9a01      	ldr	r2, [sp, #4]
    38e8:	4682      	mov	sl, r0
    38ea:	f000 80d2 	beq.w	3a92 <_malloc_r+0x386>
    38ee:	9b00      	ldr	r3, [sp, #0]
    38f0:	4283      	cmp	r3, r0
    38f2:	f200 80cc 	bhi.w	3a8e <_malloc_r+0x382>
    38f6:	f8db 1004 	ldr.w	r1, [fp, #4]
    38fa:	4441      	add	r1, r8
    38fc:	f8cb 1004 	str.w	r1, [fp, #4]
    3900:	4608      	mov	r0, r1
    3902:	f102 3cff 	add.w	ip, r2, #4294967295	@ 0xffffffff
    3906:	f040 80f4 	bne.w	3af2 <_malloc_r+0x3e6>
    390a:	ea1a 0f0c 	tst.w	sl, ip
    390e:	f040 80f0 	bne.w	3af2 <_malloc_r+0x3e6>
    3912:	f8d7 a008 	ldr.w	sl, [r7, #8]
    3916:	44c8      	add	r8, r9
    3918:	f048 0001 	orr.w	r0, r8, #1
    391c:	f8ca 0004 	str.w	r0, [sl, #4]
    3920:	f8db 202c 	ldr.w	r2, [fp, #44]	@ 0x2c
    3924:	428a      	cmp	r2, r1
    3926:	f8db 2030 	ldr.w	r2, [fp, #48]	@ 0x30
    392a:	bf38      	it	cc
    392c:	f8cb 102c 	strcc.w	r1, [fp, #44]	@ 0x2c
    3930:	428a      	cmp	r2, r1
    3932:	bf38      	it	cc
    3934:	f8cb 1030 	strcc.w	r1, [fp, #48]	@ 0x30
    3938:	4654      	mov	r4, sl
    393a:	f020 0803 	bic.w	r8, r0, #3
    393e:	45a8      	cmp	r8, r5
    3940:	eba8 0305 	sub.w	r3, r8, r5
    3944:	d301      	bcc.n	394a <_malloc_r+0x23e>
    3946:	2b0f      	cmp	r3, #15
    3948:	dc06      	bgt.n	3958 <_malloc_r+0x24c>
    394a:	4630      	mov	r0, r6
    394c:	f7fd fe46 	bl	15dc <__malloc_unlock>
    3950:	e798      	b.n	3884 <_malloc_r+0x178>
    3952:	f8d7 e004 	ldr.w	lr, [r7, #4]
    3956:	e763      	b.n	3820 <_malloc_r+0x114>
    3958:	1962      	adds	r2, r4, r5
    395a:	f043 0301 	orr.w	r3, r3, #1
    395e:	f045 0501 	orr.w	r5, r5, #1
    3962:	6065      	str	r5, [r4, #4]
    3964:	4630      	mov	r0, r6
    3966:	60ba      	str	r2, [r7, #8]
    3968:	6053      	str	r3, [r2, #4]
    396a:	f7fd fe37 	bl	15dc <__malloc_unlock>
    396e:	3408      	adds	r4, #8
    3970:	4620      	mov	r0, r4
    3972:	b003      	add	sp, #12
    3974:	e8bd 8ff0 	ldmia.w	sp!, {r4, r5, r6, r7, r8, r9, sl, fp, pc}
    3978:	68a2      	ldr	r2, [r4, #8]
    397a:	4423      	add	r3, r4
    397c:	60d1      	str	r1, [r2, #12]
    397e:	4630      	mov	r0, r6
    3980:	608a      	str	r2, [r1, #8]
    3982:	e6e4      	b.n	374e <_malloc_r+0x42>
    3984:	68dc      	ldr	r4, [r3, #12]
    3986:	42a3      	cmp	r3, r4
    3988:	f47f aed8 	bne.w	373c <_malloc_r+0x30>
    398c:	3002      	adds	r0, #2
    398e:	e718      	b.n	37c2 <_malloc_r+0xb6>
    3990:	f5bc 6f20 	cmp.w	ip, #2560	@ 0xa00
    3994:	ea4f 225c 	mov.w	r2, ip, lsr #9
    3998:	d372      	bcc.n	3a80 <_malloc_r+0x374>
    399a:	2a14      	cmp	r2, #20
    399c:	f200 8108 	bhi.w	3bb0 <_malloc_r+0x4a4>
    39a0:	f102 035c 	add.w	r3, r2, #92	@ 0x5c
    39a4:	00db      	lsls	r3, r3, #3
    39a6:	325b      	adds	r2, #91	@ 0x5b
    39a8:	18f9      	adds	r1, r7, r3
    39aa:	58fb      	ldr	r3, [r7, r3]
    39ac:	3908      	subs	r1, #8
    39ae:	4299      	cmp	r1, r3
    39b0:	d103      	bne.n	39ba <_malloc_r+0x2ae>
    39b2:	e0e4      	b.n	3b7e <_malloc_r+0x472>
    39b4:	689b      	ldr	r3, [r3, #8]
    39b6:	4299      	cmp	r1, r3
    39b8:	d004      	beq.n	39c4 <_malloc_r+0x2b8>
    39ba:	685a      	ldr	r2, [r3, #4]
    39bc:	f022 0203 	bic.w	r2, r2, #3
    39c0:	4562      	cmp	r2, ip
    39c2:	d8f7      	bhi.n	39b4 <_malloc_r+0x2a8>
    39c4:	68d9      	ldr	r1, [r3, #12]
    39c6:	e9c4 3102 	strd	r3, r1, [r4, #8]
    39ca:	608c      	str	r4, [r1, #8]
    39cc:	60dc      	str	r4, [r3, #12]
    39ce:	e727      	b.n	3820 <_malloc_r+0x114>
    39d0:	2b14      	cmp	r3, #20
    39d2:	d961      	bls.n	3a98 <_malloc_r+0x38c>
    39d4:	2b54      	cmp	r3, #84	@ 0x54
    39d6:	f200 80f4 	bhi.w	3bc2 <_malloc_r+0x4b6>
    39da:	0b2b      	lsrs	r3, r5, #12
    39dc:	f103 006f 	add.w	r0, r3, #111	@ 0x6f
    39e0:	f103 0e6e 	add.w	lr, r3, #110	@ 0x6e
    39e4:	00c3      	lsls	r3, r0, #3
    39e6:	e6d6      	b.n	3796 <_malloc_r+0x8a>
    39e8:	f8d4 c008 	ldr.w	ip, [r4, #8]
    39ec:	4630      	mov	r0, r6
    39ee:	1966      	adds	r6, r4, r5
    39f0:	f045 0501 	orr.w	r5, r5, #1
    39f4:	6065      	str	r5, [r4, #4]
    39f6:	f8cc 300c 	str.w	r3, [ip, #12]
    39fa:	f8c3 c008 	str.w	ip, [r3, #8]
    39fe:	f042 0301 	orr.w	r3, r2, #1
    3a02:	e9c7 6604 	strd	r6, r6, [r7, #16]
    3a06:	e9c6 8802 	strd	r8, r8, [r6, #8]
    3a0a:	6073      	str	r3, [r6, #4]
    3a0c:	5062      	str	r2, [r4, r1]
    3a0e:	f7fd fde5 	bl	15dc <__malloc_unlock>
    3a12:	3408      	adds	r4, #8
    3a14:	e6a2      	b.n	375c <_malloc_r+0x50>
    3a16:	4421      	add	r1, r4
    3a18:	4630      	mov	r0, r6
    3a1a:	684a      	ldr	r2, [r1, #4]
    3a1c:	f042 0201 	orr.w	r2, r2, #1
    3a20:	604a      	str	r2, [r1, #4]
    3a22:	f854 2f08 	ldr.w	r2, [r4, #8]!
    3a26:	60d3      	str	r3, [r2, #12]
    3a28:	609a      	str	r2, [r3, #8]
    3a2a:	f7fd fdd7 	bl	15dc <__malloc_unlock>
    3a2e:	e695      	b.n	375c <_malloc_r+0x50>
    3a30:	20000128 	.word	0x20000128
    3a34:	20000130 	.word	0x20000130
    3a38:	2000070c 	.word	0x2000070c
    3a3c:	44a4      	add	ip, r4
    3a3e:	4630      	mov	r0, r6
    3a40:	f8dc 3004 	ldr.w	r3, [ip, #4]
    3a44:	f043 0301 	orr.w	r3, r3, #1
    3a48:	f8cc 3004 	str.w	r3, [ip, #4]
    3a4c:	f7fd fdc6 	bl	15dc <__malloc_unlock>
    3a50:	3408      	adds	r4, #8
    3a52:	e683      	b.n	375c <_malloc_r+0x50>
    3a54:	08e8      	lsrs	r0, r5, #3
    3a56:	f105 0308 	add.w	r3, r5, #8
    3a5a:	e667      	b.n	372c <_malloc_r+0x20>
    3a5c:	1962      	adds	r2, r4, r5
    3a5e:	f043 0101 	orr.w	r1, r3, #1
    3a62:	f045 0501 	orr.w	r5, r5, #1
    3a66:	6065      	str	r5, [r4, #4]
    3a68:	4630      	mov	r0, r6
    3a6a:	e9c7 2204 	strd	r2, r2, [r7, #16]
    3a6e:	e9c2 8802 	strd	r8, r8, [r2, #8]
    3a72:	6051      	str	r1, [r2, #4]
    3a74:	f844 300c 	str.w	r3, [r4, ip]
    3a78:	f7fd fdb0 	bl	15dc <__malloc_unlock>
    3a7c:	3408      	adds	r4, #8
    3a7e:	e66d      	b.n	375c <_malloc_r+0x50>
    3a80:	ea4f 129c 	mov.w	r2, ip, lsr #6
    3a84:	f102 0339 	add.w	r3, r2, #57	@ 0x39
    3a88:	00db      	lsls	r3, r3, #3
    3a8a:	3238      	adds	r2, #56	@ 0x38
    3a8c:	e78c      	b.n	39a8 <_malloc_r+0x29c>
    3a8e:	42bc      	cmp	r4, r7
    3a90:	d028      	beq.n	3ae4 <_malloc_r+0x3d8>
    3a92:	68bc      	ldr	r4, [r7, #8]
    3a94:	6860      	ldr	r0, [r4, #4]
    3a96:	e750      	b.n	393a <_malloc_r+0x22e>
    3a98:	f103 005c 	add.w	r0, r3, #92	@ 0x5c
    3a9c:	f103 0e5b 	add.w	lr, r3, #91	@ 0x5b
    3aa0:	00c3      	lsls	r3, r0, #3
    3aa2:	e678      	b.n	3796 <_malloc_r+0x8a>
    3aa4:	f85a 3908 	ldr.w	r3, [sl], #-8
    3aa8:	4553      	cmp	r3, sl
    3aaa:	f040 80d7 	bne.w	3c5c <_malloc_r+0x550>
    3aae:	f010 0f03 	tst.w	r0, #3
    3ab2:	f100 30ff 	add.w	r0, r0, #4294967295	@ 0xffffffff
    3ab6:	d1f5      	bne.n	3aa4 <_malloc_r+0x398>
    3ab8:	687b      	ldr	r3, [r7, #4]
    3aba:	ea23 030c 	bic.w	r3, r3, ip
    3abe:	607b      	str	r3, [r7, #4]
    3ac0:	ea4f 0c4c 	mov.w	ip, ip, lsl #1
    3ac4:	459c      	cmp	ip, r3
    3ac6:	f63f aee5 	bhi.w	3894 <_malloc_r+0x188>
    3aca:	f1bc 0f00 	cmp.w	ip, #0
    3ace:	d104      	bne.n	3ada <_malloc_r+0x3ce>
    3ad0:	e6e0      	b.n	3894 <_malloc_r+0x188>
    3ad2:	ea4f 0c4c 	mov.w	ip, ip, lsl #1
    3ad6:	f109 0904 	add.w	r9, r9, #4
    3ada:	ea1c 0f03 	tst.w	ip, r3
    3ade:	d0f8      	beq.n	3ad2 <_malloc_r+0x3c6>
    3ae0:	4648      	mov	r0, r9
    3ae2:	e6b0      	b.n	3846 <_malloc_r+0x13a>
    3ae4:	f8db 0004 	ldr.w	r0, [fp, #4]
    3ae8:	4440      	add	r0, r8
    3aea:	f8cb 0004 	str.w	r0, [fp, #4]
    3aee:	f102 3cff 	add.w	ip, r2, #4294967295	@ 0xffffffff
    3af2:	f8d7 1408 	ldr.w	r1, [r7, #1032]	@ 0x408
    3af6:	3101      	adds	r1, #1
    3af8:	d06d      	beq.n	3bd6 <_malloc_r+0x4ca>
    3afa:	9b00      	ldr	r3, [sp, #0]
    3afc:	ebaa 0303 	sub.w	r3, sl, r3
    3b00:	4418      	add	r0, r3
    3b02:	f8cb 0004 	str.w	r0, [fp, #4]
    3b06:	f01a 0307 	ands.w	r3, sl, #7
    3b0a:	9300      	str	r3, [sp, #0]
    3b0c:	d041      	beq.n	3b92 <_malloc_r+0x486>
    3b0e:	f1c3 0108 	rsb	r1, r3, #8
    3b12:	448a      	add	sl, r1
    3b14:	44d0      	add	r8, sl
    3b16:	440a      	add	r2, r1
    3b18:	ea08 010c 	and.w	r1, r8, ip
    3b1c:	1a52      	subs	r2, r2, r1
    3b1e:	ea02 010c 	and.w	r1, r2, ip
    3b22:	4630      	mov	r0, r6
    3b24:	9101      	str	r1, [sp, #4]
    3b26:	f001 fc9d 	bl	5464 <_sbrk_r>
    3b2a:	1c42      	adds	r2, r0, #1
    3b2c:	d06f      	beq.n	3c0e <_malloc_r+0x502>
    3b2e:	9901      	ldr	r1, [sp, #4]
    3b30:	eba0 000a 	sub.w	r0, r0, sl
    3b34:	eb00 0801 	add.w	r8, r0, r1
    3b38:	f8db 2004 	ldr.w	r2, [fp, #4]
    3b3c:	f8c7 a008 	str.w	sl, [r7, #8]
    3b40:	f048 0001 	orr.w	r0, r8, #1
    3b44:	4411      	add	r1, r2
    3b46:	42bc      	cmp	r4, r7
    3b48:	f8ca 0004 	str.w	r0, [sl, #4]
    3b4c:	f8cb 1004 	str.w	r1, [fp, #4]
    3b50:	f43f aee6 	beq.w	3920 <_malloc_r+0x214>
    3b54:	f1b9 0f0f 	cmp.w	r9, #15
    3b58:	d940      	bls.n	3bdc <_malloc_r+0x4d0>
    3b5a:	6862      	ldr	r2, [r4, #4]
    3b5c:	f1a9 000c 	sub.w	r0, r9, #12
    3b60:	f020 0007 	bic.w	r0, r0, #7
    3b64:	f002 0201 	and.w	r2, r2, #1
    3b68:	4302      	orrs	r2, r0
    3b6a:	6062      	str	r2, [r4, #4]
    3b6c:	2305      	movs	r3, #5
    3b6e:	1822      	adds	r2, r4, r0
    3b70:	280f      	cmp	r0, #15
    3b72:	e9c2 3301 	strd	r3, r3, [r2, #4]
    3b76:	d852      	bhi.n	3c1e <_malloc_r+0x512>
    3b78:	f8da 0004 	ldr.w	r0, [sl, #4]
    3b7c:	e6d0      	b.n	3920 <_malloc_r+0x214>
    3b7e:	1092      	asrs	r2, r2, #2
    3b80:	f04f 0c01 	mov.w	ip, #1
    3b84:	fa0c f202 	lsl.w	r2, ip, r2
    3b88:	ea4e 0e02 	orr.w	lr, lr, r2
    3b8c:	f8c7 e004 	str.w	lr, [r7, #4]
    3b90:	e719      	b.n	39c6 <_malloc_r+0x2ba>
    3b92:	eb0a 0108 	add.w	r1, sl, r8
    3b96:	ea01 010c 	and.w	r1, r1, ip
    3b9a:	1a52      	subs	r2, r2, r1
    3b9c:	ea02 010c 	and.w	r1, r2, ip
    3ba0:	4630      	mov	r0, r6
    3ba2:	9101      	str	r1, [sp, #4]
    3ba4:	f001 fc5e 	bl	5464 <_sbrk_r>
    3ba8:	1c43      	adds	r3, r0, #1
    3baa:	d1c0      	bne.n	3b2e <_malloc_r+0x422>
    3bac:	9900      	ldr	r1, [sp, #0]
    3bae:	e7c3      	b.n	3b38 <_malloc_r+0x42c>
    3bb0:	2a54      	cmp	r2, #84	@ 0x54
    3bb2:	d817      	bhi.n	3be4 <_malloc_r+0x4d8>
    3bb4:	ea4f 321c 	mov.w	r2, ip, lsr #12
    3bb8:	f102 036f 	add.w	r3, r2, #111	@ 0x6f
    3bbc:	00db      	lsls	r3, r3, #3
    3bbe:	326e      	adds	r2, #110	@ 0x6e
    3bc0:	e6f2      	b.n	39a8 <_malloc_r+0x29c>
    3bc2:	f5b3 7faa 	cmp.w	r3, #340	@ 0x154
    3bc6:	d817      	bhi.n	3bf8 <_malloc_r+0x4ec>
    3bc8:	0beb      	lsrs	r3, r5, #15
    3bca:	f103 0078 	add.w	r0, r3, #120	@ 0x78
    3bce:	f103 0e77 	add.w	lr, r3, #119	@ 0x77
    3bd2:	00c3      	lsls	r3, r0, #3
    3bd4:	e5df      	b.n	3796 <_malloc_r+0x8a>
    3bd6:	f8c7 a408 	str.w	sl, [r7, #1032]	@ 0x408
    3bda:	e794      	b.n	3b06 <_malloc_r+0x3fa>
    3bdc:	2301      	movs	r3, #1
    3bde:	f8ca 3004 	str.w	r3, [sl, #4]
    3be2:	e6b2      	b.n	394a <_malloc_r+0x23e>
    3be4:	f5b2 7faa 	cmp.w	r2, #340	@ 0x154
    3be8:	d823      	bhi.n	3c32 <_malloc_r+0x526>
    3bea:	ea4f 32dc 	mov.w	r2, ip, lsr #15
    3bee:	f102 0378 	add.w	r3, r2, #120	@ 0x78
    3bf2:	00db      	lsls	r3, r3, #3
    3bf4:	3277      	adds	r2, #119	@ 0x77
    3bf6:	e6d7      	b.n	39a8 <_malloc_r+0x29c>
    3bf8:	f240 5254 	movw	r2, #1364	@ 0x554
    3bfc:	4293      	cmp	r3, r2
    3bfe:	d823      	bhi.n	3c48 <_malloc_r+0x53c>
    3c00:	0cab      	lsrs	r3, r5, #18
    3c02:	f103 007d 	add.w	r0, r3, #125	@ 0x7d
    3c06:	f103 0e7c 	add.w	lr, r3, #124	@ 0x7c
    3c0a:	00c3      	lsls	r3, r0, #3
    3c0c:	e5c3      	b.n	3796 <_malloc_r+0x8a>
    3c0e:	9b00      	ldr	r3, [sp, #0]
    3c10:	f1a3 0208 	sub.w	r2, r3, #8
    3c14:	4490      	add	r8, r2
    3c16:	eba8 080a 	sub.w	r8, r8, sl
    3c1a:	2100      	movs	r1, #0
    3c1c:	e78c      	b.n	3b38 <_malloc_r+0x42c>
    3c1e:	f104 0108 	add.w	r1, r4, #8
    3c22:	4630      	mov	r0, r6
    3c24:	f001 f850 	bl	4cc8 <_free_r>
    3c28:	f8db 1004 	ldr.w	r1, [fp, #4]
    3c2c:	f8d7 a008 	ldr.w	sl, [r7, #8]
    3c30:	e7a2      	b.n	3b78 <_malloc_r+0x46c>
    3c32:	f240 5354 	movw	r3, #1364	@ 0x554
    3c36:	429a      	cmp	r2, r3
    3c38:	d80c      	bhi.n	3c54 <_malloc_r+0x548>
    3c3a:	ea4f 429c 	mov.w	r2, ip, lsr #18
    3c3e:	f102 037d 	add.w	r3, r2, #125	@ 0x7d
    3c42:	00db      	lsls	r3, r3, #3
    3c44:	327c      	adds	r2, #124	@ 0x7c
    3c46:	e6af      	b.n	39a8 <_malloc_r+0x29c>
    3c48:	f44f 737e 	mov.w	r3, #1016	@ 0x3f8
    3c4c:	207f      	movs	r0, #127	@ 0x7f
    3c4e:	f04f 0e7e 	mov.w	lr, #126	@ 0x7e
    3c52:	e5a0      	b.n	3796 <_malloc_r+0x8a>
    3c54:	f44f 737e 	mov.w	r3, #1016	@ 0x3f8
    3c58:	227e      	movs	r2, #126	@ 0x7e
    3c5a:	e6a5      	b.n	39a8 <_malloc_r+0x29c>
    3c5c:	687b      	ldr	r3, [r7, #4]
    3c5e:	e72f      	b.n	3ac0 <_malloc_r+0x3b4>

00003c60 <quorem>:
    3c60:	e92d 4ff0 	stmdb	sp!, {r4, r5, r6, r7, r8, r9, sl, fp, lr}
    3c64:	6903      	ldr	r3, [r0, #16]
    3c66:	690c      	ldr	r4, [r1, #16]
    3c68:	42a3      	cmp	r3, r4
    3c6a:	b083      	sub	sp, #12
    3c6c:	f2c0 808a 	blt.w	3d84 <quorem+0x124>
    3c70:	3c01      	subs	r4, #1
    3c72:	f101 0514 	add.w	r5, r1, #20
    3c76:	f100 0814 	add.w	r8, r0, #20
    3c7a:	f855 3024 	ldr.w	r3, [r5, r4, lsl #2]
    3c7e:	f858 2024 	ldr.w	r2, [r8, r4, lsl #2]
    3c82:	3301      	adds	r3, #1
    3c84:	429a      	cmp	r2, r3
    3c86:	468e      	mov	lr, r1
    3c88:	4681      	mov	r9, r0
    3c8a:	ea4f 0184 	mov.w	r1, r4, lsl #2
    3c8e:	eb05 0784 	add.w	r7, r5, r4, lsl #2
    3c92:	eb08 0a84 	add.w	sl, r8, r4, lsl #2
    3c96:	fbb2 f6f3 	udiv	r6, r2, r3
    3c9a:	d33a      	bcc.n	3d12 <quorem+0xb2>
    3c9c:	e9cd 1500 	strd	r1, r5, [sp]
    3ca0:	2200      	movs	r2, #0
    3ca2:	46ac      	mov	ip, r5
    3ca4:	4640      	mov	r0, r8
    3ca6:	4613      	mov	r3, r2
    3ca8:	f85c 1b04 	ldr.w	r1, [ip], #4
    3cac:	6805      	ldr	r5, [r0, #0]
    3cae:	fa1f fb81 	uxth.w	fp, r1
    3cb2:	fb06 220b 	mla	r2, r6, fp, r2
    3cb6:	0c09      	lsrs	r1, r1, #16
    3cb8:	ea4f 4b12 	mov.w	fp, r2, lsr #16
    3cbc:	fb06 bb01 	mla	fp, r6, r1, fp
    3cc0:	b292      	uxth	r2, r2
    3cc2:	b2a9      	uxth	r1, r5
    3cc4:	1a89      	subs	r1, r1, r2
    3cc6:	4419      	add	r1, r3
    3cc8:	fa1f f38b 	uxth.w	r3, fp
    3ccc:	ebc3 4321 	rsb	r3, r3, r1, asr #16
    3cd0:	eb03 4315 	add.w	r3, r3, r5, lsr #16
    3cd4:	b289      	uxth	r1, r1
    3cd6:	ea41 4103 	orr.w	r1, r1, r3, lsl #16
    3cda:	4567      	cmp	r7, ip
    3cdc:	f840 1b04 	str.w	r1, [r0], #4
    3ce0:	ea4f 421b 	mov.w	r2, fp, lsr #16
    3ce4:	ea4f 4323 	mov.w	r3, r3, asr #16
    3ce8:	d2de      	bcs.n	3ca8 <quorem+0x48>
    3cea:	e9dd 1500 	ldrd	r1, r5, [sp]
    3cee:	f858 3001 	ldr.w	r3, [r8, r1]
    3cf2:	b973      	cbnz	r3, 3d12 <quorem+0xb2>
    3cf4:	f1aa 0a04 	sub.w	sl, sl, #4
    3cf8:	45d0      	cmp	r8, sl
    3cfa:	d304      	bcc.n	3d06 <quorem+0xa6>
    3cfc:	e007      	b.n	3d0e <quorem+0xae>
    3cfe:	45d0      	cmp	r8, sl
    3d00:	f104 34ff 	add.w	r4, r4, #4294967295	@ 0xffffffff
    3d04:	d203      	bcs.n	3d0e <quorem+0xae>
    3d06:	f85a 3904 	ldr.w	r3, [sl], #-4
    3d0a:	2b00      	cmp	r3, #0
    3d0c:	d0f7      	beq.n	3cfe <quorem+0x9e>
    3d0e:	f8c9 4010 	str.w	r4, [r9, #16]
    3d12:	4671      	mov	r1, lr
    3d14:	4648      	mov	r0, r9
    3d16:	f001 ff6f 	bl	5bf8 <__mcmp>
    3d1a:	2800      	cmp	r0, #0
    3d1c:	db2e      	blt.n	3d7c <quorem+0x11c>
    3d1e:	4641      	mov	r1, r8
    3d20:	2200      	movs	r2, #0
    3d22:	f855 0b04 	ldr.w	r0, [r5], #4
    3d26:	f8d1 c000 	ldr.w	ip, [r1]
    3d2a:	fa1f fe80 	uxth.w	lr, r0
    3d2e:	fa1f f38c 	uxth.w	r3, ip
    3d32:	eba3 030e 	sub.w	r3, r3, lr
    3d36:	4413      	add	r3, r2
    3d38:	0c02      	lsrs	r2, r0, #16
    3d3a:	ebc2 4223 	rsb	r2, r2, r3, asr #16
    3d3e:	eb02 421c 	add.w	r2, r2, ip, lsr #16
    3d42:	b29b      	uxth	r3, r3
    3d44:	ea43 4302 	orr.w	r3, r3, r2, lsl #16
    3d48:	42af      	cmp	r7, r5
    3d4a:	f841 3b04 	str.w	r3, [r1], #4
    3d4e:	ea4f 4222 	mov.w	r2, r2, asr #16
    3d52:	d2e6      	bcs.n	3d22 <quorem+0xc2>
    3d54:	f858 2024 	ldr.w	r2, [r8, r4, lsl #2]
    3d58:	eb08 0384 	add.w	r3, r8, r4, lsl #2
    3d5c:	b96a      	cbnz	r2, 3d7a <quorem+0x11a>
    3d5e:	3b04      	subs	r3, #4
    3d60:	4543      	cmp	r3, r8
    3d62:	d804      	bhi.n	3d6e <quorem+0x10e>
    3d64:	e007      	b.n	3d76 <quorem+0x116>
    3d66:	4598      	cmp	r8, r3
    3d68:	f104 34ff 	add.w	r4, r4, #4294967295	@ 0xffffffff
    3d6c:	d203      	bcs.n	3d76 <quorem+0x116>
    3d6e:	f853 2904 	ldr.w	r2, [r3], #-4
    3d72:	2a00      	cmp	r2, #0
    3d74:	d0f7      	beq.n	3d66 <quorem+0x106>
    3d76:	f8c9 4010 	str.w	r4, [r9, #16]
    3d7a:	3601      	adds	r6, #1
    3d7c:	4630      	mov	r0, r6
    3d7e:	b003      	add	sp, #12
    3d80:	e8bd 8ff0 	ldmia.w	sp!, {r4, r5, r6, r7, r8, r9, sl, fp, pc}
    3d84:	2000      	movs	r0, #0
    3d86:	b003      	add	sp, #12
    3d88:	e8bd 8ff0 	ldmia.w	sp!, {r4, r5, r6, r7, r8, r9, sl, fp, pc}

00003d8c <_dtoa_r>:
    3d8c:	e92d 4ff0 	stmdb	sp!, {r4, r5, r6, r7, r8, r9, sl, fp, lr}
    3d90:	b09d      	sub	sp, #116	@ 0x74
    3d92:	e9cd 320a 	strd	r3, r2, [sp, #40]	@ 0x28
    3d96:	9102      	str	r1, [sp, #8]
    3d98:	6b81      	ldr	r1, [r0, #56]	@ 0x38
    3d9a:	9d26      	ldr	r5, [sp, #152]	@ 0x98
    3d9c:	9004      	str	r0, [sp, #16]
    3d9e:	ed8d 0b06 	vstr	d0, [sp, #24]
    3da2:	ec57 6b10 	vmov	r6, r7, d0
    3da6:	b149      	cbz	r1, 3dbc <_dtoa_r+0x30>
    3da8:	6bc2      	ldr	r2, [r0, #60]	@ 0x3c
    3daa:	604a      	str	r2, [r1, #4]
    3dac:	2301      	movs	r3, #1
    3dae:	4093      	lsls	r3, r2
    3db0:	4604      	mov	r4, r0
    3db2:	608b      	str	r3, [r1, #8]
    3db4:	f001 fc64 	bl	5680 <_Bfree>
    3db8:	2300      	movs	r3, #0
    3dba:	63a3      	str	r3, [r4, #56]	@ 0x38
    3dbc:	f1b7 0900 	subs.w	r9, r7, #0
    3dc0:	bfb4      	ite	lt
    3dc2:	2301      	movlt	r3, #1
    3dc4:	2300      	movge	r3, #0
    3dc6:	602b      	str	r3, [r5, #0]
    3dc8:	4b77      	ldr	r3, [pc, #476]	@ (3fa8 <_dtoa_r+0x21c>)
    3dca:	bfbc      	itt	lt
    3dcc:	f029 4900 	biclt.w	r9, r9, #2147483648	@ 0x80000000
    3dd0:	f8cd 901c 	strlt.w	r9, [sp, #28]
    3dd4:	ea33 0309 	bics.w	r3, r3, r9
    3dd8:	f000 80aa 	beq.w	3f30 <_dtoa_r+0x1a4>
    3ddc:	ed9d 7b06 	vldr	d7, [sp, #24]
    3de0:	2200      	movs	r2, #0
    3de2:	ec51 0b17 	vmov	r0, r1, d7
    3de6:	2300      	movs	r3, #0
    3de8:	ed8d 7b00 	vstr	d7, [sp]
    3dec:	f004 fcac 	bl	8748 <__aeabi_dcmpeq>
    3df0:	4680      	mov	r8, r0
    3df2:	b168      	cbz	r0, 3e10 <_dtoa_r+0x84>
    3df4:	9a0a      	ldr	r2, [sp, #40]	@ 0x28
    3df6:	2301      	movs	r3, #1
    3df8:	6013      	str	r3, [r2, #0]
    3dfa:	9b27      	ldr	r3, [sp, #156]	@ 0x9c
    3dfc:	b113      	cbz	r3, 3e04 <_dtoa_r+0x78>
    3dfe:	9a27      	ldr	r2, [sp, #156]	@ 0x9c
    3e00:	4b6a      	ldr	r3, [pc, #424]	@ (3fac <_dtoa_r+0x220>)
    3e02:	6013      	str	r3, [r2, #0]
    3e04:	4b6a      	ldr	r3, [pc, #424]	@ (3fb0 <_dtoa_r+0x224>)
    3e06:	9305      	str	r3, [sp, #20]
    3e08:	9805      	ldr	r0, [sp, #20]
    3e0a:	b01d      	add	sp, #116	@ 0x74
    3e0c:	e8bd 8ff0 	ldmia.w	sp!, {r4, r5, r6, r7, r8, r9, sl, fp, pc}
    3e10:	ed9d 0b00 	vldr	d0, [sp]
    3e14:	9804      	ldr	r0, [sp, #16]
    3e16:	aa1a      	add	r2, sp, #104	@ 0x68
    3e18:	a91b      	add	r1, sp, #108	@ 0x6c
    3e1a:	f002 f85b 	bl	5ed4 <__d2b>
    3e1e:	ea5f 5519 	movs.w	r5, r9, lsr #20
    3e22:	4682      	mov	sl, r0
    3e24:	f040 809a 	bne.w	3f5c <_dtoa_r+0x1d0>
    3e28:	e9dd 851a 	ldrd	r8, r5, [sp, #104]	@ 0x68
    3e2c:	4445      	add	r5, r8
    3e2e:	f205 4332 	addw	r3, r5, #1074	@ 0x432
    3e32:	2b20      	cmp	r3, #32
    3e34:	f340 838c 	ble.w	4550 <_dtoa_r+0x7c4>
    3e38:	f1c3 0340 	rsb	r3, r3, #64	@ 0x40
    3e3c:	fa09 f903 	lsl.w	r9, r9, r3
    3e40:	f205 4312 	addw	r3, r5, #1042	@ 0x412
    3e44:	fa26 f303 	lsr.w	r3, r6, r3
    3e48:	ea49 0003 	orr.w	r0, r9, r3
    3e4c:	f004 f99a 	bl	8184 <__aeabi_ui2d>
    3e50:	2301      	movs	r3, #1
    3e52:	3d01      	subs	r5, #1
    3e54:	f1a1 71f8 	sub.w	r1, r1, #32505856	@ 0x1f00000
    3e58:	9312      	str	r3, [sp, #72]	@ 0x48
    3e5a:	4b56      	ldr	r3, [pc, #344]	@ (3fb4 <_dtoa_r+0x228>)
    3e5c:	2200      	movs	r2, #0
    3e5e:	f004 f853 	bl	7f08 <__aeabi_dsub>
    3e62:	a34b      	add	r3, pc, #300	@ (adr r3, 3f90 <_dtoa_r+0x204>)
    3e64:	e9d3 2300 	ldrd	r2, r3, [r3]
    3e68:	f004 fa06 	bl	8278 <__aeabi_dmul>
    3e6c:	a34a      	add	r3, pc, #296	@ (adr r3, 3f98 <_dtoa_r+0x20c>)
    3e6e:	e9d3 2300 	ldrd	r2, r3, [r3]
    3e72:	f004 f84b 	bl	7f0c <__adddf3>
    3e76:	4606      	mov	r6, r0
    3e78:	4628      	mov	r0, r5
    3e7a:	460f      	mov	r7, r1
    3e7c:	f004 f992 	bl	81a4 <__aeabi_i2d>
    3e80:	a347      	add	r3, pc, #284	@ (adr r3, 3fa0 <_dtoa_r+0x214>)
    3e82:	e9d3 2300 	ldrd	r2, r3, [r3]
    3e86:	f004 f9f7 	bl	8278 <__aeabi_dmul>
    3e8a:	4602      	mov	r2, r0
    3e8c:	460b      	mov	r3, r1
    3e8e:	4630      	mov	r0, r6
    3e90:	4639      	mov	r1, r7
    3e92:	f004 f83b 	bl	7f0c <__adddf3>
    3e96:	4606      	mov	r6, r0
    3e98:	460f      	mov	r7, r1
    3e9a:	f004 fc9d 	bl	87d8 <__aeabi_d2iz>
    3e9e:	2200      	movs	r2, #0
    3ea0:	4604      	mov	r4, r0
    3ea2:	9009      	str	r0, [sp, #36]	@ 0x24
    3ea4:	2300      	movs	r3, #0
    3ea6:	4630      	mov	r0, r6
    3ea8:	4639      	mov	r1, r7
    3eaa:	f004 fc57 	bl	875c <__aeabi_dcmplt>
    3eae:	2800      	cmp	r0, #0
    3eb0:	f040 8324 	bne.w	44fc <_dtoa_r+0x770>
    3eb4:	9c09      	ldr	r4, [sp, #36]	@ 0x24
    3eb6:	eba8 0805 	sub.w	r8, r8, r5
    3eba:	f108 33ff 	add.w	r3, r8, #4294967295	@ 0xffffffff
    3ebe:	2c16      	cmp	r4, #22
    3ec0:	9308      	str	r3, [sp, #32]
    3ec2:	f200 818c 	bhi.w	41de <_dtoa_r+0x452>
    3ec6:	4b3c      	ldr	r3, [pc, #240]	@ (3fb8 <_dtoa_r+0x22c>)
    3ec8:	eb03 03c4 	add.w	r3, r3, r4, lsl #3
    3ecc:	e9d3 2300 	ldrd	r2, r3, [r3]
    3ed0:	e9dd 0100 	ldrd	r0, r1, [sp]
    3ed4:	f004 fc42 	bl	875c <__aeabi_dcmplt>
    3ed8:	2800      	cmp	r0, #0
    3eda:	d073      	beq.n	3fc4 <_dtoa_r+0x238>
    3edc:	1e63      	subs	r3, r4, #1
    3ede:	9309      	str	r3, [sp, #36]	@ 0x24
    3ee0:	2300      	movs	r3, #0
    3ee2:	9311      	str	r3, [sp, #68]	@ 0x44
    3ee4:	9b08      	ldr	r3, [sp, #32]
    3ee6:	2b00      	cmp	r3, #0
    3ee8:	f2c0 817f 	blt.w	41ea <_dtoa_r+0x45e>
    3eec:	2300      	movs	r3, #0
    3eee:	930c      	str	r3, [sp, #48]	@ 0x30
    3ef0:	9b09      	ldr	r3, [sp, #36]	@ 0x24
    3ef2:	2b00      	cmp	r3, #0
    3ef4:	da6c      	bge.n	3fd0 <_dtoa_r+0x244>
    3ef6:	9b09      	ldr	r3, [sp, #36]	@ 0x24
    3ef8:	9a0c      	ldr	r2, [sp, #48]	@ 0x30
    3efa:	930d      	str	r3, [sp, #52]	@ 0x34
    3efc:	1ad2      	subs	r2, r2, r3
    3efe:	920c      	str	r2, [sp, #48]	@ 0x30
    3f00:	425a      	negs	r2, r3
    3f02:	2300      	movs	r3, #0
    3f04:	9309      	str	r3, [sp, #36]	@ 0x24
    3f06:	9b02      	ldr	r3, [sp, #8]
    3f08:	9210      	str	r2, [sp, #64]	@ 0x40
    3f0a:	2b09      	cmp	r3, #9
    3f0c:	d86a      	bhi.n	3fe4 <_dtoa_r+0x258>
    3f0e:	2b05      	cmp	r3, #5
    3f10:	f340 8323 	ble.w	455a <_dtoa_r+0x7ce>
    3f14:	3b04      	subs	r3, #4
    3f16:	9302      	str	r3, [sp, #8]
    3f18:	2500      	movs	r5, #0
    3f1a:	9b02      	ldr	r3, [sp, #8]
    3f1c:	3b02      	subs	r3, #2
    3f1e:	2b03      	cmp	r3, #3
    3f20:	f200 8638 	bhi.w	4b94 <_dtoa_r+0xe08>
    3f24:	e8df f013 	tbh	[pc, r3, lsl #1]
    3f28:	046d0470 	.word	0x046d0470
    3f2c:	04490465 	.word	0x04490465
    3f30:	9a0a      	ldr	r2, [sp, #40]	@ 0x28
    3f32:	f3c9 0913 	ubfx	r9, r9, #0, #20
    3f36:	f242 730f 	movw	r3, #9999	@ 0x270f
    3f3a:	ea59 0906 	orrs.w	r9, r9, r6
    3f3e:	6013      	str	r3, [r2, #0]
    3f40:	d11c      	bne.n	3f7c <_dtoa_r+0x1f0>
    3f42:	9b27      	ldr	r3, [sp, #156]	@ 0x9c
    3f44:	2b00      	cmp	r3, #0
    3f46:	f000 8645 	beq.w	4bd4 <_dtoa_r+0xe48>
    3f4a:	4b1c      	ldr	r3, [pc, #112]	@ (3fbc <_dtoa_r+0x230>)
    3f4c:	9305      	str	r3, [sp, #20]
    3f4e:	3308      	adds	r3, #8
    3f50:	9a27      	ldr	r2, [sp, #156]	@ 0x9c
    3f52:	9805      	ldr	r0, [sp, #20]
    3f54:	6013      	str	r3, [r2, #0]
    3f56:	b01d      	add	sp, #116	@ 0x74
    3f58:	e8bd 8ff0 	ldmia.w	sp!, {r4, r5, r6, r7, r8, r9, sl, fp, pc}
    3f5c:	e9dd 1200 	ldrd	r1, r2, [sp]
    3f60:	f3c2 0313 	ubfx	r3, r2, #0, #20
    3f64:	4608      	mov	r0, r1
    3f66:	f043 517f 	orr.w	r1, r3, #1069547520	@ 0x3fc00000
    3f6a:	f8cd 8048 	str.w	r8, [sp, #72]	@ 0x48
    3f6e:	f2a5 35ff 	subw	r5, r5, #1023	@ 0x3ff
    3f72:	f8dd 8068 	ldr.w	r8, [sp, #104]	@ 0x68
    3f76:	f441 1140 	orr.w	r1, r1, #3145728	@ 0x300000
    3f7a:	e76e      	b.n	3e5a <_dtoa_r+0xce>
    3f7c:	9b27      	ldr	r3, [sp, #156]	@ 0x9c
    3f7e:	2b00      	cmp	r3, #0
    3f80:	f040 83f6 	bne.w	4770 <_dtoa_r+0x9e4>
    3f84:	4b0e      	ldr	r3, [pc, #56]	@ (3fc0 <_dtoa_r+0x234>)
    3f86:	9305      	str	r3, [sp, #20]
    3f88:	e73e      	b.n	3e08 <_dtoa_r+0x7c>
    3f8a:	bf00      	nop
    3f8c:	f3af 8000 	nop.w
    3f90:	636f4361 	.word	0x636f4361
    3f94:	3fd287a7 	.word	0x3fd287a7
    3f98:	8b60c8b3 	.word	0x8b60c8b3
    3f9c:	3fc68a28 	.word	0x3fc68a28
    3fa0:	509f79fb 	.word	0x509f79fb
    3fa4:	3fd34413 	.word	0x3fd34413
    3fa8:	7ff00000 	.word	0x7ff00000
    3fac:	0000970d 	.word	0x0000970d
    3fb0:	0000970c 	.word	0x0000970c
    3fb4:	3ff80000 	.word	0x3ff80000
    3fb8:	00009918 	.word	0x00009918
    3fbc:	00009710 	.word	0x00009710
    3fc0:	0000971c 	.word	0x0000971c
    3fc4:	f1b8 0f00 	cmp.w	r8, #0
    3fc8:	f340 84a3 	ble.w	4912 <_dtoa_r+0xb86>
    3fcc:	9011      	str	r0, [sp, #68]	@ 0x44
    3fce:	900c      	str	r0, [sp, #48]	@ 0x30
    3fd0:	e9dd 3208 	ldrd	r3, r2, [sp, #32]
    3fd4:	4413      	add	r3, r2
    3fd6:	9308      	str	r3, [sp, #32]
    3fd8:	2300      	movs	r3, #0
    3fda:	9310      	str	r3, [sp, #64]	@ 0x40
    3fdc:	9b02      	ldr	r3, [sp, #8]
    3fde:	920d      	str	r2, [sp, #52]	@ 0x34
    3fe0:	2b09      	cmp	r3, #9
    3fe2:	d994      	bls.n	3f0e <_dtoa_r+0x182>
    3fe4:	2300      	movs	r3, #0
    3fe6:	2501      	movs	r5, #1
    3fe8:	9302      	str	r3, [sp, #8]
    3fea:	950e      	str	r5, [sp, #56]	@ 0x38
    3fec:	f04f 3bff 	mov.w	fp, #4294967295	@ 0xffffffff
    3ff0:	930b      	str	r3, [sp, #44]	@ 0x2c
    3ff2:	9b04      	ldr	r3, [sp, #16]
    3ff4:	f8cd b04c 	str.w	fp, [sp, #76]	@ 0x4c
    3ff8:	2100      	movs	r1, #0
    3ffa:	63d9      	str	r1, [r3, #60]	@ 0x3c
    3ffc:	9804      	ldr	r0, [sp, #16]
    3ffe:	f001 fb19 	bl	5634 <_Balloc>
    4002:	9005      	str	r0, [sp, #20]
    4004:	2800      	cmp	r0, #0
    4006:	f000 85ce 	beq.w	4ba6 <_dtoa_r+0xe1a>
    400a:	e9dd 3204 	ldrd	r3, r2, [sp, #16]
    400e:	f1bb 0f0e 	cmp.w	fp, #14
    4012:	639a      	str	r2, [r3, #56]	@ 0x38
    4014:	f200 8118 	bhi.w	4248 <_dtoa_r+0x4bc>
    4018:	2d00      	cmp	r5, #0
    401a:	f000 8115 	beq.w	4248 <_dtoa_r+0x4bc>
    401e:	990d      	ldr	r1, [sp, #52]	@ 0x34
    4020:	2900      	cmp	r1, #0
    4022:	f340 8446 	ble.w	48b2 <_dtoa_r+0xb26>
    4026:	4bb3      	ldr	r3, [pc, #716]	@ (42f4 <_dtoa_r+0x568>)
    4028:	f001 020f 	and.w	r2, r1, #15
    402c:	eb03 03c2 	add.w	r3, r3, r2, lsl #3
    4030:	05c8      	lsls	r0, r1, #23
    4032:	e9d3 8900 	ldrd	r8, r9, [r3]
    4036:	ea4f 1521 	mov.w	r5, r1, asr #4
    403a:	f140 8408 	bpl.w	484e <_dtoa_r+0xac2>
    403e:	4bae      	ldr	r3, [pc, #696]	@ (42f8 <_dtoa_r+0x56c>)
    4040:	e9dd 0100 	ldrd	r0, r1, [sp]
    4044:	e9d3 2308 	ldrd	r2, r3, [r3, #32]
    4048:	f004 fa40 	bl	84cc <__aeabi_ddiv>
    404c:	e9cd 0114 	strd	r0, r1, [sp, #80]	@ 0x50
    4050:	f005 050f 	and.w	r5, r5, #15
    4054:	2703      	movs	r7, #3
    4056:	b17d      	cbz	r5, 4078 <_dtoa_r+0x2ec>
    4058:	4ea7      	ldr	r6, [pc, #668]	@ (42f8 <_dtoa_r+0x56c>)
    405a:	07e9      	lsls	r1, r5, #31
    405c:	d508      	bpl.n	4070 <_dtoa_r+0x2e4>
    405e:	4640      	mov	r0, r8
    4060:	4649      	mov	r1, r9
    4062:	e9d6 2300 	ldrd	r2, r3, [r6]
    4066:	f004 f907 	bl	8278 <__aeabi_dmul>
    406a:	3701      	adds	r7, #1
    406c:	4680      	mov	r8, r0
    406e:	4689      	mov	r9, r1
    4070:	106d      	asrs	r5, r5, #1
    4072:	f106 0608 	add.w	r6, r6, #8
    4076:	d1f0      	bne.n	405a <_dtoa_r+0x2ce>
    4078:	4642      	mov	r2, r8
    407a:	464b      	mov	r3, r9
    407c:	e9dd 0114 	ldrd	r0, r1, [sp, #80]	@ 0x50
    4080:	f004 fa24 	bl	84cc <__aeabi_ddiv>
    4084:	4680      	mov	r8, r0
    4086:	4689      	mov	r9, r1
    4088:	9b11      	ldr	r3, [sp, #68]	@ 0x44
    408a:	b143      	cbz	r3, 409e <_dtoa_r+0x312>
    408c:	4b9b      	ldr	r3, [pc, #620]	@ (42fc <_dtoa_r+0x570>)
    408e:	2200      	movs	r2, #0
    4090:	4640      	mov	r0, r8
    4092:	4649      	mov	r1, r9
    4094:	f004 fb62 	bl	875c <__aeabi_dcmplt>
    4098:	2800      	cmp	r0, #0
    409a:	f040 850b 	bne.w	4ab4 <_dtoa_r+0xd28>
    409e:	4638      	mov	r0, r7
    40a0:	f004 f880 	bl	81a4 <__aeabi_i2d>
    40a4:	4642      	mov	r2, r8
    40a6:	464b      	mov	r3, r9
    40a8:	f004 f8e6 	bl	8278 <__aeabi_dmul>
    40ac:	4b94      	ldr	r3, [pc, #592]	@ (4300 <_dtoa_r+0x574>)
    40ae:	2200      	movs	r2, #0
    40b0:	f003 ff2c 	bl	7f0c <__adddf3>
    40b4:	f1a1 7350 	sub.w	r3, r1, #54525952	@ 0x3400000
    40b8:	e9cd 0114 	strd	r0, r1, [sp, #80]	@ 0x50
    40bc:	9315      	str	r3, [sp, #84]	@ 0x54
    40be:	f1bb 0f00 	cmp.w	fp, #0
    40c2:	f000 80a8 	beq.w	4216 <_dtoa_r+0x48a>
    40c6:	9b0d      	ldr	r3, [sp, #52]	@ 0x34
    40c8:	e9cd b318 	strd	fp, r3, [sp, #96]	@ 0x60
    40cc:	4649      	mov	r1, r9
    40ce:	4640      	mov	r0, r8
    40d0:	f004 fb82 	bl	87d8 <__aeabi_d2iz>
    40d4:	9a18      	ldr	r2, [sp, #96]	@ 0x60
    40d6:	4b87      	ldr	r3, [pc, #540]	@ (42f4 <_dtoa_r+0x568>)
    40d8:	eb03 03c2 	add.w	r3, r3, r2, lsl #3
    40dc:	ed13 7b02 	vldr	d7, [r3, #-8]
    40e0:	4605      	mov	r5, r0
    40e2:	ed8d 7b16 	vstr	d7, [sp, #88]	@ 0x58
    40e6:	f004 f85d 	bl	81a4 <__aeabi_i2d>
    40ea:	460b      	mov	r3, r1
    40ec:	4602      	mov	r2, r0
    40ee:	4649      	mov	r1, r9
    40f0:	4640      	mov	r0, r8
    40f2:	f003 ff09 	bl	7f08 <__aeabi_dsub>
    40f6:	9f05      	ldr	r7, [sp, #20]
    40f8:	9b0e      	ldr	r3, [sp, #56]	@ 0x38
    40fa:	3530      	adds	r5, #48	@ 0x30
    40fc:	1c7e      	adds	r6, r7, #1
    40fe:	b2ec      	uxtb	r4, r5
    4100:	4680      	mov	r8, r0
    4102:	4689      	mov	r9, r1
    4104:	4635      	mov	r5, r6
    4106:	2b00      	cmp	r3, #0
    4108:	f000 846c 	beq.w	49e4 <_dtoa_r+0xc58>
    410c:	e9dd 2316 	ldrd	r2, r3, [sp, #88]	@ 0x58
    4110:	497c      	ldr	r1, [pc, #496]	@ (4304 <_dtoa_r+0x578>)
    4112:	2000      	movs	r0, #0
    4114:	f004 f9da 	bl	84cc <__aeabi_ddiv>
    4118:	e9dd 2314 	ldrd	r2, r3, [sp, #80]	@ 0x50
    411c:	f003 fef4 	bl	7f08 <__aeabi_dsub>
    4120:	703c      	strb	r4, [r7, #0]
    4122:	4642      	mov	r2, r8
    4124:	464b      	mov	r3, r9
    4126:	4604      	mov	r4, r0
    4128:	460d      	mov	r5, r1
    412a:	f004 fb35 	bl	8798 <__aeabi_dcmpgt>
    412e:	2800      	cmp	r0, #0
    4130:	f040 84b8 	bne.w	4aa4 <_dtoa_r+0xd18>
    4134:	f8cd a050 	str.w	sl, [sp, #80]	@ 0x50
    4138:	f8cd b058 	str.w	fp, [sp, #88]	@ 0x58
    413c:	2700      	movs	r7, #0
    413e:	46ab      	mov	fp, r5
    4140:	46a2      	mov	sl, r4
    4142:	9d18      	ldr	r5, [sp, #96]	@ 0x60
    4144:	e02a      	b.n	419c <_dtoa_r+0x410>
    4146:	3701      	adds	r7, #1
    4148:	42af      	cmp	r7, r5
    414a:	f280 84fd 	bge.w	4b48 <_dtoa_r+0xdbc>
    414e:	4b6e      	ldr	r3, [pc, #440]	@ (4308 <_dtoa_r+0x57c>)
    4150:	4650      	mov	r0, sl
    4152:	4659      	mov	r1, fp
    4154:	2200      	movs	r2, #0
    4156:	f004 f88f 	bl	8278 <__aeabi_dmul>
    415a:	4b6b      	ldr	r3, [pc, #428]	@ (4308 <_dtoa_r+0x57c>)
    415c:	2200      	movs	r2, #0
    415e:	4682      	mov	sl, r0
    4160:	468b      	mov	fp, r1
    4162:	4640      	mov	r0, r8
    4164:	4649      	mov	r1, r9
    4166:	f004 f887 	bl	8278 <__aeabi_dmul>
    416a:	4689      	mov	r9, r1
    416c:	4680      	mov	r8, r0
    416e:	f004 fb33 	bl	87d8 <__aeabi_d2iz>
    4172:	4604      	mov	r4, r0
    4174:	f004 f816 	bl	81a4 <__aeabi_i2d>
    4178:	4602      	mov	r2, r0
    417a:	460b      	mov	r3, r1
    417c:	4640      	mov	r0, r8
    417e:	4649      	mov	r1, r9
    4180:	f003 fec2 	bl	7f08 <__aeabi_dsub>
    4184:	3430      	adds	r4, #48	@ 0x30
    4186:	f806 4b01 	strb.w	r4, [r6], #1
    418a:	4652      	mov	r2, sl
    418c:	465b      	mov	r3, fp
    418e:	4680      	mov	r8, r0
    4190:	4689      	mov	r9, r1
    4192:	f004 fae3 	bl	875c <__aeabi_dcmplt>
    4196:	2800      	cmp	r0, #0
    4198:	f040 84d3 	bne.w	4b42 <_dtoa_r+0xdb6>
    419c:	4642      	mov	r2, r8
    419e:	464b      	mov	r3, r9
    41a0:	4956      	ldr	r1, [pc, #344]	@ (42fc <_dtoa_r+0x570>)
    41a2:	2000      	movs	r0, #0
    41a4:	f003 feb0 	bl	7f08 <__aeabi_dsub>
    41a8:	4652      	mov	r2, sl
    41aa:	465b      	mov	r3, fp
    41ac:	f004 fad6 	bl	875c <__aeabi_dcmplt>
    41b0:	2800      	cmp	r0, #0
    41b2:	d0c8      	beq.n	4146 <_dtoa_r+0x3ba>
    41b4:	9b19      	ldr	r3, [sp, #100]	@ 0x64
    41b6:	f8dd a050 	ldr.w	sl, [sp, #80]	@ 0x50
    41ba:	9a05      	ldr	r2, [sp, #20]
    41bc:	4637      	mov	r7, r6
    41be:	f103 0801 	add.w	r8, r3, #1
    41c2:	e002      	b.n	41ca <_dtoa_r+0x43e>
    41c4:	4297      	cmp	r7, r2
    41c6:	f000 849b 	beq.w	4b00 <_dtoa_r+0xd74>
    41ca:	463e      	mov	r6, r7
    41cc:	f817 3d01 	ldrb.w	r3, [r7, #-1]!
    41d0:	2b39      	cmp	r3, #57	@ 0x39
    41d2:	d0f7      	beq.n	41c4 <_dtoa_r+0x438>
    41d4:	3301      	adds	r3, #1
    41d6:	b2db      	uxtb	r3, r3
    41d8:	703b      	strb	r3, [r7, #0]
    41da:	4645      	mov	r5, r8
    41dc:	e17d      	b.n	44da <_dtoa_r+0x74e>
    41de:	2301      	movs	r3, #1
    41e0:	9311      	str	r3, [sp, #68]	@ 0x44
    41e2:	9b08      	ldr	r3, [sp, #32]
    41e4:	2b00      	cmp	r3, #0
    41e6:	f6bf ae81 	bge.w	3eec <_dtoa_r+0x160>
    41ea:	f1c8 0301 	rsb	r3, r8, #1
    41ee:	930c      	str	r3, [sp, #48]	@ 0x30
    41f0:	2300      	movs	r3, #0
    41f2:	9308      	str	r3, [sp, #32]
    41f4:	e67c      	b.n	3ef0 <_dtoa_r+0x164>
    41f6:	4638      	mov	r0, r7
    41f8:	f003 ffd4 	bl	81a4 <__aeabi_i2d>
    41fc:	4642      	mov	r2, r8
    41fe:	464b      	mov	r3, r9
    4200:	f004 f83a 	bl	8278 <__aeabi_dmul>
    4204:	4b3e      	ldr	r3, [pc, #248]	@ (4300 <_dtoa_r+0x574>)
    4206:	2200      	movs	r2, #0
    4208:	f003 fe80 	bl	7f0c <__adddf3>
    420c:	f1a1 7350 	sub.w	r3, r1, #54525952	@ 0x3400000
    4210:	e9cd 0114 	strd	r0, r1, [sp, #80]	@ 0x50
    4214:	9315      	str	r3, [sp, #84]	@ 0x54
    4216:	4b3d      	ldr	r3, [pc, #244]	@ (430c <_dtoa_r+0x580>)
    4218:	2200      	movs	r2, #0
    421a:	4640      	mov	r0, r8
    421c:	4649      	mov	r1, r9
    421e:	f003 fe73 	bl	7f08 <__aeabi_dsub>
    4222:	e9dd 4514 	ldrd	r4, r5, [sp, #80]	@ 0x50
    4226:	4622      	mov	r2, r4
    4228:	462b      	mov	r3, r5
    422a:	4606      	mov	r6, r0
    422c:	460f      	mov	r7, r1
    422e:	f004 fab3 	bl	8798 <__aeabi_dcmpgt>
    4232:	2800      	cmp	r0, #0
    4234:	f040 8473 	bne.w	4b1e <_dtoa_r+0xd92>
    4238:	4630      	mov	r0, r6
    423a:	4639      	mov	r1, r7
    423c:	4622      	mov	r2, r4
    423e:	f105 4300 	add.w	r3, r5, #2147483648	@ 0x80000000
    4242:	f004 fa8b 	bl	875c <__aeabi_dcmplt>
    4246:	bb28      	cbnz	r0, 4294 <_dtoa_r+0x508>
    4248:	9b1b      	ldr	r3, [sp, #108]	@ 0x6c
    424a:	2b00      	cmp	r3, #0
    424c:	f2c0 8090 	blt.w	4370 <_dtoa_r+0x5e4>
    4250:	9a0d      	ldr	r2, [sp, #52]	@ 0x34
    4252:	2a0e      	cmp	r2, #14
    4254:	f300 808c 	bgt.w	4370 <_dtoa_r+0x5e4>
    4258:	4b26      	ldr	r3, [pc, #152]	@ (42f4 <_dtoa_r+0x568>)
    425a:	9a0d      	ldr	r2, [sp, #52]	@ 0x34
    425c:	eb03 03c2 	add.w	r3, r3, r2, lsl #3
    4260:	ed93 7b00 	vldr	d7, [r3]
    4264:	9b0b      	ldr	r3, [sp, #44]	@ 0x2c
    4266:	2b00      	cmp	r3, #0
    4268:	ed8d 7b02 	vstr	d7, [sp, #8]
    426c:	da19      	bge.n	42a2 <_dtoa_r+0x516>
    426e:	f1bb 0f00 	cmp.w	fp, #0
    4272:	dc16      	bgt.n	42a2 <_dtoa_r+0x516>
    4274:	d10e      	bne.n	4294 <_dtoa_r+0x508>
    4276:	4b25      	ldr	r3, [pc, #148]	@ (430c <_dtoa_r+0x580>)
    4278:	2200      	movs	r2, #0
    427a:	e9dd 0102 	ldrd	r0, r1, [sp, #8]
    427e:	f003 fffb 	bl	8278 <__aeabi_dmul>
    4282:	4602      	mov	r2, r0
    4284:	460b      	mov	r3, r1
    4286:	e9dd 0100 	ldrd	r0, r1, [sp]
    428a:	f004 fa71 	bl	8770 <__aeabi_dcmple>
    428e:	2800      	cmp	r0, #0
    4290:	f000 8445 	beq.w	4b1e <_dtoa_r+0xd92>
    4294:	2300      	movs	r3, #0
    4296:	9e05      	ldr	r6, [sp, #20]
    4298:	9300      	str	r3, [sp, #0]
    429a:	461f      	mov	r7, r3
    429c:	9b0b      	ldr	r3, [sp, #44]	@ 0x2c
    429e:	43dd      	mvns	r5, r3
    42a0:	e22d      	b.n	46fe <_dtoa_r+0x972>
    42a2:	9b05      	ldr	r3, [sp, #20]
    42a4:	1c5d      	adds	r5, r3, #1
    42a6:	e9dd 7802 	ldrd	r7, r8, [sp, #8]
    42aa:	e9dd 0100 	ldrd	r0, r1, [sp]
    42ae:	463a      	mov	r2, r7
    42b0:	4643      	mov	r3, r8
    42b2:	f004 f90b 	bl	84cc <__aeabi_ddiv>
    42b6:	f004 fa8f 	bl	87d8 <__aeabi_d2iz>
    42ba:	4606      	mov	r6, r0
    42bc:	f003 ff72 	bl	81a4 <__aeabi_i2d>
    42c0:	463a      	mov	r2, r7
    42c2:	4643      	mov	r3, r8
    42c4:	f003 ffd8 	bl	8278 <__aeabi_dmul>
    42c8:	4602      	mov	r2, r0
    42ca:	460b      	mov	r3, r1
    42cc:	e9dd 0100 	ldrd	r0, r1, [sp]
    42d0:	f003 fe1a 	bl	7f08 <__aeabi_dsub>
    42d4:	9a05      	ldr	r2, [sp, #20]
    42d6:	f106 0330 	add.w	r3, r6, #48	@ 0x30
    42da:	f1bb 0f01 	cmp.w	fp, #1
    42de:	462f      	mov	r7, r5
    42e0:	7013      	strb	r3, [r2, #0]
    42e2:	f000 8321 	beq.w	4928 <_dtoa_r+0xb9c>
    42e6:	2501      	movs	r5, #1
    42e8:	f8cd a000 	str.w	sl, [sp]
    42ec:	46a8      	mov	r8, r5
    42ee:	e9dd 9a02 	ldrd	r9, sl, [sp, #8]
    42f2:	e02b      	b.n	434c <_dtoa_r+0x5c0>
    42f4:	00009918 	.word	0x00009918
    42f8:	00009a08 	.word	0x00009a08
    42fc:	3ff00000 	.word	0x3ff00000
    4300:	401c0000 	.word	0x401c0000
    4304:	3fe00000 	.word	0x3fe00000
    4308:	40240000 	.word	0x40240000
    430c:	40140000 	.word	0x40140000
    4310:	464a      	mov	r2, r9
    4312:	4653      	mov	r3, sl
    4314:	4620      	mov	r0, r4
    4316:	4629      	mov	r1, r5
    4318:	f004 f8d8 	bl	84cc <__aeabi_ddiv>
    431c:	f004 fa5c 	bl	87d8 <__aeabi_d2iz>
    4320:	4606      	mov	r6, r0
    4322:	f003 ff3f 	bl	81a4 <__aeabi_i2d>
    4326:	464a      	mov	r2, r9
    4328:	4653      	mov	r3, sl
    432a:	f003 ffa5 	bl	8278 <__aeabi_dmul>
    432e:	f108 0801 	add.w	r8, r8, #1
    4332:	460b      	mov	r3, r1
    4334:	4602      	mov	r2, r0
    4336:	4629      	mov	r1, r5
    4338:	4620      	mov	r0, r4
    433a:	f003 fde5 	bl	7f08 <__aeabi_dsub>
    433e:	f106 0330 	add.w	r3, r6, #48	@ 0x30
    4342:	45d8      	cmp	r8, fp
    4344:	f807 3b01 	strb.w	r3, [r7], #1
    4348:	f000 82ec 	beq.w	4924 <_dtoa_r+0xb98>
    434c:	4b84      	ldr	r3, [pc, #528]	@ (4560 <_dtoa_r+0x7d4>)
    434e:	2200      	movs	r2, #0
    4350:	f003 ff92 	bl	8278 <__aeabi_dmul>
    4354:	2200      	movs	r2, #0
    4356:	2300      	movs	r3, #0
    4358:	4604      	mov	r4, r0
    435a:	460d      	mov	r5, r1
    435c:	f004 f9f4 	bl	8748 <__aeabi_dcmpeq>
    4360:	2800      	cmp	r0, #0
    4362:	d0d5      	beq.n	4310 <_dtoa_r+0x584>
    4364:	9d0d      	ldr	r5, [sp, #52]	@ 0x34
    4366:	f8dd a000 	ldr.w	sl, [sp]
    436a:	3501      	adds	r5, #1
    436c:	463e      	mov	r6, r7
    436e:	e0b4      	b.n	44da <_dtoa_r+0x74e>
    4370:	9a0e      	ldr	r2, [sp, #56]	@ 0x38
    4372:	2a00      	cmp	r2, #0
    4374:	f040 80d8 	bne.w	4528 <_dtoa_r+0x79c>
    4378:	2300      	movs	r3, #0
    437a:	9e10      	ldr	r6, [sp, #64]	@ 0x40
    437c:	9d0c      	ldr	r5, [sp, #48]	@ 0x30
    437e:	930e      	str	r3, [sp, #56]	@ 0x38
    4380:	461f      	mov	r7, r3
    4382:	b165      	cbz	r5, 439e <_dtoa_r+0x612>
    4384:	9a08      	ldr	r2, [sp, #32]
    4386:	2a00      	cmp	r2, #0
    4388:	dd09      	ble.n	439e <_dtoa_r+0x612>
    438a:	990c      	ldr	r1, [sp, #48]	@ 0x30
    438c:	42aa      	cmp	r2, r5
    438e:	4613      	mov	r3, r2
    4390:	bfa8      	it	ge
    4392:	462b      	movge	r3, r5
    4394:	1ac9      	subs	r1, r1, r3
    4396:	1aed      	subs	r5, r5, r3
    4398:	1ad3      	subs	r3, r2, r3
    439a:	910c      	str	r1, [sp, #48]	@ 0x30
    439c:	9308      	str	r3, [sp, #32]
    439e:	9b10      	ldr	r3, [sp, #64]	@ 0x40
    43a0:	b153      	cbz	r3, 43b8 <_dtoa_r+0x62c>
    43a2:	9b0e      	ldr	r3, [sp, #56]	@ 0x38
    43a4:	b113      	cbz	r3, 43ac <_dtoa_r+0x620>
    43a6:	2e00      	cmp	r6, #0
    43a8:	f040 82f7 	bne.w	499a <_dtoa_r+0xc0e>
    43ac:	4651      	mov	r1, sl
    43ae:	9a10      	ldr	r2, [sp, #64]	@ 0x40
    43b0:	9804      	ldr	r0, [sp, #16]
    43b2:	f001 fb4f 	bl	5a54 <__pow5mult>
    43b6:	4682      	mov	sl, r0
    43b8:	9804      	ldr	r0, [sp, #16]
    43ba:	2101      	movs	r1, #1
    43bc:	f001 fa66 	bl	588c <__i2b>
    43c0:	9b09      	ldr	r3, [sp, #36]	@ 0x24
    43c2:	9000      	str	r0, [sp, #0]
    43c4:	2b00      	cmp	r3, #0
    43c6:	f040 81be 	bne.w	4746 <_dtoa_r+0x9ba>
    43ca:	9b02      	ldr	r3, [sp, #8]
    43cc:	2b01      	cmp	r3, #1
    43ce:	f340 81d4 	ble.w	477a <_dtoa_r+0x9ee>
    43d2:	2001      	movs	r0, #1
    43d4:	9a08      	ldr	r2, [sp, #32]
    43d6:	4410      	add	r0, r2
    43d8:	f010 001f 	ands.w	r0, r0, #31
    43dc:	f000 809b 	beq.w	4516 <_dtoa_r+0x78a>
    43e0:	f1c0 0320 	rsb	r3, r0, #32
    43e4:	2b04      	cmp	r3, #4
    43e6:	f340 81e3 	ble.w	47b0 <_dtoa_r+0xa24>
    43ea:	9b0c      	ldr	r3, [sp, #48]	@ 0x30
    43ec:	f1c0 001c 	rsb	r0, r0, #28
    43f0:	4403      	add	r3, r0
    43f2:	4402      	add	r2, r0
    43f4:	930c      	str	r3, [sp, #48]	@ 0x30
    43f6:	4405      	add	r5, r0
    43f8:	9208      	str	r2, [sp, #32]
    43fa:	9b0c      	ldr	r3, [sp, #48]	@ 0x30
    43fc:	2b00      	cmp	r3, #0
    43fe:	dd05      	ble.n	440c <_dtoa_r+0x680>
    4400:	4651      	mov	r1, sl
    4402:	9804      	ldr	r0, [sp, #16]
    4404:	461a      	mov	r2, r3
    4406:	f001 fb7f 	bl	5b08 <__lshift>
    440a:	4682      	mov	sl, r0
    440c:	9b08      	ldr	r3, [sp, #32]
    440e:	2b00      	cmp	r3, #0
    4410:	dd05      	ble.n	441e <_dtoa_r+0x692>
    4412:	9900      	ldr	r1, [sp, #0]
    4414:	9804      	ldr	r0, [sp, #16]
    4416:	461a      	mov	r2, r3
    4418:	f001 fb76 	bl	5b08 <__lshift>
    441c:	9000      	str	r0, [sp, #0]
    441e:	9b11      	ldr	r3, [sp, #68]	@ 0x44
    4420:	2b00      	cmp	r3, #0
    4422:	f040 8175 	bne.w	4710 <_dtoa_r+0x984>
    4426:	f1bb 0f00 	cmp.w	fp, #0
    442a:	f340 814c 	ble.w	46c6 <_dtoa_r+0x93a>
    442e:	9b0e      	ldr	r3, [sp, #56]	@ 0x38
    4430:	2b00      	cmp	r3, #0
    4432:	f040 80a4 	bne.w	457e <_dtoa_r+0x7f2>
    4436:	9d0d      	ldr	r5, [sp, #52]	@ 0x34
    4438:	3501      	adds	r5, #1
    443a:	f8dd 8014 	ldr.w	r8, [sp, #20]
    443e:	9c00      	ldr	r4, [sp, #0]
    4440:	f8dd 9010 	ldr.w	r9, [sp, #16]
    4444:	2601      	movs	r6, #1
    4446:	e007      	b.n	4458 <_dtoa_r+0x6cc>
    4448:	4651      	mov	r1, sl
    444a:	2300      	movs	r3, #0
    444c:	220a      	movs	r2, #10
    444e:	4648      	mov	r0, r9
    4450:	f001 f920 	bl	5694 <__multadd>
    4454:	3601      	adds	r6, #1
    4456:	4682      	mov	sl, r0
    4458:	4621      	mov	r1, r4
    445a:	4650      	mov	r0, sl
    445c:	f7ff fc00 	bl	3c60 <quorem>
    4460:	45b3      	cmp	fp, r6
    4462:	f100 0030 	add.w	r0, r0, #48	@ 0x30
    4466:	f808 0b01 	strb.w	r0, [r8], #1
    446a:	dced      	bgt.n	4448 <_dtoa_r+0x6bc>
    446c:	f1bb 0f00 	cmp.w	fp, #0
    4470:	9b05      	ldr	r3, [sp, #20]
    4472:	bfcc      	ite	gt
    4474:	465e      	movgt	r6, fp
    4476:	2601      	movle	r6, #1
    4478:	4681      	mov	r9, r0
    447a:	eb03 0b06 	add.w	fp, r3, r6
    447e:	2400      	movs	r4, #0
    4480:	4651      	mov	r1, sl
    4482:	2201      	movs	r2, #1
    4484:	9804      	ldr	r0, [sp, #16]
    4486:	f001 fb3f 	bl	5b08 <__lshift>
    448a:	9900      	ldr	r1, [sp, #0]
    448c:	4682      	mov	sl, r0
    448e:	f001 fbb3 	bl	5bf8 <__mcmp>
    4492:	2800      	cmp	r0, #0
    4494:	f340 81ee 	ble.w	4874 <_dtoa_r+0xae8>
    4498:	9a05      	ldr	r2, [sp, #20]
    449a:	e002      	b.n	44a2 <_dtoa_r+0x716>
    449c:	4593      	cmp	fp, r2
    449e:	f000 8203 	beq.w	48a8 <_dtoa_r+0xb1c>
    44a2:	465e      	mov	r6, fp
    44a4:	f10b 3bff 	add.w	fp, fp, #4294967295	@ 0xffffffff
    44a8:	f816 3c01 	ldrb.w	r3, [r6, #-1]
    44ac:	2b39      	cmp	r3, #57	@ 0x39
    44ae:	d0f5      	beq.n	449c <_dtoa_r+0x710>
    44b0:	3301      	adds	r3, #1
    44b2:	f88b 3000 	strb.w	r3, [fp]
    44b6:	f8dd 8010 	ldr.w	r8, [sp, #16]
    44ba:	9900      	ldr	r1, [sp, #0]
    44bc:	4640      	mov	r0, r8
    44be:	f001 f8df 	bl	5680 <_Bfree>
    44c2:	b157      	cbz	r7, 44da <_dtoa_r+0x74e>
    44c4:	b12c      	cbz	r4, 44d2 <_dtoa_r+0x746>
    44c6:	42bc      	cmp	r4, r7
    44c8:	d003      	beq.n	44d2 <_dtoa_r+0x746>
    44ca:	4621      	mov	r1, r4
    44cc:	4640      	mov	r0, r8
    44ce:	f001 f8d7 	bl	5680 <_Bfree>
    44d2:	9804      	ldr	r0, [sp, #16]
    44d4:	4639      	mov	r1, r7
    44d6:	f001 f8d3 	bl	5680 <_Bfree>
    44da:	9804      	ldr	r0, [sp, #16]
    44dc:	4651      	mov	r1, sl
    44de:	f001 f8cf 	bl	5680 <_Bfree>
    44e2:	2300      	movs	r3, #0
    44e4:	7033      	strb	r3, [r6, #0]
    44e6:	9b0a      	ldr	r3, [sp, #40]	@ 0x28
    44e8:	601d      	str	r5, [r3, #0]
    44ea:	9b27      	ldr	r3, [sp, #156]	@ 0x9c
    44ec:	2b00      	cmp	r3, #0
    44ee:	f43f ac8b 	beq.w	3e08 <_dtoa_r+0x7c>
    44f2:	9805      	ldr	r0, [sp, #20]
    44f4:	601e      	str	r6, [r3, #0]
    44f6:	b01d      	add	sp, #116	@ 0x74
    44f8:	e8bd 8ff0 	ldmia.w	sp!, {r4, r5, r6, r7, r8, r9, sl, fp, pc}
    44fc:	4620      	mov	r0, r4
    44fe:	f003 fe51 	bl	81a4 <__aeabi_i2d>
    4502:	4632      	mov	r2, r6
    4504:	463b      	mov	r3, r7
    4506:	f004 f91f 	bl	8748 <__aeabi_dcmpeq>
    450a:	2800      	cmp	r0, #0
    450c:	f47f acd2 	bne.w	3eb4 <_dtoa_r+0x128>
    4510:	1e63      	subs	r3, r4, #1
    4512:	9309      	str	r3, [sp, #36]	@ 0x24
    4514:	e4ce      	b.n	3eb4 <_dtoa_r+0x128>
    4516:	231c      	movs	r3, #28
    4518:	9a0c      	ldr	r2, [sp, #48]	@ 0x30
    451a:	441a      	add	r2, r3
    451c:	920c      	str	r2, [sp, #48]	@ 0x30
    451e:	9a08      	ldr	r2, [sp, #32]
    4520:	441a      	add	r2, r3
    4522:	441d      	add	r5, r3
    4524:	9208      	str	r2, [sp, #32]
    4526:	e768      	b.n	43fa <_dtoa_r+0x66e>
    4528:	9a02      	ldr	r2, [sp, #8]
    452a:	2a01      	cmp	r2, #1
    452c:	f340 81ad 	ble.w	488a <_dtoa_r+0xafe>
    4530:	9b10      	ldr	r3, [sp, #64]	@ 0x40
    4532:	f10b 36ff 	add.w	r6, fp, #4294967295	@ 0xffffffff
    4536:	42b3      	cmp	r3, r6
    4538:	f2c0 8169 	blt.w	480e <_dtoa_r+0xa82>
    453c:	f1bb 0f00 	cmp.w	fp, #0
    4540:	eba3 0606 	sub.w	r6, r3, r6
    4544:	f280 82ef 	bge.w	4b26 <_dtoa_r+0xd9a>
    4548:	9b0c      	ldr	r3, [sp, #48]	@ 0x30
    454a:	eba3 050b 	sub.w	r5, r3, fp
    454e:	e16c      	b.n	482a <_dtoa_r+0xa9e>
    4550:	f1c3 0320 	rsb	r3, r3, #32
    4554:	fa06 f003 	lsl.w	r0, r6, r3
    4558:	e478      	b.n	3e4c <_dtoa_r+0xc0>
    455a:	2501      	movs	r5, #1
    455c:	e4dd      	b.n	3f1a <_dtoa_r+0x18e>
    455e:	bf00      	nop
    4560:	40240000 	.word	0x40240000
    4564:	4639      	mov	r1, r7
    4566:	2300      	movs	r3, #0
    4568:	9804      	ldr	r0, [sp, #16]
    456a:	220a      	movs	r2, #10
    456c:	f001 f892 	bl	5694 <__multadd>
    4570:	9b13      	ldr	r3, [sp, #76]	@ 0x4c
    4572:	2b00      	cmp	r3, #0
    4574:	4607      	mov	r7, r0
    4576:	f340 82ff 	ble.w	4b78 <_dtoa_r+0xdec>
    457a:	960d      	str	r6, [sp, #52]	@ 0x34
    457c:	469b      	mov	fp, r3
    457e:	2d00      	cmp	r5, #0
    4580:	dd05      	ble.n	458e <_dtoa_r+0x802>
    4582:	4639      	mov	r1, r7
    4584:	9804      	ldr	r0, [sp, #16]
    4586:	462a      	mov	r2, r5
    4588:	f001 fabe 	bl	5b08 <__lshift>
    458c:	4607      	mov	r7, r0
    458e:	9b09      	ldr	r3, [sp, #36]	@ 0x24
    4590:	2b00      	cmp	r3, #0
    4592:	f040 81e6 	bne.w	4962 <_dtoa_r+0xbd6>
    4596:	46b8      	mov	r8, r7
    4598:	9e05      	ldr	r6, [sp, #20]
    459a:	1e73      	subs	r3, r6, #1
    459c:	eb03 040b 	add.w	r4, r3, fp
    45a0:	9b06      	ldr	r3, [sp, #24]
    45a2:	f003 0301 	and.w	r3, r3, #1
    45a6:	e9cd 430b 	strd	r4, r3, [sp, #44]	@ 0x2c
    45aa:	9c04      	ldr	r4, [sp, #16]
    45ac:	9900      	ldr	r1, [sp, #0]
    45ae:	4650      	mov	r0, sl
    45b0:	f7ff fb56 	bl	3c60 <quorem>
    45b4:	4639      	mov	r1, r7
    45b6:	4683      	mov	fp, r0
    45b8:	4650      	mov	r0, sl
    45ba:	f001 fb1d 	bl	5bf8 <__mcmp>
    45be:	9900      	ldr	r1, [sp, #0]
    45c0:	4605      	mov	r5, r0
    45c2:	4642      	mov	r2, r8
    45c4:	4620      	mov	r0, r4
    45c6:	f001 fb39 	bl	5c3c <__mdiff>
    45ca:	68c3      	ldr	r3, [r0, #12]
    45cc:	f10b 0930 	add.w	r9, fp, #48	@ 0x30
    45d0:	4601      	mov	r1, r0
    45d2:	bbab      	cbnz	r3, 4640 <_dtoa_r+0x8b4>
    45d4:	9009      	str	r0, [sp, #36]	@ 0x24
    45d6:	4650      	mov	r0, sl
    45d8:	f001 fb0e 	bl	5bf8 <__mcmp>
    45dc:	9909      	ldr	r1, [sp, #36]	@ 0x24
    45de:	9008      	str	r0, [sp, #32]
    45e0:	4620      	mov	r0, r4
    45e2:	f001 f84d 	bl	5680 <_Bfree>
    45e6:	9a08      	ldr	r2, [sp, #32]
    45e8:	2a00      	cmp	r2, #0
    45ea:	d154      	bne.n	4696 <_dtoa_r+0x90a>
    45ec:	9b02      	ldr	r3, [sp, #8]
    45ee:	b91b      	cbnz	r3, 45f8 <_dtoa_r+0x86c>
    45f0:	9b0c      	ldr	r3, [sp, #48]	@ 0x30
    45f2:	2b00      	cmp	r3, #0
    45f4:	f000 82ae 	beq.w	4b54 <_dtoa_r+0xdc8>
    45f8:	2d00      	cmp	r5, #0
    45fa:	db3f      	blt.n	467c <_dtoa_r+0x8f0>
    45fc:	9b0b      	ldr	r3, [sp, #44]	@ 0x2c
    45fe:	46b3      	mov	fp, r6
    4600:	429e      	cmp	r6, r3
    4602:	f80b 9b01 	strb.w	r9, [fp], #1
    4606:	f000 81c3 	beq.w	4990 <_dtoa_r+0xc04>
    460a:	4651      	mov	r1, sl
    460c:	2300      	movs	r3, #0
    460e:	220a      	movs	r2, #10
    4610:	4620      	mov	r0, r4
    4612:	f001 f83f 	bl	5694 <__multadd>
    4616:	4547      	cmp	r7, r8
    4618:	4682      	mov	sl, r0
    461a:	4639      	mov	r1, r7
    461c:	f04f 0300 	mov.w	r3, #0
    4620:	f04f 020a 	mov.w	r2, #10
    4624:	4620      	mov	r0, r4
    4626:	d030      	beq.n	468a <_dtoa_r+0x8fe>
    4628:	f001 f834 	bl	5694 <__multadd>
    462c:	4641      	mov	r1, r8
    462e:	4607      	mov	r7, r0
    4630:	2300      	movs	r3, #0
    4632:	220a      	movs	r2, #10
    4634:	4620      	mov	r0, r4
    4636:	f001 f82d 	bl	5694 <__multadd>
    463a:	465e      	mov	r6, fp
    463c:	4680      	mov	r8, r0
    463e:	e7b5      	b.n	45ac <_dtoa_r+0x820>
    4640:	9804      	ldr	r0, [sp, #16]
    4642:	f001 f81d 	bl	5680 <_Bfree>
    4646:	2d00      	cmp	r5, #0
    4648:	db06      	blt.n	4658 <_dtoa_r+0x8cc>
    464a:	9b06      	ldr	r3, [sp, #24]
    464c:	f003 0201 	and.w	r2, r3, #1
    4650:	9b02      	ldr	r3, [sp, #8]
    4652:	431d      	orrs	r5, r3
    4654:	432a      	orrs	r2, r5
    4656:	d129      	bne.n	46ac <_dtoa_r+0x920>
    4658:	4651      	mov	r1, sl
    465a:	2201      	movs	r2, #1
    465c:	9804      	ldr	r0, [sp, #16]
    465e:	f001 fa53 	bl	5b08 <__lshift>
    4662:	9900      	ldr	r1, [sp, #0]
    4664:	4682      	mov	sl, r0
    4666:	f001 fac7 	bl	5bf8 <__mcmp>
    466a:	2800      	cmp	r0, #0
    466c:	f340 80f6 	ble.w	485c <_dtoa_r+0xad0>
    4670:	f1b9 0f39 	cmp.w	r9, #57	@ 0x39
    4674:	f000 8249 	beq.w	4b0a <_dtoa_r+0xd7e>
    4678:	f10b 0931 	add.w	r9, fp, #49	@ 0x31
    467c:	9d0d      	ldr	r5, [sp, #52]	@ 0x34
    467e:	f806 9b01 	strb.w	r9, [r6], #1
    4682:	463c      	mov	r4, r7
    4684:	3501      	adds	r5, #1
    4686:	4647      	mov	r7, r8
    4688:	e715      	b.n	44b6 <_dtoa_r+0x72a>
    468a:	f001 f803 	bl	5694 <__multadd>
    468e:	465e      	mov	r6, fp
    4690:	4607      	mov	r7, r0
    4692:	4680      	mov	r8, r0
    4694:	e78a      	b.n	45ac <_dtoa_r+0x820>
    4696:	2d00      	cmp	r5, #0
    4698:	f2c0 8293 	blt.w	4bc2 <_dtoa_r+0xe36>
    469c:	9b02      	ldr	r3, [sp, #8]
    469e:	431d      	orrs	r5, r3
    46a0:	9b0c      	ldr	r3, [sp, #48]	@ 0x30
    46a2:	431d      	orrs	r5, r3
    46a4:	f000 828d 	beq.w	4bc2 <_dtoa_r+0xe36>
    46a8:	2a00      	cmp	r2, #0
    46aa:	dda7      	ble.n	45fc <_dtoa_r+0x870>
    46ac:	f1b9 0f39 	cmp.w	r9, #57	@ 0x39
    46b0:	f000 822b 	beq.w	4b0a <_dtoa_r+0xd7e>
    46b4:	9d0d      	ldr	r5, [sp, #52]	@ 0x34
    46b6:	f109 0301 	add.w	r3, r9, #1
    46ba:	463c      	mov	r4, r7
    46bc:	f806 3b01 	strb.w	r3, [r6], #1
    46c0:	3501      	adds	r5, #1
    46c2:	4647      	mov	r7, r8
    46c4:	e6f7      	b.n	44b6 <_dtoa_r+0x72a>
    46c6:	9b02      	ldr	r3, [sp, #8]
    46c8:	2b02      	cmp	r3, #2
    46ca:	f77f aeb0 	ble.w	442e <_dtoa_r+0x6a2>
    46ce:	f1bb 0f00 	cmp.w	fp, #0
    46d2:	f040 8125 	bne.w	4920 <_dtoa_r+0xb94>
    46d6:	9900      	ldr	r1, [sp, #0]
    46d8:	9804      	ldr	r0, [sp, #16]
    46da:	465b      	mov	r3, fp
    46dc:	2205      	movs	r2, #5
    46de:	f000 ffd9 	bl	5694 <__multadd>
    46e2:	4601      	mov	r1, r0
    46e4:	9000      	str	r0, [sp, #0]
    46e6:	4650      	mov	r0, sl
    46e8:	f001 fa86 	bl	5bf8 <__mcmp>
    46ec:	2800      	cmp	r0, #0
    46ee:	f340 8117 	ble.w	4920 <_dtoa_r+0xb94>
    46f2:	9e05      	ldr	r6, [sp, #20]
    46f4:	9d0d      	ldr	r5, [sp, #52]	@ 0x34
    46f6:	2331      	movs	r3, #49	@ 0x31
    46f8:	f806 3b01 	strb.w	r3, [r6], #1
    46fc:	3501      	adds	r5, #1
    46fe:	9900      	ldr	r1, [sp, #0]
    4700:	9804      	ldr	r0, [sp, #16]
    4702:	f000 ffbd 	bl	5680 <_Bfree>
    4706:	3501      	adds	r5, #1
    4708:	2f00      	cmp	r7, #0
    470a:	f47f aee2 	bne.w	44d2 <_dtoa_r+0x746>
    470e:	e6e4      	b.n	44da <_dtoa_r+0x74e>
    4710:	9900      	ldr	r1, [sp, #0]
    4712:	4650      	mov	r0, sl
    4714:	f001 fa70 	bl	5bf8 <__mcmp>
    4718:	2800      	cmp	r0, #0
    471a:	f6bf ae84 	bge.w	4426 <_dtoa_r+0x69a>
    471e:	4651      	mov	r1, sl
    4720:	2300      	movs	r3, #0
    4722:	9804      	ldr	r0, [sp, #16]
    4724:	9c0d      	ldr	r4, [sp, #52]	@ 0x34
    4726:	220a      	movs	r2, #10
    4728:	f000 ffb4 	bl	5694 <__multadd>
    472c:	9b0e      	ldr	r3, [sp, #56]	@ 0x38
    472e:	1e66      	subs	r6, r4, #1
    4730:	4682      	mov	sl, r0
    4732:	2b00      	cmp	r3, #0
    4734:	f47f af16 	bne.w	4564 <_dtoa_r+0x7d8>
    4738:	9b13      	ldr	r3, [sp, #76]	@ 0x4c
    473a:	2b00      	cmp	r3, #0
    473c:	f340 8211 	ble.w	4b62 <_dtoa_r+0xdd6>
    4740:	9d0d      	ldr	r5, [sp, #52]	@ 0x34
    4742:	469b      	mov	fp, r3
    4744:	e679      	b.n	443a <_dtoa_r+0x6ae>
    4746:	4601      	mov	r1, r0
    4748:	461a      	mov	r2, r3
    474a:	9804      	ldr	r0, [sp, #16]
    474c:	f001 f982 	bl	5a54 <__pow5mult>
    4750:	9b02      	ldr	r3, [sp, #8]
    4752:	9000      	str	r0, [sp, #0]
    4754:	2b01      	cmp	r3, #1
    4756:	dd6e      	ble.n	4836 <_dtoa_r+0xaaa>
    4758:	2300      	movs	r3, #0
    475a:	9309      	str	r3, [sp, #36]	@ 0x24
    475c:	9a00      	ldr	r2, [sp, #0]
    475e:	6913      	ldr	r3, [r2, #16]
    4760:	eb02 0383 	add.w	r3, r2, r3, lsl #2
    4764:	6918      	ldr	r0, [r3, #16]
    4766:	f001 f83f 	bl	57e8 <__hi0bits>
    476a:	f1c0 0020 	rsb	r0, r0, #32
    476e:	e631      	b.n	43d4 <_dtoa_r+0x648>
    4770:	4b98      	ldr	r3, [pc, #608]	@ (49d4 <_dtoa_r+0xc48>)
    4772:	9305      	str	r3, [sp, #20]
    4774:	3303      	adds	r3, #3
    4776:	f7ff bbeb 	b.w	3f50 <_dtoa_r+0x1c4>
    477a:	9b06      	ldr	r3, [sp, #24]
    477c:	2b00      	cmp	r3, #0
    477e:	f47f ae28 	bne.w	43d2 <_dtoa_r+0x646>
    4782:	e9dd 1206 	ldrd	r1, r2, [sp, #24]
    4786:	f3c2 0313 	ubfx	r3, r2, #0, #20
    478a:	2b00      	cmp	r3, #0
    478c:	f47f ae21 	bne.w	43d2 <_dtoa_r+0x646>
    4790:	4b91      	ldr	r3, [pc, #580]	@ (49d8 <_dtoa_r+0xc4c>)
    4792:	4013      	ands	r3, r2
    4794:	b133      	cbz	r3, 47a4 <_dtoa_r+0xa18>
    4796:	9b0c      	ldr	r3, [sp, #48]	@ 0x30
    4798:	3301      	adds	r3, #1
    479a:	930c      	str	r3, [sp, #48]	@ 0x30
    479c:	9b08      	ldr	r3, [sp, #32]
    479e:	3301      	adds	r3, #1
    47a0:	9308      	str	r3, [sp, #32]
    47a2:	2301      	movs	r3, #1
    47a4:	9a09      	ldr	r2, [sp, #36]	@ 0x24
    47a6:	9309      	str	r3, [sp, #36]	@ 0x24
    47a8:	2a00      	cmp	r2, #0
    47aa:	f43f ae12 	beq.w	43d2 <_dtoa_r+0x646>
    47ae:	e7d5      	b.n	475c <_dtoa_r+0x9d0>
    47b0:	f43f ae23 	beq.w	43fa <_dtoa_r+0x66e>
    47b4:	f1c0 033c 	rsb	r3, r0, #60	@ 0x3c
    47b8:	e6ae      	b.n	4518 <_dtoa_r+0x78c>
    47ba:	2301      	movs	r3, #1
    47bc:	930e      	str	r3, [sp, #56]	@ 0x38
    47be:	9b0b      	ldr	r3, [sp, #44]	@ 0x2c
    47c0:	9a0d      	ldr	r2, [sp, #52]	@ 0x34
    47c2:	4413      	add	r3, r2
    47c4:	f103 0b01 	add.w	fp, r3, #1
    47c8:	465e      	mov	r6, fp
    47ca:	2e01      	cmp	r6, #1
    47cc:	9313      	str	r3, [sp, #76]	@ 0x4c
    47ce:	bfb8      	it	lt
    47d0:	2601      	movlt	r6, #1
    47d2:	2e17      	cmp	r6, #23
    47d4:	f340 81f9 	ble.w	4bca <_dtoa_r+0xe3e>
    47d8:	2201      	movs	r2, #1
    47da:	2304      	movs	r3, #4
    47dc:	005b      	lsls	r3, r3, #1
    47de:	f103 0014 	add.w	r0, r3, #20
    47e2:	42b0      	cmp	r0, r6
    47e4:	4611      	mov	r1, r2
    47e6:	f102 0201 	add.w	r2, r2, #1
    47ea:	d9f7      	bls.n	47dc <_dtoa_r+0xa50>
    47ec:	9b04      	ldr	r3, [sp, #16]
    47ee:	63d9      	str	r1, [r3, #60]	@ 0x3c
    47f0:	e404      	b.n	3ffc <_dtoa_r+0x270>
    47f2:	2301      	movs	r3, #1
    47f4:	930e      	str	r3, [sp, #56]	@ 0x38
    47f6:	9e0b      	ldr	r6, [sp, #44]	@ 0x2c
    47f8:	2e00      	cmp	r6, #0
    47fa:	dd36      	ble.n	486a <_dtoa_r+0xade>
    47fc:	9613      	str	r6, [sp, #76]	@ 0x4c
    47fe:	46b3      	mov	fp, r6
    4800:	e7e7      	b.n	47d2 <_dtoa_r+0xa46>
    4802:	2300      	movs	r3, #0
    4804:	930e      	str	r3, [sp, #56]	@ 0x38
    4806:	e7da      	b.n	47be <_dtoa_r+0xa32>
    4808:	2300      	movs	r3, #0
    480a:	930e      	str	r3, [sp, #56]	@ 0x38
    480c:	e7f3      	b.n	47f6 <_dtoa_r+0xa6a>
    480e:	9b10      	ldr	r3, [sp, #64]	@ 0x40
    4810:	9a09      	ldr	r2, [sp, #36]	@ 0x24
    4812:	9610      	str	r6, [sp, #64]	@ 0x40
    4814:	1af3      	subs	r3, r6, r3
    4816:	441a      	add	r2, r3
    4818:	9b08      	ldr	r3, [sp, #32]
    481a:	9209      	str	r2, [sp, #36]	@ 0x24
    481c:	445b      	add	r3, fp
    481e:	9308      	str	r3, [sp, #32]
    4820:	9b0c      	ldr	r3, [sp, #48]	@ 0x30
    4822:	461d      	mov	r5, r3
    4824:	445b      	add	r3, fp
    4826:	930c      	str	r3, [sp, #48]	@ 0x30
    4828:	2600      	movs	r6, #0
    482a:	9804      	ldr	r0, [sp, #16]
    482c:	2101      	movs	r1, #1
    482e:	f001 f82d 	bl	588c <__i2b>
    4832:	4607      	mov	r7, r0
    4834:	e5a5      	b.n	4382 <_dtoa_r+0x5f6>
    4836:	9b06      	ldr	r3, [sp, #24]
    4838:	2b00      	cmp	r3, #0
    483a:	d18d      	bne.n	4758 <_dtoa_r+0x9cc>
    483c:	e9dd 0106 	ldrd	r0, r1, [sp, #24]
    4840:	f3c1 0313 	ubfx	r3, r1, #0, #20
    4844:	460a      	mov	r2, r1
    4846:	2b00      	cmp	r3, #0
    4848:	d0a2      	beq.n	4790 <_dtoa_r+0xa04>
    484a:	9009      	str	r0, [sp, #36]	@ 0x24
    484c:	e786      	b.n	475c <_dtoa_r+0x9d0>
    484e:	ed9d 7b00 	vldr	d7, [sp]
    4852:	2702      	movs	r7, #2
    4854:	ed8d 7b14 	vstr	d7, [sp, #80]	@ 0x50
    4858:	f7ff bbfd 	b.w	4056 <_dtoa_r+0x2ca>
    485c:	f47f af0e 	bne.w	467c <_dtoa_r+0x8f0>
    4860:	f019 0f01 	tst.w	r9, #1
    4864:	f47f af04 	bne.w	4670 <_dtoa_r+0x8e4>
    4868:	e708      	b.n	467c <_dtoa_r+0x8f0>
    486a:	2301      	movs	r3, #1
    486c:	930b      	str	r3, [sp, #44]	@ 0x2c
    486e:	469b      	mov	fp, r3
    4870:	f7ff bbbf 	b.w	3ff2 <_dtoa_r+0x266>
    4874:	d103      	bne.n	487e <_dtoa_r+0xaf2>
    4876:	f019 0f01 	tst.w	r9, #1
    487a:	f47f ae0d 	bne.w	4498 <_dtoa_r+0x70c>
    487e:	465e      	mov	r6, fp
    4880:	f81b 3d01 	ldrb.w	r3, [fp, #-1]!
    4884:	2b30      	cmp	r3, #48	@ 0x30
    4886:	d0fa      	beq.n	487e <_dtoa_r+0xaf2>
    4888:	e615      	b.n	44b6 <_dtoa_r+0x72a>
    488a:	9a12      	ldr	r2, [sp, #72]	@ 0x48
    488c:	2a00      	cmp	r2, #0
    488e:	f000 809c 	beq.w	49ca <_dtoa_r+0xc3e>
    4892:	f203 4333 	addw	r3, r3, #1075	@ 0x433
    4896:	9a08      	ldr	r2, [sp, #32]
    4898:	9e10      	ldr	r6, [sp, #64]	@ 0x40
    489a:	441a      	add	r2, r3
    489c:	9208      	str	r2, [sp, #32]
    489e:	9a0c      	ldr	r2, [sp, #48]	@ 0x30
    48a0:	4615      	mov	r5, r2
    48a2:	441a      	add	r2, r3
    48a4:	920c      	str	r2, [sp, #48]	@ 0x30
    48a6:	e7c0      	b.n	482a <_dtoa_r+0xa9e>
    48a8:	9a05      	ldr	r2, [sp, #20]
    48aa:	2331      	movs	r3, #49	@ 0x31
    48ac:	3501      	adds	r5, #1
    48ae:	7013      	strb	r3, [r2, #0]
    48b0:	e601      	b.n	44b6 <_dtoa_r+0x72a>
    48b2:	f000 80fa 	beq.w	4aaa <_dtoa_r+0xd1e>
    48b6:	9a0d      	ldr	r2, [sp, #52]	@ 0x34
    48b8:	4b48      	ldr	r3, [pc, #288]	@ (49dc <_dtoa_r+0xc50>)
    48ba:	4255      	negs	r5, r2
    48bc:	f005 020f 	and.w	r2, r5, #15
    48c0:	eb03 03c2 	add.w	r3, r3, r2, lsl #3
    48c4:	e9d3 2300 	ldrd	r2, r3, [r3]
    48c8:	e9dd 0100 	ldrd	r0, r1, [sp]
    48cc:	f003 fcd4 	bl	8278 <__aeabi_dmul>
    48d0:	112d      	asrs	r5, r5, #4
    48d2:	e9cd 0114 	strd	r0, r1, [sp, #80]	@ 0x50
    48d6:	f000 8158 	beq.w	4b8a <_dtoa_r+0xdfe>
    48da:	4e41      	ldr	r6, [pc, #260]	@ (49e0 <_dtoa_r+0xc54>)
    48dc:	2300      	movs	r3, #0
    48de:	2702      	movs	r7, #2
    48e0:	4680      	mov	r8, r0
    48e2:	4689      	mov	r9, r1
    48e4:	07ea      	lsls	r2, r5, #31
    48e6:	d509      	bpl.n	48fc <_dtoa_r+0xb70>
    48e8:	e9d6 2300 	ldrd	r2, r3, [r6]
    48ec:	4640      	mov	r0, r8
    48ee:	4649      	mov	r1, r9
    48f0:	f003 fcc2 	bl	8278 <__aeabi_dmul>
    48f4:	3701      	adds	r7, #1
    48f6:	4680      	mov	r8, r0
    48f8:	4689      	mov	r9, r1
    48fa:	2301      	movs	r3, #1
    48fc:	106d      	asrs	r5, r5, #1
    48fe:	f106 0608 	add.w	r6, r6, #8
    4902:	d1ef      	bne.n	48e4 <_dtoa_r+0xb58>
    4904:	2b00      	cmp	r3, #0
    4906:	f47f abbf 	bne.w	4088 <_dtoa_r+0x2fc>
    490a:	e9dd 8914 	ldrd	r8, r9, [sp, #80]	@ 0x50
    490e:	f7ff bbbb 	b.w	4088 <_dtoa_r+0x2fc>
    4912:	f1c8 0301 	rsb	r3, r8, #1
    4916:	9008      	str	r0, [sp, #32]
    4918:	930c      	str	r3, [sp, #48]	@ 0x30
    491a:	9011      	str	r0, [sp, #68]	@ 0x44
    491c:	f7ff bb58 	b.w	3fd0 <_dtoa_r+0x244>
    4920:	9e05      	ldr	r6, [sp, #20]
    4922:	e4bb      	b.n	429c <_dtoa_r+0x510>
    4924:	f8dd a000 	ldr.w	sl, [sp]
    4928:	4602      	mov	r2, r0
    492a:	460b      	mov	r3, r1
    492c:	f003 faee 	bl	7f0c <__adddf3>
    4930:	9d0d      	ldr	r5, [sp, #52]	@ 0x34
    4932:	e9cd 0100 	strd	r0, r1, [sp]
    4936:	3501      	adds	r5, #1
    4938:	4602      	mov	r2, r0
    493a:	460b      	mov	r3, r1
    493c:	e9dd 0102 	ldrd	r0, r1, [sp, #8]
    4940:	46a8      	mov	r8, r5
    4942:	f003 ff0b 	bl	875c <__aeabi_dcmplt>
    4946:	b940      	cbnz	r0, 495a <_dtoa_r+0xbce>
    4948:	e9dd 2300 	ldrd	r2, r3, [sp]
    494c:	e9dd 0102 	ldrd	r0, r1, [sp, #8]
    4950:	f003 fefa 	bl	8748 <__aeabi_dcmpeq>
    4954:	b118      	cbz	r0, 495e <_dtoa_r+0xbd2>
    4956:	07f3      	lsls	r3, r6, #31
    4958:	d501      	bpl.n	495e <_dtoa_r+0xbd2>
    495a:	9a05      	ldr	r2, [sp, #20]
    495c:	e435      	b.n	41ca <_dtoa_r+0x43e>
    495e:	463e      	mov	r6, r7
    4960:	e5bb      	b.n	44da <_dtoa_r+0x74e>
    4962:	6879      	ldr	r1, [r7, #4]
    4964:	9804      	ldr	r0, [sp, #16]
    4966:	f000 fe65 	bl	5634 <_Balloc>
    496a:	4605      	mov	r5, r0
    496c:	2800      	cmp	r0, #0
    496e:	f000 8121 	beq.w	4bb4 <_dtoa_r+0xe28>
    4972:	693b      	ldr	r3, [r7, #16]
    4974:	3302      	adds	r3, #2
    4976:	009a      	lsls	r2, r3, #2
    4978:	f107 010c 	add.w	r1, r7, #12
    497c:	300c      	adds	r0, #12
    497e:	f000 fb8b 	bl	5098 <memcpy>
    4982:	9804      	ldr	r0, [sp, #16]
    4984:	4629      	mov	r1, r5
    4986:	2201      	movs	r2, #1
    4988:	f001 f8be 	bl	5b08 <__lshift>
    498c:	4680      	mov	r8, r0
    498e:	e603      	b.n	4598 <_dtoa_r+0x80c>
    4990:	9d0d      	ldr	r5, [sp, #52]	@ 0x34
    4992:	463c      	mov	r4, r7
    4994:	3501      	adds	r5, #1
    4996:	4647      	mov	r7, r8
    4998:	e572      	b.n	4480 <_dtoa_r+0x6f4>
    499a:	9c04      	ldr	r4, [sp, #16]
    499c:	4639      	mov	r1, r7
    499e:	4632      	mov	r2, r6
    49a0:	4620      	mov	r0, r4
    49a2:	f001 f857 	bl	5a54 <__pow5mult>
    49a6:	4652      	mov	r2, sl
    49a8:	4601      	mov	r1, r0
    49aa:	4607      	mov	r7, r0
    49ac:	4620      	mov	r0, r4
    49ae:	f000 ff9b 	bl	58e8 <__multiply>
    49b2:	4651      	mov	r1, sl
    49b4:	4680      	mov	r8, r0
    49b6:	4620      	mov	r0, r4
    49b8:	f000 fe62 	bl	5680 <_Bfree>
    49bc:	9b10      	ldr	r3, [sp, #64]	@ 0x40
    49be:	1b9b      	subs	r3, r3, r6
    49c0:	46c2      	mov	sl, r8
    49c2:	9310      	str	r3, [sp, #64]	@ 0x40
    49c4:	f43f acf8 	beq.w	43b8 <_dtoa_r+0x62c>
    49c8:	e4f0      	b.n	43ac <_dtoa_r+0x620>
    49ca:	9b1a      	ldr	r3, [sp, #104]	@ 0x68
    49cc:	f1c3 0336 	rsb	r3, r3, #54	@ 0x36
    49d0:	e761      	b.n	4896 <_dtoa_r+0xb0a>
    49d2:	bf00      	nop
    49d4:	0000971c 	.word	0x0000971c
    49d8:	7ff00000 	.word	0x7ff00000
    49dc:	00009918 	.word	0x00009918
    49e0:	00009a08 	.word	0x00009a08
    49e4:	e9dd 2316 	ldrd	r2, r3, [sp, #88]	@ 0x58
    49e8:	e9dd 0114 	ldrd	r0, r1, [sp, #80]	@ 0x50
    49ec:	f003 fc44 	bl	8278 <__aeabi_dmul>
    49f0:	9b05      	ldr	r3, [sp, #20]
    49f2:	701c      	strb	r4, [r3, #0]
    49f4:	9b18      	ldr	r3, [sp, #96]	@ 0x60
    49f6:	2b01      	cmp	r3, #1
    49f8:	e9cd 010e 	strd	r0, r1, [sp, #56]	@ 0x38
    49fc:	f000 80c3 	beq.w	4b86 <_dtoa_r+0xdfa>
    4a00:	9f18      	ldr	r7, [sp, #96]	@ 0x60
    4a02:	9b05      	ldr	r3, [sp, #20]
    4a04:	9612      	str	r6, [sp, #72]	@ 0x48
    4a06:	441f      	add	r7, r3
    4a08:	4b7a      	ldr	r3, [pc, #488]	@ (4bf4 <_dtoa_r+0xe68>)
    4a0a:	2200      	movs	r2, #0
    4a0c:	4640      	mov	r0, r8
    4a0e:	4649      	mov	r1, r9
    4a10:	f003 fc32 	bl	8278 <__aeabi_dmul>
    4a14:	460d      	mov	r5, r1
    4a16:	4604      	mov	r4, r0
    4a18:	f003 fede 	bl	87d8 <__aeabi_d2iz>
    4a1c:	4681      	mov	r9, r0
    4a1e:	f003 fbc1 	bl	81a4 <__aeabi_i2d>
    4a22:	f109 0930 	add.w	r9, r9, #48	@ 0x30
    4a26:	4602      	mov	r2, r0
    4a28:	460b      	mov	r3, r1
    4a2a:	4620      	mov	r0, r4
    4a2c:	4629      	mov	r1, r5
    4a2e:	f003 fa6b 	bl	7f08 <__aeabi_dsub>
    4a32:	f806 9b01 	strb.w	r9, [r6], #1
    4a36:	42be      	cmp	r6, r7
    4a38:	4680      	mov	r8, r0
    4a3a:	4689      	mov	r9, r1
    4a3c:	d1e4      	bne.n	4a08 <_dtoa_r+0xc7c>
    4a3e:	9d12      	ldr	r5, [sp, #72]	@ 0x48
    4a40:	4b6d      	ldr	r3, [pc, #436]	@ (4bf8 <_dtoa_r+0xe6c>)
    4a42:	2200      	movs	r2, #0
    4a44:	e9dd 010e 	ldrd	r0, r1, [sp, #56]	@ 0x38
    4a48:	f003 fa60 	bl	7f0c <__adddf3>
    4a4c:	4602      	mov	r2, r0
    4a4e:	460b      	mov	r3, r1
    4a50:	4640      	mov	r0, r8
    4a52:	4649      	mov	r1, r9
    4a54:	f003 fea0 	bl	8798 <__aeabi_dcmpgt>
    4a58:	2800      	cmp	r0, #0
    4a5a:	d16c      	bne.n	4b36 <_dtoa_r+0xdaa>
    4a5c:	e9dd 230e 	ldrd	r2, r3, [sp, #56]	@ 0x38
    4a60:	4965      	ldr	r1, [pc, #404]	@ (4bf8 <_dtoa_r+0xe6c>)
    4a62:	2000      	movs	r0, #0
    4a64:	f003 fa50 	bl	7f08 <__aeabi_dsub>
    4a68:	4602      	mov	r2, r0
    4a6a:	460b      	mov	r3, r1
    4a6c:	4640      	mov	r0, r8
    4a6e:	4649      	mov	r1, r9
    4a70:	f003 fe74 	bl	875c <__aeabi_dcmplt>
    4a74:	b980      	cbnz	r0, 4a98 <_dtoa_r+0xd0c>
    4a76:	9b1b      	ldr	r3, [sp, #108]	@ 0x6c
    4a78:	2b00      	cmp	r3, #0
    4a7a:	f6ff ac7d 	blt.w	4378 <_dtoa_r+0x5ec>
    4a7e:	9b0d      	ldr	r3, [sp, #52]	@ 0x34
    4a80:	2b0e      	cmp	r3, #14
    4a82:	f73f ac79 	bgt.w	4378 <_dtoa_r+0x5ec>
    4a86:	4b5d      	ldr	r3, [pc, #372]	@ (4bfc <_dtoa_r+0xe70>)
    4a88:	9a0d      	ldr	r2, [sp, #52]	@ 0x34
    4a8a:	eb03 03c2 	add.w	r3, r3, r2, lsl #3
    4a8e:	ed93 7b00 	vldr	d7, [r3]
    4a92:	ed8d 7b02 	vstr	d7, [sp, #8]
    4a96:	e406      	b.n	42a6 <_dtoa_r+0x51a>
    4a98:	463e      	mov	r6, r7
    4a9a:	3f01      	subs	r7, #1
    4a9c:	f816 3c01 	ldrb.w	r3, [r6, #-1]
    4aa0:	2b30      	cmp	r3, #48	@ 0x30
    4aa2:	d0f9      	beq.n	4a98 <_dtoa_r+0xd0c>
    4aa4:	9d19      	ldr	r5, [sp, #100]	@ 0x64
    4aa6:	3501      	adds	r5, #1
    4aa8:	e517      	b.n	44da <_dtoa_r+0x74e>
    4aaa:	e9dd 8900 	ldrd	r8, r9, [sp]
    4aae:	2702      	movs	r7, #2
    4ab0:	f7ff baea 	b.w	4088 <_dtoa_r+0x2fc>
    4ab4:	f1bb 0f00 	cmp.w	fp, #0
    4ab8:	f43f ab9d 	beq.w	41f6 <_dtoa_r+0x46a>
    4abc:	9c13      	ldr	r4, [sp, #76]	@ 0x4c
    4abe:	2c00      	cmp	r4, #0
    4ac0:	f77f abc2 	ble.w	4248 <_dtoa_r+0x4bc>
    4ac4:	9b0d      	ldr	r3, [sp, #52]	@ 0x34
    4ac6:	3b01      	subs	r3, #1
    4ac8:	2200      	movs	r2, #0
    4aca:	4640      	mov	r0, r8
    4acc:	4649      	mov	r1, r9
    4ace:	9319      	str	r3, [sp, #100]	@ 0x64
    4ad0:	4b48      	ldr	r3, [pc, #288]	@ (4bf4 <_dtoa_r+0xe68>)
    4ad2:	f003 fbd1 	bl	8278 <__aeabi_dmul>
    4ad6:	4680      	mov	r8, r0
    4ad8:	4689      	mov	r9, r1
    4ada:	1c78      	adds	r0, r7, #1
    4adc:	f003 fb62 	bl	81a4 <__aeabi_i2d>
    4ae0:	4642      	mov	r2, r8
    4ae2:	464b      	mov	r3, r9
    4ae4:	f003 fbc8 	bl	8278 <__aeabi_dmul>
    4ae8:	4b45      	ldr	r3, [pc, #276]	@ (4c00 <_dtoa_r+0xe74>)
    4aea:	2200      	movs	r2, #0
    4aec:	f003 fa0e 	bl	7f0c <__adddf3>
    4af0:	f1a1 7350 	sub.w	r3, r1, #54525952	@ 0x3400000
    4af4:	e9cd 0114 	strd	r0, r1, [sp, #80]	@ 0x50
    4af8:	9418      	str	r4, [sp, #96]	@ 0x60
    4afa:	9315      	str	r3, [sp, #84]	@ 0x54
    4afc:	f7ff bae6 	b.w	40cc <_dtoa_r+0x340>
    4b00:	f108 0801 	add.w	r8, r8, #1
    4b04:	2331      	movs	r3, #49	@ 0x31
    4b06:	f7ff bb67 	b.w	41d8 <_dtoa_r+0x44c>
    4b0a:	9d0d      	ldr	r5, [sp, #52]	@ 0x34
    4b0c:	9a05      	ldr	r2, [sp, #20]
    4b0e:	46b3      	mov	fp, r6
    4b10:	2339      	movs	r3, #57	@ 0x39
    4b12:	463c      	mov	r4, r7
    4b14:	f80b 3b01 	strb.w	r3, [fp], #1
    4b18:	3501      	adds	r5, #1
    4b1a:	4647      	mov	r7, r8
    4b1c:	e4c1      	b.n	44a2 <_dtoa_r+0x716>
    4b1e:	2300      	movs	r3, #0
    4b20:	9300      	str	r3, [sp, #0]
    4b22:	461f      	mov	r7, r3
    4b24:	e5e5      	b.n	46f2 <_dtoa_r+0x966>
    4b26:	9b08      	ldr	r3, [sp, #32]
    4b28:	445b      	add	r3, fp
    4b2a:	9308      	str	r3, [sp, #32]
    4b2c:	9b0c      	ldr	r3, [sp, #48]	@ 0x30
    4b2e:	461d      	mov	r5, r3
    4b30:	445b      	add	r3, fp
    4b32:	930c      	str	r3, [sp, #48]	@ 0x30
    4b34:	e679      	b.n	482a <_dtoa_r+0xa9e>
    4b36:	9b19      	ldr	r3, [sp, #100]	@ 0x64
    4b38:	9a05      	ldr	r2, [sp, #20]
    4b3a:	f103 0801 	add.w	r8, r3, #1
    4b3e:	f7ff bb44 	b.w	41ca <_dtoa_r+0x43e>
    4b42:	f8dd a050 	ldr.w	sl, [sp, #80]	@ 0x50
    4b46:	e7ad      	b.n	4aa4 <_dtoa_r+0xd18>
    4b48:	f8dd a050 	ldr.w	sl, [sp, #80]	@ 0x50
    4b4c:	f8dd b058 	ldr.w	fp, [sp, #88]	@ 0x58
    4b50:	f7ff bb7a 	b.w	4248 <_dtoa_r+0x4bc>
    4b54:	f1b9 0f39 	cmp.w	r9, #57	@ 0x39
    4b58:	d0d7      	beq.n	4b0a <_dtoa_r+0xd7e>
    4b5a:	2d00      	cmp	r5, #0
    4b5c:	f73f ad8c 	bgt.w	4678 <_dtoa_r+0x8ec>
    4b60:	e58c      	b.n	467c <_dtoa_r+0x8f0>
    4b62:	9b02      	ldr	r3, [sp, #8]
    4b64:	2b02      	cmp	r3, #2
    4b66:	dc03      	bgt.n	4b70 <_dtoa_r+0xde4>
    4b68:	9d0d      	ldr	r5, [sp, #52]	@ 0x34
    4b6a:	f8dd b04c 	ldr.w	fp, [sp, #76]	@ 0x4c
    4b6e:	e464      	b.n	443a <_dtoa_r+0x6ae>
    4b70:	f8dd b04c 	ldr.w	fp, [sp, #76]	@ 0x4c
    4b74:	960d      	str	r6, [sp, #52]	@ 0x34
    4b76:	e5aa      	b.n	46ce <_dtoa_r+0x942>
    4b78:	9b02      	ldr	r3, [sp, #8]
    4b7a:	2b02      	cmp	r3, #2
    4b7c:	dcf8      	bgt.n	4b70 <_dtoa_r+0xde4>
    4b7e:	f8dd b04c 	ldr.w	fp, [sp, #76]	@ 0x4c
    4b82:	960d      	str	r6, [sp, #52]	@ 0x34
    4b84:	e4fb      	b.n	457e <_dtoa_r+0x7f2>
    4b86:	4637      	mov	r7, r6
    4b88:	e75a      	b.n	4a40 <_dtoa_r+0xcb4>
    4b8a:	e9dd 8914 	ldrd	r8, r9, [sp, #80]	@ 0x50
    4b8e:	2702      	movs	r7, #2
    4b90:	f7ff ba7a 	b.w	4088 <_dtoa_r+0x2fc>
    4b94:	9b04      	ldr	r3, [sp, #16]
    4b96:	2500      	movs	r5, #0
    4b98:	63dd      	str	r5, [r3, #60]	@ 0x3c
    4b9a:	4629      	mov	r1, r5
    4b9c:	4618      	mov	r0, r3
    4b9e:	f000 fd49 	bl	5634 <_Balloc>
    4ba2:	9005      	str	r0, [sp, #20]
    4ba4:	b9d0      	cbnz	r0, 4bdc <_dtoa_r+0xe50>
    4ba6:	4b17      	ldr	r3, [pc, #92]	@ (4c04 <_dtoa_r+0xe78>)
    4ba8:	4817      	ldr	r0, [pc, #92]	@ (4c08 <_dtoa_r+0xe7c>)
    4baa:	2200      	movs	r2, #0
    4bac:	f240 11af 	movw	r1, #431	@ 0x1af
    4bb0:	f000 fd1a 	bl	55e8 <__assert_func>
    4bb4:	4b13      	ldr	r3, [pc, #76]	@ (4c04 <_dtoa_r+0xe78>)
    4bb6:	4814      	ldr	r0, [pc, #80]	@ (4c08 <_dtoa_r+0xe7c>)
    4bb8:	462a      	mov	r2, r5
    4bba:	f240 21ef 	movw	r1, #751	@ 0x2ef
    4bbe:	f000 fd13 	bl	55e8 <__assert_func>
    4bc2:	2a00      	cmp	r2, #0
    4bc4:	f73f ad48 	bgt.w	4658 <_dtoa_r+0x8cc>
    4bc8:	e558      	b.n	467c <_dtoa_r+0x8f0>
    4bca:	9b04      	ldr	r3, [sp, #16]
    4bcc:	2100      	movs	r1, #0
    4bce:	63d9      	str	r1, [r3, #60]	@ 0x3c
    4bd0:	f7ff ba14 	b.w	3ffc <_dtoa_r+0x270>
    4bd4:	4b0d      	ldr	r3, [pc, #52]	@ (4c0c <_dtoa_r+0xe80>)
    4bd6:	9305      	str	r3, [sp, #20]
    4bd8:	f7ff b916 	b.w	3e08 <_dtoa_r+0x7c>
    4bdc:	e9dd 3204 	ldrd	r3, r2, [sp, #16]
    4be0:	639a      	str	r2, [r3, #56]	@ 0x38
    4be2:	f04f 33ff 	mov.w	r3, #4294967295	@ 0xffffffff
    4be6:	2201      	movs	r2, #1
    4be8:	950b      	str	r5, [sp, #44]	@ 0x2c
    4bea:	9313      	str	r3, [sp, #76]	@ 0x4c
    4bec:	920e      	str	r2, [sp, #56]	@ 0x38
    4bee:	469b      	mov	fp, r3
    4bf0:	f7ff bb2a 	b.w	4248 <_dtoa_r+0x4bc>
    4bf4:	40240000 	.word	0x40240000
    4bf8:	3fe00000 	.word	0x3fe00000
    4bfc:	00009918 	.word	0x00009918
    4c00:	401c0000 	.word	0x401c0000
    4c04:	00009720 	.word	0x00009720
    4c08:	00009734 	.word	0x00009734
    4c0c:	00009710 	.word	0x00009710

00004c10 <_malloc_trim_r>:
    4c10:	e92d 43f8 	stmdb	sp!, {r3, r4, r5, r6, r7, r8, r9, lr}
    4c14:	4606      	mov	r6, r0
    4c16:	2008      	movs	r0, #8
    4c18:	4689      	mov	r9, r1
    4c1a:	f000 fad7 	bl	51cc <sysconf>
    4c1e:	f8df 80a4 	ldr.w	r8, [pc, #164]	@ 4cc4 <_malloc_trim_r+0xb4>
    4c22:	4605      	mov	r5, r0
    4c24:	4630      	mov	r0, r6
    4c26:	f7fc fccf 	bl	15c8 <__malloc_lock>
    4c2a:	f8d8 3008 	ldr.w	r3, [r8, #8]
    4c2e:	685f      	ldr	r7, [r3, #4]
    4c30:	f027 0703 	bic.w	r7, r7, #3
    4c34:	f1a7 0411 	sub.w	r4, r7, #17
    4c38:	eba4 0409 	sub.w	r4, r4, r9
    4c3c:	442c      	add	r4, r5
    4c3e:	fbb4 f4f5 	udiv	r4, r4, r5
    4c42:	3c01      	subs	r4, #1
    4c44:	fb05 f404 	mul.w	r4, r5, r4
    4c48:	42a5      	cmp	r5, r4
    4c4a:	dc08      	bgt.n	4c5e <_malloc_trim_r+0x4e>
    4c4c:	2100      	movs	r1, #0
    4c4e:	4630      	mov	r0, r6
    4c50:	f000 fc08 	bl	5464 <_sbrk_r>
    4c54:	f8d8 3008 	ldr.w	r3, [r8, #8]
    4c58:	443b      	add	r3, r7
    4c5a:	4298      	cmp	r0, r3
    4c5c:	d005      	beq.n	4c6a <_malloc_trim_r+0x5a>
    4c5e:	4630      	mov	r0, r6
    4c60:	f7fc fcbc 	bl	15dc <__malloc_unlock>
    4c64:	2000      	movs	r0, #0
    4c66:	e8bd 83f8 	ldmia.w	sp!, {r3, r4, r5, r6, r7, r8, r9, pc}
    4c6a:	4261      	negs	r1, r4
    4c6c:	4630      	mov	r0, r6
    4c6e:	f000 fbf9 	bl	5464 <_sbrk_r>
    4c72:	3001      	adds	r0, #1
    4c74:	d00f      	beq.n	4c96 <_malloc_trim_r+0x86>
    4c76:	4a11      	ldr	r2, [pc, #68]	@ (4cbc <_malloc_trim_r+0xac>)
    4c78:	f8d8 3008 	ldr.w	r3, [r8, #8]
    4c7c:	1b3f      	subs	r7, r7, r4
    4c7e:	f047 0701 	orr.w	r7, r7, #1
    4c82:	605f      	str	r7, [r3, #4]
    4c84:	6813      	ldr	r3, [r2, #0]
    4c86:	4630      	mov	r0, r6
    4c88:	1b1b      	subs	r3, r3, r4
    4c8a:	6013      	str	r3, [r2, #0]
    4c8c:	f7fc fca6 	bl	15dc <__malloc_unlock>
    4c90:	2001      	movs	r0, #1
    4c92:	e8bd 83f8 	ldmia.w	sp!, {r3, r4, r5, r6, r7, r8, r9, pc}
    4c96:	2100      	movs	r1, #0
    4c98:	4630      	mov	r0, r6
    4c9a:	f000 fbe3 	bl	5464 <_sbrk_r>
    4c9e:	f8d8 2008 	ldr.w	r2, [r8, #8]
    4ca2:	1a83      	subs	r3, r0, r2
    4ca4:	2b0f      	cmp	r3, #15
    4ca6:	ddda      	ble.n	4c5e <_malloc_trim_r+0x4e>
    4ca8:	f043 0301 	orr.w	r3, r3, #1
    4cac:	6053      	str	r3, [r2, #4]
    4cae:	4b04      	ldr	r3, [pc, #16]	@ (4cc0 <_malloc_trim_r+0xb0>)
    4cb0:	4902      	ldr	r1, [pc, #8]	@ (4cbc <_malloc_trim_r+0xac>)
    4cb2:	681b      	ldr	r3, [r3, #0]
    4cb4:	1ac0      	subs	r0, r0, r3
    4cb6:	6008      	str	r0, [r1, #0]
    4cb8:	e7d1      	b.n	4c5e <_malloc_trim_r+0x4e>
    4cba:	bf00      	nop
    4cbc:	20000710 	.word	0x20000710
    4cc0:	20000530 	.word	0x20000530
    4cc4:	20000128 	.word	0x20000128

00004cc8 <_free_r>:
    4cc8:	2900      	cmp	r1, #0
    4cca:	d07c      	beq.n	4dc6 <_free_r+0xfe>
    4ccc:	e92d 41f0 	stmdb	sp!, {r4, r5, r6, r7, r8, lr}
    4cd0:	460c      	mov	r4, r1
    4cd2:	4680      	mov	r8, r0
    4cd4:	f7fc fc78 	bl	15c8 <__malloc_lock>
    4cd8:	f854 3c04 	ldr.w	r3, [r4, #-4]
    4cdc:	4f75      	ldr	r7, [pc, #468]	@ (4eb4 <_free_r+0x1ec>)
    4cde:	f1a4 0508 	sub.w	r5, r4, #8
    4ce2:	f023 0101 	bic.w	r1, r3, #1
    4ce6:	1868      	adds	r0, r5, r1
    4ce8:	68be      	ldr	r6, [r7, #8]
    4cea:	6842      	ldr	r2, [r0, #4]
    4cec:	4286      	cmp	r6, r0
    4cee:	f022 0203 	bic.w	r2, r2, #3
    4cf2:	f000 8083 	beq.w	4dfc <_free_r+0x134>
    4cf6:	07de      	lsls	r6, r3, #31
    4cf8:	6042      	str	r2, [r0, #4]
    4cfa:	eb00 0c02 	add.w	ip, r0, r2
    4cfe:	d433      	bmi.n	4d68 <_free_r+0xa0>
    4d00:	f854 4c08 	ldr.w	r4, [r4, #-8]
    4d04:	f8dc 3004 	ldr.w	r3, [ip, #4]
    4d08:	1b2d      	subs	r5, r5, r4
    4d0a:	4421      	add	r1, r4
    4d0c:	68ac      	ldr	r4, [r5, #8]
    4d0e:	f107 0c08 	add.w	ip, r7, #8
    4d12:	4564      	cmp	r4, ip
    4d14:	f003 0301 	and.w	r3, r3, #1
    4d18:	d064      	beq.n	4de4 <_free_r+0x11c>
    4d1a:	f8d5 e00c 	ldr.w	lr, [r5, #12]
    4d1e:	f8c4 e00c 	str.w	lr, [r4, #12]
    4d22:	f8ce 4008 	str.w	r4, [lr, #8]
    4d26:	2b00      	cmp	r3, #0
    4d28:	f000 8081 	beq.w	4e2e <_free_r+0x166>
    4d2c:	f041 0301 	orr.w	r3, r1, #1
    4d30:	606b      	str	r3, [r5, #4]
    4d32:	6001      	str	r1, [r0, #0]
    4d34:	f5b1 7f00 	cmp.w	r1, #512	@ 0x200
    4d38:	d222      	bcs.n	4d80 <_free_r+0xb8>
    4d3a:	6878      	ldr	r0, [r7, #4]
    4d3c:	08cb      	lsrs	r3, r1, #3
    4d3e:	2201      	movs	r2, #1
    4d40:	0949      	lsrs	r1, r1, #5
    4d42:	3301      	adds	r3, #1
    4d44:	408a      	lsls	r2, r1
    4d46:	4302      	orrs	r2, r0
    4d48:	f857 1033 	ldr.w	r1, [r7, r3, lsl #3]
    4d4c:	607a      	str	r2, [r7, #4]
    4d4e:	eb07 02c3 	add.w	r2, r7, r3, lsl #3
    4d52:	3a08      	subs	r2, #8
    4d54:	e9c5 1202 	strd	r1, r2, [r5, #8]
    4d58:	f847 5033 	str.w	r5, [r7, r3, lsl #3]
    4d5c:	60cd      	str	r5, [r1, #12]
    4d5e:	4640      	mov	r0, r8
    4d60:	e8bd 41f0 	ldmia.w	sp!, {r4, r5, r6, r7, r8, lr}
    4d64:	f7fc bc3a 	b.w	15dc <__malloc_unlock>
    4d68:	f8dc 3004 	ldr.w	r3, [ip, #4]
    4d6c:	07db      	lsls	r3, r3, #31
    4d6e:	d52b      	bpl.n	4dc8 <_free_r+0x100>
    4d70:	f041 0301 	orr.w	r3, r1, #1
    4d74:	f5b1 7f00 	cmp.w	r1, #512	@ 0x200
    4d78:	f844 3c04 	str.w	r3, [r4, #-4]
    4d7c:	6001      	str	r1, [r0, #0]
    4d7e:	d3dc      	bcc.n	4d3a <_free_r+0x72>
    4d80:	f5b1 6f20 	cmp.w	r1, #2560	@ 0xa00
    4d84:	ea4f 2351 	mov.w	r3, r1, lsr #9
    4d88:	d253      	bcs.n	4e32 <_free_r+0x16a>
    4d8a:	098b      	lsrs	r3, r1, #6
    4d8c:	f103 0039 	add.w	r0, r3, #57	@ 0x39
    4d90:	f103 0238 	add.w	r2, r3, #56	@ 0x38
    4d94:	00c3      	lsls	r3, r0, #3
    4d96:	18f8      	adds	r0, r7, r3
    4d98:	58fb      	ldr	r3, [r7, r3]
    4d9a:	3808      	subs	r0, #8
    4d9c:	4298      	cmp	r0, r3
    4d9e:	d103      	bne.n	4da8 <_free_r+0xe0>
    4da0:	e061      	b.n	4e66 <_free_r+0x19e>
    4da2:	689b      	ldr	r3, [r3, #8]
    4da4:	4298      	cmp	r0, r3
    4da6:	d004      	beq.n	4db2 <_free_r+0xea>
    4da8:	685a      	ldr	r2, [r3, #4]
    4daa:	f022 0203 	bic.w	r2, r2, #3
    4dae:	428a      	cmp	r2, r1
    4db0:	d8f7      	bhi.n	4da2 <_free_r+0xda>
    4db2:	68d8      	ldr	r0, [r3, #12]
    4db4:	e9c5 3002 	strd	r3, r0, [r5, #8]
    4db8:	6085      	str	r5, [r0, #8]
    4dba:	60dd      	str	r5, [r3, #12]
    4dbc:	4640      	mov	r0, r8
    4dbe:	e8bd 41f0 	ldmia.w	sp!, {r4, r5, r6, r7, r8, lr}
    4dc2:	f7fc bc0b 	b.w	15dc <__malloc_unlock>
    4dc6:	4770      	bx	lr
    4dc8:	4411      	add	r1, r2
    4dca:	f107 0c08 	add.w	ip, r7, #8
    4dce:	6883      	ldr	r3, [r0, #8]
    4dd0:	4563      	cmp	r3, ip
    4dd2:	d03f      	beq.n	4e54 <_free_r+0x18c>
    4dd4:	68c2      	ldr	r2, [r0, #12]
    4dd6:	60da      	str	r2, [r3, #12]
    4dd8:	6093      	str	r3, [r2, #8]
    4dda:	f041 0301 	orr.w	r3, r1, #1
    4dde:	606b      	str	r3, [r5, #4]
    4de0:	5069      	str	r1, [r5, r1]
    4de2:	e7a7      	b.n	4d34 <_free_r+0x6c>
    4de4:	2b00      	cmp	r3, #0
    4de6:	d15f      	bne.n	4ea8 <_free_r+0x1e0>
    4de8:	440a      	add	r2, r1
    4dea:	e9d0 1302 	ldrd	r1, r3, [r0, #8]
    4dee:	60cb      	str	r3, [r1, #12]
    4df0:	6099      	str	r1, [r3, #8]
    4df2:	f042 0301 	orr.w	r3, r2, #1
    4df6:	606b      	str	r3, [r5, #4]
    4df8:	50aa      	str	r2, [r5, r2]
    4dfa:	e7b0      	b.n	4d5e <_free_r+0x96>
    4dfc:	07db      	lsls	r3, r3, #31
    4dfe:	440a      	add	r2, r1
    4e00:	d407      	bmi.n	4e12 <_free_r+0x14a>
    4e02:	f854 3c08 	ldr.w	r3, [r4, #-8]
    4e06:	1aed      	subs	r5, r5, r3
    4e08:	441a      	add	r2, r3
    4e0a:	e9d5 1302 	ldrd	r1, r3, [r5, #8]
    4e0e:	60cb      	str	r3, [r1, #12]
    4e10:	6099      	str	r1, [r3, #8]
    4e12:	f042 0301 	orr.w	r3, r2, #1
    4e16:	606b      	str	r3, [r5, #4]
    4e18:	4b27      	ldr	r3, [pc, #156]	@ (4eb8 <_free_r+0x1f0>)
    4e1a:	60bd      	str	r5, [r7, #8]
    4e1c:	681b      	ldr	r3, [r3, #0]
    4e1e:	4293      	cmp	r3, r2
    4e20:	d89d      	bhi.n	4d5e <_free_r+0x96>
    4e22:	4b26      	ldr	r3, [pc, #152]	@ (4ebc <_free_r+0x1f4>)
    4e24:	4640      	mov	r0, r8
    4e26:	6819      	ldr	r1, [r3, #0]
    4e28:	f7ff fef2 	bl	4c10 <_malloc_trim_r>
    4e2c:	e797      	b.n	4d5e <_free_r+0x96>
    4e2e:	4411      	add	r1, r2
    4e30:	e7cd      	b.n	4dce <_free_r+0x106>
    4e32:	2b14      	cmp	r3, #20
    4e34:	d908      	bls.n	4e48 <_free_r+0x180>
    4e36:	2b54      	cmp	r3, #84	@ 0x54
    4e38:	d81d      	bhi.n	4e76 <_free_r+0x1ae>
    4e3a:	0b0b      	lsrs	r3, r1, #12
    4e3c:	f103 006f 	add.w	r0, r3, #111	@ 0x6f
    4e40:	f103 026e 	add.w	r2, r3, #110	@ 0x6e
    4e44:	00c3      	lsls	r3, r0, #3
    4e46:	e7a6      	b.n	4d96 <_free_r+0xce>
    4e48:	f103 005c 	add.w	r0, r3, #92	@ 0x5c
    4e4c:	f103 025b 	add.w	r2, r3, #91	@ 0x5b
    4e50:	00c3      	lsls	r3, r0, #3
    4e52:	e7a0      	b.n	4d96 <_free_r+0xce>
    4e54:	f041 0301 	orr.w	r3, r1, #1
    4e58:	e9c7 5504 	strd	r5, r5, [r7, #16]
    4e5c:	e9c5 cc02 	strd	ip, ip, [r5, #8]
    4e60:	606b      	str	r3, [r5, #4]
    4e62:	5069      	str	r1, [r5, r1]
    4e64:	e77b      	b.n	4d5e <_free_r+0x96>
    4e66:	6879      	ldr	r1, [r7, #4]
    4e68:	1092      	asrs	r2, r2, #2
    4e6a:	2401      	movs	r4, #1
    4e6c:	fa04 f202 	lsl.w	r2, r4, r2
    4e70:	430a      	orrs	r2, r1
    4e72:	607a      	str	r2, [r7, #4]
    4e74:	e79e      	b.n	4db4 <_free_r+0xec>
    4e76:	f5b3 7faa 	cmp.w	r3, #340	@ 0x154
    4e7a:	d806      	bhi.n	4e8a <_free_r+0x1c2>
    4e7c:	0bcb      	lsrs	r3, r1, #15
    4e7e:	f103 0078 	add.w	r0, r3, #120	@ 0x78
    4e82:	f103 0277 	add.w	r2, r3, #119	@ 0x77
    4e86:	00c3      	lsls	r3, r0, #3
    4e88:	e785      	b.n	4d96 <_free_r+0xce>
    4e8a:	f240 5254 	movw	r2, #1364	@ 0x554
    4e8e:	4293      	cmp	r3, r2
    4e90:	d806      	bhi.n	4ea0 <_free_r+0x1d8>
    4e92:	0c8b      	lsrs	r3, r1, #18
    4e94:	f103 007d 	add.w	r0, r3, #125	@ 0x7d
    4e98:	f103 027c 	add.w	r2, r3, #124	@ 0x7c
    4e9c:	00c3      	lsls	r3, r0, #3
    4e9e:	e77a      	b.n	4d96 <_free_r+0xce>
    4ea0:	f44f 737e 	mov.w	r3, #1016	@ 0x3f8
    4ea4:	227e      	movs	r2, #126	@ 0x7e
    4ea6:	e776      	b.n	4d96 <_free_r+0xce>
    4ea8:	f041 0301 	orr.w	r3, r1, #1
    4eac:	606b      	str	r3, [r5, #4]
    4eae:	6001      	str	r1, [r0, #0]
    4eb0:	e755      	b.n	4d5e <_free_r+0x96>
    4eb2:	bf00      	nop
    4eb4:	20000128 	.word	0x20000128
    4eb8:	20000534 	.word	0x20000534
    4ebc:	2000070c 	.word	0x2000070c

00004ec0 <__strtok_r>:
    4ec0:	b318      	cbz	r0, 4f0a <__strtok_r+0x4a>
    4ec2:	b4f0      	push	{r4, r5, r6, r7}
    4ec4:	4607      	mov	r7, r0
    4ec6:	468c      	mov	ip, r1
    4ec8:	f817 5b01 	ldrb.w	r5, [r7], #1
    4ecc:	e001      	b.n	4ed2 <__strtok_r+0x12>
    4ece:	42a5      	cmp	r5, r4
    4ed0:	d014      	beq.n	4efc <__strtok_r+0x3c>
    4ed2:	f81c 4b01 	ldrb.w	r4, [ip], #1
    4ed6:	2c00      	cmp	r4, #0
    4ed8:	d1f9      	bne.n	4ece <__strtok_r+0xe>
    4eda:	b1dd      	cbz	r5, 4f14 <__strtok_r+0x54>
    4edc:	463e      	mov	r6, r7
    4ede:	460c      	mov	r4, r1
    4ee0:	f816 5b01 	ldrb.w	r5, [r6], #1
    4ee4:	e000      	b.n	4ee8 <__strtok_r+0x28>
    4ee6:	b163      	cbz	r3, 4f02 <__strtok_r+0x42>
    4ee8:	f814 3b01 	ldrb.w	r3, [r4], #1
    4eec:	429d      	cmp	r5, r3
    4eee:	d1fa      	bne.n	4ee6 <__strtok_r+0x26>
    4ef0:	b14d      	cbz	r5, 4f06 <__strtok_r+0x46>
    4ef2:	2300      	movs	r3, #0
    4ef4:	703b      	strb	r3, [r7, #0]
    4ef6:	6016      	str	r6, [r2, #0]
    4ef8:	bcf0      	pop	{r4, r5, r6, r7}
    4efa:	4770      	bx	lr
    4efc:	b173      	cbz	r3, 4f1c <__strtok_r+0x5c>
    4efe:	4638      	mov	r0, r7
    4f00:	e7e0      	b.n	4ec4 <__strtok_r+0x4>
    4f02:	4637      	mov	r7, r6
    4f04:	e7ea      	b.n	4edc <__strtok_r+0x1c>
    4f06:	462e      	mov	r6, r5
    4f08:	e7f5      	b.n	4ef6 <__strtok_r+0x36>
    4f0a:	6810      	ldr	r0, [r2, #0]
    4f0c:	2800      	cmp	r0, #0
    4f0e:	d1d8      	bne.n	4ec2 <__strtok_r+0x2>
    4f10:	2000      	movs	r0, #0
    4f12:	4770      	bx	lr
    4f14:	6015      	str	r5, [r2, #0]
    4f16:	2000      	movs	r0, #0
    4f18:	bcf0      	pop	{r4, r5, r6, r7}
    4f1a:	4770      	bx	lr
    4f1c:	6017      	str	r7, [r2, #0]
    4f1e:	7003      	strb	r3, [r0, #0]
    4f20:	e7ea      	b.n	4ef8 <__strtok_r+0x38>
    4f22:	bf00      	nop

00004f24 <strtok_r>:
    4f24:	2301      	movs	r3, #1
    4f26:	f7ff bfcb 	b.w	4ec0 <__strtok_r>
    4f2a:	bf00      	nop

00004f2c <_strtol_l.isra.0>:
    4f2c:	2b24      	cmp	r3, #36	@ 0x24
    4f2e:	e92d 4ff8 	stmdb	sp!, {r3, r4, r5, r6, r7, r8, r9, sl, fp, lr}
    4f32:	d843      	bhi.n	4fbc <_strtol_l.isra.0+0x90>
    4f34:	2b01      	cmp	r3, #1
    4f36:	d041      	beq.n	4fbc <_strtol_l.isra.0+0x90>
    4f38:	4680      	mov	r8, r0
    4f3a:	4849      	ldr	r0, [pc, #292]	@ (5060 <_strtol_l.isra.0+0x134>)
    4f3c:	461f      	mov	r7, r3
    4f3e:	468e      	mov	lr, r1
    4f40:	4675      	mov	r5, lr
    4f42:	f81e bb01 	ldrb.w	fp, [lr], #1
    4f46:	f810 400b 	ldrb.w	r4, [r0, fp]
    4f4a:	f014 0408 	ands.w	r4, r4, #8
    4f4e:	d1f7      	bne.n	4f40 <_strtol_l.isra.0+0x14>
    4f50:	f1bb 0f2d 	cmp.w	fp, #45	@ 0x2d
    4f54:	d06f      	beq.n	5036 <_strtol_l.isra.0+0x10a>
    4f56:	f1bb 0f2b 	cmp.w	fp, #43	@ 0x2b
    4f5a:	bf08      	it	eq
    4f5c:	f89e b000 	ldrbeq.w	fp, [lr]
    4f60:	f06f 4900 	mvn.w	r9, #2147483648	@ 0x80000000
    4f64:	bf08      	it	eq
    4f66:	f105 0e02 	addeq.w	lr, r5, #2
    4f6a:	bb73      	cbnz	r3, 4fca <_strtol_l.isra.0+0x9e>
    4f6c:	f1bb 0f30 	cmp.w	fp, #48	@ 0x30
    4f70:	d04b      	beq.n	500a <_strtol_l.isra.0+0xde>
    4f72:	270a      	movs	r7, #10
    4f74:	463b      	mov	r3, r7
    4f76:	2500      	movs	r5, #0
    4f78:	fbb9 f6f7 	udiv	r6, r9, r7
    4f7c:	4628      	mov	r0, r5
    4f7e:	fb07 9a16 	mls	sl, r7, r6, r9
    4f82:	e005      	b.n	4f90 <_strtol_l.isra.0+0x64>
    4f84:	d03a      	beq.n	4ffc <_strtol_l.isra.0+0xd0>
    4f86:	fb07 c000 	mla	r0, r7, r0, ip
    4f8a:	2501      	movs	r5, #1
    4f8c:	f81e bb01 	ldrb.w	fp, [lr], #1
    4f90:	f1ab 0c30 	sub.w	ip, fp, #48	@ 0x30
    4f94:	f1bc 0f09 	cmp.w	ip, #9
    4f98:	d906      	bls.n	4fa8 <_strtol_l.isra.0+0x7c>
    4f9a:	f1ab 0c41 	sub.w	ip, fp, #65	@ 0x41
    4f9e:	f1bc 0f19 	cmp.w	ip, #25
    4fa2:	d819      	bhi.n	4fd8 <_strtol_l.isra.0+0xac>
    4fa4:	f1ab 0c37 	sub.w	ip, fp, #55	@ 0x37
    4fa8:	4563      	cmp	r3, ip
    4faa:	dd1e      	ble.n	4fea <_strtol_l.isra.0+0xbe>
    4fac:	f1b5 3fff 	cmp.w	r5, #4294967295	@ 0xffffffff
    4fb0:	d0ec      	beq.n	4f8c <_strtol_l.isra.0+0x60>
    4fb2:	4286      	cmp	r6, r0
    4fb4:	d2e6      	bcs.n	4f84 <_strtol_l.isra.0+0x58>
    4fb6:	f04f 35ff 	mov.w	r5, #4294967295	@ 0xffffffff
    4fba:	e7e7      	b.n	4f8c <_strtol_l.isra.0+0x60>
    4fbc:	f7fe fba0 	bl	3700 <__errno>
    4fc0:	2316      	movs	r3, #22
    4fc2:	6003      	str	r3, [r0, #0]
    4fc4:	2000      	movs	r0, #0
    4fc6:	e8bd 8ff8 	ldmia.w	sp!, {r3, r4, r5, r6, r7, r8, r9, sl, fp, pc}
    4fca:	2b10      	cmp	r3, #16
    4fcc:	d1d3      	bne.n	4f76 <_strtol_l.isra.0+0x4a>
    4fce:	f1bb 0f30 	cmp.w	fp, #48	@ 0x30
    4fd2:	d023      	beq.n	501c <_strtol_l.isra.0+0xf0>
    4fd4:	461f      	mov	r7, r3
    4fd6:	e7ce      	b.n	4f76 <_strtol_l.isra.0+0x4a>
    4fd8:	f1ab 0c61 	sub.w	ip, fp, #97	@ 0x61
    4fdc:	f1bc 0f19 	cmp.w	ip, #25
    4fe0:	d803      	bhi.n	4fea <_strtol_l.isra.0+0xbe>
    4fe2:	f1ab 0c57 	sub.w	ip, fp, #87	@ 0x57
    4fe6:	4563      	cmp	r3, ip
    4fe8:	dce0      	bgt.n	4fac <_strtol_l.isra.0+0x80>
    4fea:	1c6b      	adds	r3, r5, #1
    4fec:	d02b      	beq.n	5046 <_strtol_l.isra.0+0x11a>
    4fee:	b954      	cbnz	r4, 5006 <_strtol_l.isra.0+0xda>
    4ff0:	2a00      	cmp	r2, #0
    4ff2:	d0e8      	beq.n	4fc6 <_strtol_l.isra.0+0x9a>
    4ff4:	bb85      	cbnz	r5, 5058 <_strtol_l.isra.0+0x12c>
    4ff6:	6011      	str	r1, [r2, #0]
    4ff8:	e8bd 8ff8 	ldmia.w	sp!, {r3, r4, r5, r6, r7, r8, r9, sl, fp, pc}
    4ffc:	45e2      	cmp	sl, ip
    4ffe:	dac2      	bge.n	4f86 <_strtol_l.isra.0+0x5a>
    5000:	f04f 35ff 	mov.w	r5, #4294967295	@ 0xffffffff
    5004:	e7c2      	b.n	4f8c <_strtol_l.isra.0+0x60>
    5006:	4240      	negs	r0, r0
    5008:	e7f2      	b.n	4ff0 <_strtol_l.isra.0+0xc4>
    500a:	f89e 3000 	ldrb.w	r3, [lr]
    500e:	f003 03df 	and.w	r3, r3, #223	@ 0xdf
    5012:	2b58      	cmp	r3, #88	@ 0x58
    5014:	d008      	beq.n	5028 <_strtol_l.isra.0+0xfc>
    5016:	2708      	movs	r7, #8
    5018:	463b      	mov	r3, r7
    501a:	e7ac      	b.n	4f76 <_strtol_l.isra.0+0x4a>
    501c:	f89e 0000 	ldrb.w	r0, [lr]
    5020:	f000 00df 	and.w	r0, r0, #223	@ 0xdf
    5024:	2858      	cmp	r0, #88	@ 0x58
    5026:	d1d5      	bne.n	4fd4 <_strtol_l.isra.0+0xa8>
    5028:	2710      	movs	r7, #16
    502a:	f89e b001 	ldrb.w	fp, [lr, #1]
    502e:	463b      	mov	r3, r7
    5030:	f10e 0e02 	add.w	lr, lr, #2
    5034:	e79f      	b.n	4f76 <_strtol_l.isra.0+0x4a>
    5036:	f89e b000 	ldrb.w	fp, [lr]
    503a:	f04f 4900 	mov.w	r9, #2147483648	@ 0x80000000
    503e:	f105 0e02 	add.w	lr, r5, #2
    5042:	2401      	movs	r4, #1
    5044:	e791      	b.n	4f6a <_strtol_l.isra.0+0x3e>
    5046:	2322      	movs	r3, #34	@ 0x22
    5048:	f8c8 3000 	str.w	r3, [r8]
    504c:	b132      	cbz	r2, 505c <_strtol_l.isra.0+0x130>
    504e:	f10e 31ff 	add.w	r1, lr, #4294967295	@ 0xffffffff
    5052:	4648      	mov	r0, r9
    5054:	6011      	str	r1, [r2, #0]
    5056:	e7cf      	b.n	4ff8 <_strtol_l.isra.0+0xcc>
    5058:	4681      	mov	r9, r0
    505a:	e7f8      	b.n	504e <_strtol_l.isra.0+0x122>
    505c:	4648      	mov	r0, r9
    505e:	e7b2      	b.n	4fc6 <_strtol_l.isra.0+0x9a>
    5060:	00009801 	.word	0x00009801

00005064 <_strtol_r>:
    5064:	e762      	b.n	4f2c <_strtol_l.isra.0>
    5066:	bf00      	nop

00005068 <strtol_l>:
    5068:	b410      	push	{r4}
    506a:	4c04      	ldr	r4, [pc, #16]	@ (507c <strtol_l+0x14>)
    506c:	4684      	mov	ip, r0
    506e:	4613      	mov	r3, r2
    5070:	6820      	ldr	r0, [r4, #0]
    5072:	f85d 4b04 	ldr.w	r4, [sp], #4
    5076:	460a      	mov	r2, r1
    5078:	4661      	mov	r1, ip
    507a:	e757      	b.n	4f2c <_strtol_l.isra.0>
    507c:	20000000 	.word	0x20000000

00005080 <strtol>:
    5080:	b410      	push	{r4}
    5082:	4c04      	ldr	r4, [pc, #16]	@ (5094 <strtol+0x14>)
    5084:	4684      	mov	ip, r0
    5086:	4613      	mov	r3, r2
    5088:	6820      	ldr	r0, [r4, #0]
    508a:	f85d 4b04 	ldr.w	r4, [sp], #4
    508e:	460a      	mov	r2, r1
    5090:	4661      	mov	r1, ip
    5092:	e74b      	b.n	4f2c <_strtol_l.isra.0>
    5094:	20000000 	.word	0x20000000

00005098 <memcpy>:
    5098:	4684      	mov	ip, r0
    509a:	ea41 0300 	orr.w	r3, r1, r0
    509e:	f013 0303 	ands.w	r3, r3, #3
    50a2:	d16d      	bne.n	5180 <memcpy+0xe8>
    50a4:	3a40      	subs	r2, #64	@ 0x40
    50a6:	d341      	bcc.n	512c <memcpy+0x94>
    50a8:	f851 3b04 	ldr.w	r3, [r1], #4
    50ac:	f840 3b04 	str.w	r3, [r0], #4
    50b0:	f851 3b04 	ldr.w	r3, [r1], #4
    50b4:	f840 3b04 	str.w	r3, [r0], #4
    50b8:	f851 3b04 	ldr.w	r3, [r1], #4
    50bc:	f840 3b04 	str.w	r3, [r0], #4
    50c0:	f851 3b04 	ldr.w	r3, [r1], #4
    50c4:	f840 3b04 	str.w	r3, [r0], #4
    50c8:	f851 3b04 	ldr.w	r3, [r1], #4
    50cc:	f840 3b04 	str.w	r3, [r0], #4
    50d0:	f851 3b04 	ldr.w	r3, [r1], #4
    50d4:	f840 3b04 	str.w	r3, [r0], #4
    50d8:	f851 3b04 	ldr.w	r3, [r1], #4
    50dc:	f840 3b04 	str.w	r3, [r0], #4
    50e0:	f851 3b04 	ldr.w	r3, [r1], #4
    50e4:	f840 3b04 	str.w	r3, [r0], #4
    50e8:	f851 3b04 	ldr.w	r3, [r1], #4
    50ec:	f840 3b04 	str.w	r3, [r0], #4
    50f0:	f851 3b04 	ldr.w	r3, [r1], #4
    50f4:	f840 3b04 	str.w	r3, [r0], #4
    50f8:	f851 3b04 	ldr.w	r3, [r1], #4
    50fc:	f840 3b04 	str.w	r3, [r0], #4
    5100:	f851 3b04 	ldr.w	r3, [r1], #4
    5104:	f840 3b04 	str.w	r3, [r0], #4
    5108:	f851 3b04 	ldr.w	r3, [r1], #4
    510c:	f840 3b04 	str.w	r3, [r0], #4
    5110:	f851 3b04 	ldr.w	r3, [r1], #4
    5114:	f840 3b04 	str.w	r3, [r0], #4
    5118:	f851 3b04 	ldr.w	r3, [r1], #4
    511c:	f840 3b04 	str.w	r3, [r0], #4
    5120:	f851 3b04 	ldr.w	r3, [r1], #4
    5124:	f840 3b04 	str.w	r3, [r0], #4
    5128:	3a40      	subs	r2, #64	@ 0x40
    512a:	d2bd      	bcs.n	50a8 <memcpy+0x10>
    512c:	3230      	adds	r2, #48	@ 0x30
    512e:	d311      	bcc.n	5154 <memcpy+0xbc>
    5130:	f851 3b04 	ldr.w	r3, [r1], #4
    5134:	f840 3b04 	str.w	r3, [r0], #4
    5138:	f851 3b04 	ldr.w	r3, [r1], #4
    513c:	f840 3b04 	str.w	r3, [r0], #4
    5140:	f851 3b04 	ldr.w	r3, [r1], #4
    5144:	f840 3b04 	str.w	r3, [r0], #4
    5148:	f851 3b04 	ldr.w	r3, [r1], #4
    514c:	f840 3b04 	str.w	r3, [r0], #4
    5150:	3a10      	subs	r2, #16
    5152:	d2ed      	bcs.n	5130 <memcpy+0x98>
    5154:	320c      	adds	r2, #12
    5156:	d305      	bcc.n	5164 <memcpy+0xcc>
    5158:	f851 3b04 	ldr.w	r3, [r1], #4
    515c:	f840 3b04 	str.w	r3, [r0], #4
    5160:	3a04      	subs	r2, #4
    5162:	d2f9      	bcs.n	5158 <memcpy+0xc0>
    5164:	3204      	adds	r2, #4
    5166:	d008      	beq.n	517a <memcpy+0xe2>
    5168:	07d2      	lsls	r2, r2, #31
    516a:	bf1c      	itt	ne
    516c:	f811 3b01 	ldrbne.w	r3, [r1], #1
    5170:	f800 3b01 	strbne.w	r3, [r0], #1
    5174:	d301      	bcc.n	517a <memcpy+0xe2>
    5176:	880b      	ldrh	r3, [r1, #0]
    5178:	8003      	strh	r3, [r0, #0]
    517a:	4660      	mov	r0, ip
    517c:	4770      	bx	lr
    517e:	bf00      	nop
    5180:	2a08      	cmp	r2, #8
    5182:	d313      	bcc.n	51ac <memcpy+0x114>
    5184:	078b      	lsls	r3, r1, #30
    5186:	d08d      	beq.n	50a4 <memcpy+0xc>
    5188:	f010 0303 	ands.w	r3, r0, #3
    518c:	d08a      	beq.n	50a4 <memcpy+0xc>
    518e:	f1c3 0304 	rsb	r3, r3, #4
    5192:	1ad2      	subs	r2, r2, r3
    5194:	07db      	lsls	r3, r3, #31
    5196:	bf1c      	itt	ne
    5198:	f811 3b01 	ldrbne.w	r3, [r1], #1
    519c:	f800 3b01 	strbne.w	r3, [r0], #1
    51a0:	d380      	bcc.n	50a4 <memcpy+0xc>
    51a2:	f831 3b02 	ldrh.w	r3, [r1], #2
    51a6:	f820 3b02 	strh.w	r3, [r0], #2
    51aa:	e77b      	b.n	50a4 <memcpy+0xc>
    51ac:	3a04      	subs	r2, #4
    51ae:	d3d9      	bcc.n	5164 <memcpy+0xcc>
    51b0:	3a01      	subs	r2, #1
    51b2:	f811 3b01 	ldrb.w	r3, [r1], #1
    51b6:	f800 3b01 	strb.w	r3, [r0], #1
    51ba:	d2f9      	bcs.n	51b0 <memcpy+0x118>
    51bc:	780b      	ldrb	r3, [r1, #0]
    51be:	7003      	strb	r3, [r0, #0]
    51c0:	784b      	ldrb	r3, [r1, #1]
    51c2:	7043      	strb	r3, [r0, #1]
    51c4:	788b      	ldrb	r3, [r1, #2]
    51c6:	7083      	strb	r3, [r0, #2]
    51c8:	4660      	mov	r0, ip
    51ca:	4770      	bx	lr

000051cc <sysconf>:
    51cc:	2808      	cmp	r0, #8
    51ce:	d102      	bne.n	51d6 <sysconf+0xa>
    51d0:	f44f 5080 	mov.w	r0, #4096	@ 0x1000
    51d4:	4770      	bx	lr
    51d6:	b508      	push	{r3, lr}
    51d8:	f7fe fa92 	bl	3700 <__errno>
    51dc:	2316      	movs	r3, #22
    51de:	6003      	str	r3, [r0, #0]
    51e0:	f04f 30ff 	mov.w	r0, #4294967295	@ 0xffffffff
    51e4:	bd08      	pop	{r3, pc}
    51e6:	bf00      	nop

000051e8 <__fp_lock>:
    51e8:	2000      	movs	r0, #0
    51ea:	4770      	bx	lr

000051ec <stdio_exit_handler>:
    51ec:	4a02      	ldr	r2, [pc, #8]	@ (51f8 <stdio_exit_handler+0xc>)
    51ee:	4903      	ldr	r1, [pc, #12]	@ (51fc <stdio_exit_handler+0x10>)
    51f0:	4803      	ldr	r0, [pc, #12]	@ (5200 <stdio_exit_handler+0x14>)
    51f2:	f000 bf7b 	b.w	60ec <_fwalk_sglue>
    51f6:	bf00      	nop
    51f8:	20000538 	.word	0x20000538
    51fc:	000063b1 	.word	0x000063b1
    5200:	20000008 	.word	0x20000008

00005204 <cleanup_stdio>:
    5204:	4b0c      	ldr	r3, [pc, #48]	@ (5238 <cleanup_stdio+0x34>)
    5206:	6841      	ldr	r1, [r0, #4]
    5208:	4299      	cmp	r1, r3
    520a:	b510      	push	{r4, lr}
    520c:	4604      	mov	r4, r0
    520e:	d001      	beq.n	5214 <cleanup_stdio+0x10>
    5210:	f001 f8ce 	bl	63b0 <_fclose_r>
    5214:	68a1      	ldr	r1, [r4, #8]
    5216:	4b09      	ldr	r3, [pc, #36]	@ (523c <cleanup_stdio+0x38>)
    5218:	4299      	cmp	r1, r3
    521a:	d002      	beq.n	5222 <cleanup_stdio+0x1e>
    521c:	4620      	mov	r0, r4
    521e:	f001 f8c7 	bl	63b0 <_fclose_r>
    5222:	68e1      	ldr	r1, [r4, #12]
    5224:	4b06      	ldr	r3, [pc, #24]	@ (5240 <cleanup_stdio+0x3c>)
    5226:	4299      	cmp	r1, r3
    5228:	d004      	beq.n	5234 <cleanup_stdio+0x30>
    522a:	4620      	mov	r0, r4
    522c:	e8bd 4010 	ldmia.w	sp!, {r4, lr}
    5230:	f001 b8be 	b.w	63b0 <_fclose_r>
    5234:	bd10      	pop	{r4, pc}
    5236:	bf00      	nop
    5238:	20000740 	.word	0x20000740
    523c:	200007a8 	.word	0x200007a8
    5240:	20000810 	.word	0x20000810

00005244 <__fp_unlock>:
    5244:	2000      	movs	r0, #0
    5246:	4770      	bx	lr

00005248 <global_stdio_init.part.0>:
    5248:	e92d 43f8 	stmdb	sp!, {r3, r4, r5, r6, r7, r8, r9, lr}
    524c:	4c2a      	ldr	r4, [pc, #168]	@ (52f8 <global_stdio_init.part.0+0xb0>)
    524e:	492b      	ldr	r1, [pc, #172]	@ (52fc <global_stdio_init.part.0+0xb4>)
    5250:	f8df 90bc 	ldr.w	r9, [pc, #188]	@ 5310 <global_stdio_init.part.0+0xc8>
    5254:	f8df 80bc 	ldr.w	r8, [pc, #188]	@ 5314 <global_stdio_init.part.0+0xcc>
    5258:	4f29      	ldr	r7, [pc, #164]	@ (5300 <global_stdio_init.part.0+0xb8>)
    525a:	f8c4 1138 	str.w	r1, [r4, #312]	@ 0x138
    525e:	2500      	movs	r5, #0
    5260:	2304      	movs	r3, #4
    5262:	2208      	movs	r2, #8
    5264:	4629      	mov	r1, r5
    5266:	f104 005c 	add.w	r0, r4, #92	@ 0x5c
    526a:	4e26      	ldr	r6, [pc, #152]	@ (5304 <global_stdio_init.part.0+0xbc>)
    526c:	60e3      	str	r3, [r4, #12]
    526e:	e9c4 5500 	strd	r5, r5, [r4]
    5272:	e9c4 5504 	strd	r5, r5, [r4, #16]
    5276:	60a5      	str	r5, [r4, #8]
    5278:	6665      	str	r5, [r4, #100]	@ 0x64
    527a:	61a5      	str	r5, [r4, #24]
    527c:	f000 f962 	bl	5544 <memset>
    5280:	4b21      	ldr	r3, [pc, #132]	@ (5308 <global_stdio_init.part.0+0xc0>)
    5282:	6763      	str	r3, [r4, #116]	@ 0x74
    5284:	2208      	movs	r2, #8
    5286:	4629      	mov	r1, r5
    5288:	f104 00c4 	add.w	r0, r4, #196	@ 0xc4
    528c:	e9c4 4907 	strd	r4, r9, [r4, #28]
    5290:	e9c4 8709 	strd	r8, r7, [r4, #36]	@ 0x24
    5294:	e9c4 551a 	strd	r5, r5, [r4, #104]	@ 0x68
    5298:	e9c4 551e 	strd	r5, r5, [r4, #120]	@ 0x78
    529c:	6725      	str	r5, [r4, #112]	@ 0x70
    529e:	f8c4 50cc 	str.w	r5, [r4, #204]	@ 0xcc
    52a2:	f8c4 5080 	str.w	r5, [r4, #128]	@ 0x80
    52a6:	62e6      	str	r6, [r4, #44]	@ 0x2c
    52a8:	f000 f94c 	bl	5544 <memset>
    52ac:	4b17      	ldr	r3, [pc, #92]	@ (530c <global_stdio_init.part.0+0xc4>)
    52ae:	f8c4 30dc 	str.w	r3, [r4, #220]	@ 0xdc
    52b2:	4629      	mov	r1, r5
    52b4:	f104 0368 	add.w	r3, r4, #104	@ 0x68
    52b8:	2208      	movs	r2, #8
    52ba:	f504 7096 	add.w	r0, r4, #300	@ 0x12c
    52be:	f8c4 3084 	str.w	r3, [r4, #132]	@ 0x84
    52c2:	e9c4 9822 	strd	r9, r8, [r4, #136]	@ 0x88
    52c6:	e9c4 7624 	strd	r7, r6, [r4, #144]	@ 0x90
    52ca:	e9c4 5534 	strd	r5, r5, [r4, #208]	@ 0xd0
    52ce:	e9c4 5538 	strd	r5, r5, [r4, #224]	@ 0xe0
    52d2:	f8c4 50d8 	str.w	r5, [r4, #216]	@ 0xd8
    52d6:	f8c4 5134 	str.w	r5, [r4, #308]	@ 0x134
    52da:	f8c4 50e8 	str.w	r5, [r4, #232]	@ 0xe8
    52de:	f000 f931 	bl	5544 <memset>
    52e2:	f104 03d0 	add.w	r3, r4, #208	@ 0xd0
    52e6:	e9c4 983c 	strd	r9, r8, [r4, #240]	@ 0xf0
    52ea:	e9c4 763e 	strd	r7, r6, [r4, #248]	@ 0xf8
    52ee:	f8c4 30ec 	str.w	r3, [r4, #236]	@ 0xec
    52f2:	e8bd 83f8 	ldmia.w	sp!, {r3, r4, r5, r6, r7, r8, r9, pc}
    52f6:	bf00      	nop
    52f8:	20000740 	.word	0x20000740
    52fc:	000051ed 	.word	0x000051ed
    5300:	000064d9 	.word	0x000064d9
    5304:	000064fd 	.word	0x000064fd
    5308:	00010009 	.word	0x00010009
    530c:	00020012 	.word	0x00020012
    5310:	00006471 	.word	0x00006471
    5314:	00006499 	.word	0x00006499

00005318 <__sfp>:
    5318:	b5f8      	push	{r3, r4, r5, r6, r7, lr}
    531a:	4b25      	ldr	r3, [pc, #148]	@ (53b0 <__sfp+0x98>)
    531c:	f8d3 3138 	ldr.w	r3, [r3, #312]	@ 0x138
    5320:	4606      	mov	r6, r0
    5322:	2b00      	cmp	r3, #0
    5324:	d03c      	beq.n	53a0 <__sfp+0x88>
    5326:	4f23      	ldr	r7, [pc, #140]	@ (53b4 <__sfp+0x9c>)
    5328:	e9d7 3401 	ldrd	r3, r4, [r7, #4]
    532c:	3b01      	subs	r3, #1
    532e:	d504      	bpl.n	533a <__sfp+0x22>
    5330:	e01d      	b.n	536e <__sfp+0x56>
    5332:	1c5a      	adds	r2, r3, #1
    5334:	f104 0468 	add.w	r4, r4, #104	@ 0x68
    5338:	d019      	beq.n	536e <__sfp+0x56>
    533a:	f9b4 500c 	ldrsh.w	r5, [r4, #12]
    533e:	3b01      	subs	r3, #1
    5340:	2d00      	cmp	r5, #0
    5342:	d1f6      	bne.n	5332 <__sfp+0x1a>
    5344:	4b1c      	ldr	r3, [pc, #112]	@ (53b8 <__sfp+0xa0>)
    5346:	60e3      	str	r3, [r4, #12]
    5348:	e9c4 5501 	strd	r5, r5, [r4, #4]
    534c:	e9c4 5504 	strd	r5, r5, [r4, #16]
    5350:	6665      	str	r5, [r4, #100]	@ 0x64
    5352:	6025      	str	r5, [r4, #0]
    5354:	61a5      	str	r5, [r4, #24]
    5356:	2208      	movs	r2, #8
    5358:	4629      	mov	r1, r5
    535a:	f104 005c 	add.w	r0, r4, #92	@ 0x5c
    535e:	f000 f8f1 	bl	5544 <memset>
    5362:	e9c4 550c 	strd	r5, r5, [r4, #48]	@ 0x30
    5366:	e9c4 5511 	strd	r5, r5, [r4, #68]	@ 0x44
    536a:	4620      	mov	r0, r4
    536c:	bdf8      	pop	{r3, r4, r5, r6, r7, pc}
    536e:	683d      	ldr	r5, [r7, #0]
    5370:	b10d      	cbz	r5, 5376 <__sfp+0x5e>
    5372:	462f      	mov	r7, r5
    5374:	e7d8      	b.n	5328 <__sfp+0x10>
    5376:	f44f 71d6 	mov.w	r1, #428	@ 0x1ac
    537a:	4630      	mov	r0, r6
    537c:	f7fe f9c6 	bl	370c <_malloc_r>
    5380:	4604      	mov	r4, r0
    5382:	b180      	cbz	r0, 53a6 <__sfp+0x8e>
    5384:	2304      	movs	r3, #4
    5386:	e9c0 5300 	strd	r5, r3, [r0]
    538a:	300c      	adds	r0, #12
    538c:	4629      	mov	r1, r5
    538e:	60a0      	str	r0, [r4, #8]
    5390:	f44f 72d0 	mov.w	r2, #416	@ 0x1a0
    5394:	4625      	mov	r5, r4
    5396:	f000 f8d5 	bl	5544 <memset>
    539a:	603c      	str	r4, [r7, #0]
    539c:	462f      	mov	r7, r5
    539e:	e7c3      	b.n	5328 <__sfp+0x10>
    53a0:	f7ff ff52 	bl	5248 <global_stdio_init.part.0>
    53a4:	e7bf      	b.n	5326 <__sfp+0xe>
    53a6:	230c      	movs	r3, #12
    53a8:	6038      	str	r0, [r7, #0]
    53aa:	6033      	str	r3, [r6, #0]
    53ac:	e7dd      	b.n	536a <__sfp+0x52>
    53ae:	bf00      	nop
    53b0:	20000740 	.word	0x20000740
    53b4:	20000538 	.word	0x20000538
    53b8:	ffff0001 	.word	0xffff0001

000053bc <__sinit>:
    53bc:	6b43      	ldr	r3, [r0, #52]	@ 0x34
    53be:	b103      	cbz	r3, 53c2 <__sinit+0x6>
    53c0:	4770      	bx	lr
    53c2:	4b04      	ldr	r3, [pc, #16]	@ (53d4 <__sinit+0x18>)
    53c4:	4a04      	ldr	r2, [pc, #16]	@ (53d8 <__sinit+0x1c>)
    53c6:	f8d3 3138 	ldr.w	r3, [r3, #312]	@ 0x138
    53ca:	6342      	str	r2, [r0, #52]	@ 0x34
    53cc:	2b00      	cmp	r3, #0
    53ce:	d1f7      	bne.n	53c0 <__sinit+0x4>
    53d0:	e73a      	b.n	5248 <global_stdio_init.part.0>
    53d2:	bf00      	nop
    53d4:	20000740 	.word	0x20000740
    53d8:	00005205 	.word	0x00005205

000053dc <__sfp_lock_acquire>:
    53dc:	4770      	bx	lr
    53de:	bf00      	nop

000053e0 <__sfp_lock_release>:
    53e0:	4770      	bx	lr
    53e2:	bf00      	nop

000053e4 <__fp_lock_all>:
    53e4:	4a02      	ldr	r2, [pc, #8]	@ (53f0 <__fp_lock_all+0xc>)
    53e6:	4903      	ldr	r1, [pc, #12]	@ (53f4 <__fp_lock_all+0x10>)
    53e8:	2000      	movs	r0, #0
    53ea:	f000 be7f 	b.w	60ec <_fwalk_sglue>
    53ee:	bf00      	nop
    53f0:	20000538 	.word	0x20000538
    53f4:	000051e9 	.word	0x000051e9

000053f8 <__fp_unlock_all>:
    53f8:	4a02      	ldr	r2, [pc, #8]	@ (5404 <__fp_unlock_all+0xc>)
    53fa:	4903      	ldr	r1, [pc, #12]	@ (5408 <__fp_unlock_all+0x10>)
    53fc:	2000      	movs	r0, #0
    53fe:	f000 be75 	b.w	60ec <_fwalk_sglue>
    5402:	bf00      	nop
    5404:	20000538 	.word	0x20000538
    5408:	00005245 	.word	0x00005245

0000540c <__ssprint_r>:
    540c:	e92d 43f8 	stmdb	sp!, {r3, r4, r5, r6, r7, r8, r9, lr}
    5410:	4615      	mov	r5, r2
    5412:	6892      	ldr	r2, [r2, #8]
    5414:	682c      	ldr	r4, [r5, #0]
    5416:	b1fa      	cbz	r2, 5458 <__ssprint_r+0x4c>
    5418:	4680      	mov	r8, r0
    541a:	4689      	mov	r9, r1
    541c:	3408      	adds	r4, #8
    541e:	e001      	b.n	5424 <__ssprint_r+0x18>
    5420:	3408      	adds	r4, #8
    5422:	b1cf      	cbz	r7, 5458 <__ssprint_r+0x4c>
    5424:	686b      	ldr	r3, [r5, #4]
    5426:	1e59      	subs	r1, r3, #1
    5428:	2b00      	cmp	r3, #0
    542a:	4617      	mov	r7, r2
    542c:	6069      	str	r1, [r5, #4]
    542e:	dd13      	ble.n	5458 <__ssprint_r+0x4c>
    5430:	f854 6c04 	ldr.w	r6, [r4, #-4]
    5434:	2e00      	cmp	r6, #0
    5436:	d0f3      	beq.n	5420 <__ssprint_r+0x14>
    5438:	4633      	mov	r3, r6
    543a:	f854 2c08 	ldr.w	r2, [r4, #-8]
    543e:	4649      	mov	r1, r9
    5440:	4640      	mov	r0, r8
    5442:	f000 ff33 	bl	62ac <__ssputs_r>
    5446:	1c43      	adds	r3, r0, #1
    5448:	d007      	beq.n	545a <__ssprint_r+0x4e>
    544a:	68aa      	ldr	r2, [r5, #8]
    544c:	1b92      	subs	r2, r2, r6
    544e:	4617      	mov	r7, r2
    5450:	60aa      	str	r2, [r5, #8]
    5452:	3408      	adds	r4, #8
    5454:	2f00      	cmp	r7, #0
    5456:	d1e5      	bne.n	5424 <__ssprint_r+0x18>
    5458:	2000      	movs	r0, #0
    545a:	2300      	movs	r3, #0
    545c:	e9c5 3301 	strd	r3, r3, [r5, #4]
    5460:	e8bd 83f8 	ldmia.w	sp!, {r3, r4, r5, r6, r7, r8, r9, pc}

00005464 <_sbrk_r>:
    5464:	b538      	push	{r3, r4, r5, lr}
    5466:	4d07      	ldr	r5, [pc, #28]	@ (5484 <_sbrk_r+0x20>)
    5468:	2200      	movs	r2, #0
    546a:	4604      	mov	r4, r0
    546c:	4608      	mov	r0, r1
    546e:	602a      	str	r2, [r5, #0]
    5470:	f7fc f908 	bl	1684 <_sbrk>
    5474:	1c43      	adds	r3, r0, #1
    5476:	d000      	beq.n	547a <_sbrk_r+0x16>
    5478:	bd38      	pop	{r3, r4, r5, pc}
    547a:	682b      	ldr	r3, [r5, #0]
    547c:	2b00      	cmp	r3, #0
    547e:	d0fb      	beq.n	5478 <_sbrk_r+0x14>
    5480:	6023      	str	r3, [r4, #0]
    5482:	bd38      	pop	{r3, r4, r5, pc}
    5484:	2000087c 	.word	0x2000087c

00005488 <strcpy>:
    5488:	ea80 0201 	eor.w	r2, r0, r1
    548c:	4684      	mov	ip, r0
    548e:	f012 0f03 	tst.w	r2, #3
    5492:	d14f      	bne.n	5534 <strcpy+0xac>
    5494:	f011 0f03 	tst.w	r1, #3
    5498:	d132      	bne.n	5500 <strcpy+0x78>
    549a:	f84d 4d04 	str.w	r4, [sp, #-4]!
    549e:	f011 0f04 	tst.w	r1, #4
    54a2:	f851 3b04 	ldr.w	r3, [r1], #4
    54a6:	d00b      	beq.n	54c0 <strcpy+0x38>
    54a8:	f1a3 3201 	sub.w	r2, r3, #16843009	@ 0x1010101
    54ac:	439a      	bics	r2, r3
    54ae:	f012 3f80 	tst.w	r2, #2155905152	@ 0x80808080
    54b2:	bf04      	itt	eq
    54b4:	f84c 3b04 	streq.w	r3, [ip], #4
    54b8:	f851 3b04 	ldreq.w	r3, [r1], #4
    54bc:	d116      	bne.n	54ec <strcpy+0x64>
    54be:	bf00      	nop
    54c0:	f851 4b04 	ldr.w	r4, [r1], #4
    54c4:	f1a3 3201 	sub.w	r2, r3, #16843009	@ 0x1010101
    54c8:	439a      	bics	r2, r3
    54ca:	f012 3f80 	tst.w	r2, #2155905152	@ 0x80808080
    54ce:	f1a4 3201 	sub.w	r2, r4, #16843009	@ 0x1010101
    54d2:	d10b      	bne.n	54ec <strcpy+0x64>
    54d4:	f84c 3b04 	str.w	r3, [ip], #4
    54d8:	43a2      	bics	r2, r4
    54da:	f012 3f80 	tst.w	r2, #2155905152	@ 0x80808080
    54de:	bf04      	itt	eq
    54e0:	f851 3b04 	ldreq.w	r3, [r1], #4
    54e4:	f84c 4b04 	streq.w	r4, [ip], #4
    54e8:	d0ea      	beq.n	54c0 <strcpy+0x38>
    54ea:	4623      	mov	r3, r4
    54ec:	f80c 3b01 	strb.w	r3, [ip], #1
    54f0:	f013 0fff 	tst.w	r3, #255	@ 0xff
    54f4:	ea4f 2333 	mov.w	r3, r3, ror #8
    54f8:	d1f8      	bne.n	54ec <strcpy+0x64>
    54fa:	f85d 4b04 	ldr.w	r4, [sp], #4
    54fe:	4770      	bx	lr
    5500:	f011 0f01 	tst.w	r1, #1
    5504:	d006      	beq.n	5514 <strcpy+0x8c>
    5506:	f811 2b01 	ldrb.w	r2, [r1], #1
    550a:	f80c 2b01 	strb.w	r2, [ip], #1
    550e:	2a00      	cmp	r2, #0
    5510:	bf08      	it	eq
    5512:	4770      	bxeq	lr
    5514:	f011 0f02 	tst.w	r1, #2
    5518:	d0bf      	beq.n	549a <strcpy+0x12>
    551a:	f831 2b02 	ldrh.w	r2, [r1], #2
    551e:	f012 0fff 	tst.w	r2, #255	@ 0xff
    5522:	bf16      	itet	ne
    5524:	f82c 2b02 	strhne.w	r2, [ip], #2
    5528:	f88c 2000 	strbeq.w	r2, [ip]
    552c:	f412 4f7f 	tstne.w	r2, #65280	@ 0xff00
    5530:	d1b3      	bne.n	549a <strcpy+0x12>
    5532:	4770      	bx	lr
    5534:	f811 2b01 	ldrb.w	r2, [r1], #1
    5538:	f80c 2b01 	strb.w	r2, [ip], #1
    553c:	2a00      	cmp	r2, #0
    553e:	d1f9      	bne.n	5534 <strcpy+0xac>
    5540:	4770      	bx	lr
    5542:	bf00      	nop

00005544 <memset>:
    5544:	0783      	lsls	r3, r0, #30
    5546:	b530      	push	{r4, r5, lr}
    5548:	d047      	beq.n	55da <memset+0x96>
    554a:	1e54      	subs	r4, r2, #1
    554c:	2a00      	cmp	r2, #0
    554e:	d03e      	beq.n	55ce <memset+0x8a>
    5550:	b2ca      	uxtb	r2, r1
    5552:	4603      	mov	r3, r0
    5554:	e001      	b.n	555a <memset+0x16>
    5556:	3c01      	subs	r4, #1
    5558:	d339      	bcc.n	55ce <memset+0x8a>
    555a:	f803 2b01 	strb.w	r2, [r3], #1
    555e:	079d      	lsls	r5, r3, #30
    5560:	d1f9      	bne.n	5556 <memset+0x12>
    5562:	2c03      	cmp	r4, #3
    5564:	d92c      	bls.n	55c0 <memset+0x7c>
    5566:	b2cd      	uxtb	r5, r1
    5568:	eb05 2505 	add.w	r5, r5, r5, lsl #8
    556c:	2c0f      	cmp	r4, #15
    556e:	eb05 4505 	add.w	r5, r5, r5, lsl #16
    5572:	d935      	bls.n	55e0 <memset+0x9c>
    5574:	f1a4 0210 	sub.w	r2, r4, #16
    5578:	f022 0c0f 	bic.w	ip, r2, #15
    557c:	f103 0e10 	add.w	lr, r3, #16
    5580:	44e6      	add	lr, ip
    5582:	ea4f 1c12 	mov.w	ip, r2, lsr #4
    5586:	461a      	mov	r2, r3
    5588:	e9c2 5500 	strd	r5, r5, [r2]
    558c:	e9c2 5502 	strd	r5, r5, [r2, #8]
    5590:	3210      	adds	r2, #16
    5592:	4572      	cmp	r2, lr
    5594:	d1f8      	bne.n	5588 <memset+0x44>
    5596:	f10c 0201 	add.w	r2, ip, #1
    559a:	f014 0f0c 	tst.w	r4, #12
    559e:	eb03 1202 	add.w	r2, r3, r2, lsl #4
    55a2:	f004 0c0f 	and.w	ip, r4, #15
    55a6:	d013      	beq.n	55d0 <memset+0x8c>
    55a8:	f1ac 0304 	sub.w	r3, ip, #4
    55ac:	f023 0303 	bic.w	r3, r3, #3
    55b0:	3304      	adds	r3, #4
    55b2:	4413      	add	r3, r2
    55b4:	f842 5b04 	str.w	r5, [r2], #4
    55b8:	4293      	cmp	r3, r2
    55ba:	d1fb      	bne.n	55b4 <memset+0x70>
    55bc:	f00c 0403 	and.w	r4, ip, #3
    55c0:	b12c      	cbz	r4, 55ce <memset+0x8a>
    55c2:	b2c9      	uxtb	r1, r1
    55c4:	441c      	add	r4, r3
    55c6:	f803 1b01 	strb.w	r1, [r3], #1
    55ca:	42a3      	cmp	r3, r4
    55cc:	d1fb      	bne.n	55c6 <memset+0x82>
    55ce:	bd30      	pop	{r4, r5, pc}
    55d0:	4664      	mov	r4, ip
    55d2:	4613      	mov	r3, r2
    55d4:	2c00      	cmp	r4, #0
    55d6:	d1f4      	bne.n	55c2 <memset+0x7e>
    55d8:	e7f9      	b.n	55ce <memset+0x8a>
    55da:	4603      	mov	r3, r0
    55dc:	4614      	mov	r4, r2
    55de:	e7c0      	b.n	5562 <memset+0x1e>
    55e0:	461a      	mov	r2, r3
    55e2:	46a4      	mov	ip, r4
    55e4:	e7e0      	b.n	55a8 <memset+0x64>
    55e6:	bf00      	nop

000055e8 <__assert_func>:
    55e8:	b500      	push	{lr}
    55ea:	4c0b      	ldr	r4, [pc, #44]	@ (5618 <__assert_func+0x30>)
    55ec:	6825      	ldr	r5, [r4, #0]
    55ee:	4614      	mov	r4, r2
    55f0:	68ee      	ldr	r6, [r5, #12]
    55f2:	461a      	mov	r2, r3
    55f4:	b085      	sub	sp, #20
    55f6:	4603      	mov	r3, r0
    55f8:	460d      	mov	r5, r1
    55fa:	b14c      	cbz	r4, 5610 <__assert_func+0x28>
    55fc:	4907      	ldr	r1, [pc, #28]	@ (561c <__assert_func+0x34>)
    55fe:	9500      	str	r5, [sp, #0]
    5600:	e9cd 1401 	strd	r1, r4, [sp, #4]
    5604:	4630      	mov	r0, r6
    5606:	4906      	ldr	r1, [pc, #24]	@ (5620 <__assert_func+0x38>)
    5608:	f000 febe 	bl	6388 <fiprintf>
    560c:	f000 fe10 	bl	6230 <abort>
    5610:	4904      	ldr	r1, [pc, #16]	@ (5624 <__assert_func+0x3c>)
    5612:	460c      	mov	r4, r1
    5614:	e7f3      	b.n	55fe <__assert_func+0x16>
    5616:	bf00      	nop
    5618:	20000000 	.word	0x20000000
    561c:	00009760 	.word	0x00009760
    5620:	00009770 	.word	0x00009770
    5624:	0000976c 	.word	0x0000976c

00005628 <__assert>:
    5628:	b508      	push	{r3, lr}
    562a:	4613      	mov	r3, r2
    562c:	2200      	movs	r2, #0
    562e:	f7ff ffdb 	bl	55e8 <__assert_func>
    5632:	bf00      	nop

00005634 <_Balloc>:
    5634:	6c43      	ldr	r3, [r0, #68]	@ 0x44
    5636:	b570      	push	{r4, r5, r6, lr}
    5638:	4605      	mov	r5, r0
    563a:	460c      	mov	r4, r1
    563c:	b14b      	cbz	r3, 5652 <_Balloc+0x1e>
    563e:	f853 0024 	ldr.w	r0, [r3, r4, lsl #2]
    5642:	b180      	cbz	r0, 5666 <_Balloc+0x32>
    5644:	6802      	ldr	r2, [r0, #0]
    5646:	f843 2024 	str.w	r2, [r3, r4, lsl #2]
    564a:	2300      	movs	r3, #0
    564c:	e9c0 3303 	strd	r3, r3, [r0, #12]
    5650:	bd70      	pop	{r4, r5, r6, pc}
    5652:	2221      	movs	r2, #33	@ 0x21
    5654:	2104      	movs	r1, #4
    5656:	f000 fdf3 	bl	6240 <_calloc_r>
    565a:	4603      	mov	r3, r0
    565c:	6468      	str	r0, [r5, #68]	@ 0x44
    565e:	2800      	cmp	r0, #0
    5660:	d1ed      	bne.n	563e <_Balloc+0xa>
    5662:	2000      	movs	r0, #0
    5664:	bd70      	pop	{r4, r5, r6, pc}
    5666:	2101      	movs	r1, #1
    5668:	fa01 f604 	lsl.w	r6, r1, r4
    566c:	1d72      	adds	r2, r6, #5
    566e:	0092      	lsls	r2, r2, #2
    5670:	4628      	mov	r0, r5
    5672:	f000 fde5 	bl	6240 <_calloc_r>
    5676:	2800      	cmp	r0, #0
    5678:	d0f3      	beq.n	5662 <_Balloc+0x2e>
    567a:	e9c0 4601 	strd	r4, r6, [r0, #4]
    567e:	e7e4      	b.n	564a <_Balloc+0x16>

00005680 <_Bfree>:
    5680:	b131      	cbz	r1, 5690 <_Bfree+0x10>
    5682:	6c43      	ldr	r3, [r0, #68]	@ 0x44
    5684:	684a      	ldr	r2, [r1, #4]
    5686:	f853 0022 	ldr.w	r0, [r3, r2, lsl #2]
    568a:	6008      	str	r0, [r1, #0]
    568c:	f843 1022 	str.w	r1, [r3, r2, lsl #2]
    5690:	4770      	bx	lr
    5692:	bf00      	nop

00005694 <__multadd>:
    5694:	e92d 41f0 	stmdb	sp!, {r4, r5, r6, r7, r8, lr}
    5698:	690d      	ldr	r5, [r1, #16]
    569a:	4607      	mov	r7, r0
    569c:	460e      	mov	r6, r1
    569e:	461c      	mov	r4, r3
    56a0:	f101 0e14 	add.w	lr, r1, #20
    56a4:	2000      	movs	r0, #0
    56a6:	f8de 1000 	ldr.w	r1, [lr]
    56aa:	b28b      	uxth	r3, r1
    56ac:	fb02 4303 	mla	r3, r2, r3, r4
    56b0:	ea4f 4c13 	mov.w	ip, r3, lsr #16
    56b4:	0c09      	lsrs	r1, r1, #16
    56b6:	fb02 cc01 	mla	ip, r2, r1, ip
    56ba:	3001      	adds	r0, #1
    56bc:	b29b      	uxth	r3, r3
    56be:	eb03 430c 	add.w	r3, r3, ip, lsl #16
    56c2:	4285      	cmp	r5, r0
    56c4:	f84e 3b04 	str.w	r3, [lr], #4
    56c8:	ea4f 441c 	mov.w	r4, ip, lsr #16
    56cc:	dceb      	bgt.n	56a6 <__multadd+0x12>
    56ce:	b13c      	cbz	r4, 56e0 <__multadd+0x4c>
    56d0:	68b3      	ldr	r3, [r6, #8]
    56d2:	42ab      	cmp	r3, r5
    56d4:	dd07      	ble.n	56e6 <__multadd+0x52>
    56d6:	eb06 0385 	add.w	r3, r6, r5, lsl #2
    56da:	3501      	adds	r5, #1
    56dc:	615c      	str	r4, [r3, #20]
    56de:	6135      	str	r5, [r6, #16]
    56e0:	4630      	mov	r0, r6
    56e2:	e8bd 81f0 	ldmia.w	sp!, {r4, r5, r6, r7, r8, pc}
    56e6:	6871      	ldr	r1, [r6, #4]
    56e8:	4638      	mov	r0, r7
    56ea:	3101      	adds	r1, #1
    56ec:	f7ff ffa2 	bl	5634 <_Balloc>
    56f0:	4680      	mov	r8, r0
    56f2:	b1a8      	cbz	r0, 5720 <__multadd+0x8c>
    56f4:	6932      	ldr	r2, [r6, #16]
    56f6:	3202      	adds	r2, #2
    56f8:	f106 010c 	add.w	r1, r6, #12
    56fc:	0092      	lsls	r2, r2, #2
    56fe:	300c      	adds	r0, #12
    5700:	f7ff fcca 	bl	5098 <memcpy>
    5704:	6c7b      	ldr	r3, [r7, #68]	@ 0x44
    5706:	6872      	ldr	r2, [r6, #4]
    5708:	f853 1022 	ldr.w	r1, [r3, r2, lsl #2]
    570c:	6031      	str	r1, [r6, #0]
    570e:	f843 6022 	str.w	r6, [r3, r2, lsl #2]
    5712:	4646      	mov	r6, r8
    5714:	eb06 0385 	add.w	r3, r6, r5, lsl #2
    5718:	3501      	adds	r5, #1
    571a:	615c      	str	r4, [r3, #20]
    571c:	6135      	str	r5, [r6, #16]
    571e:	e7df      	b.n	56e0 <__multadd+0x4c>
    5720:	4b02      	ldr	r3, [pc, #8]	@ (572c <__multadd+0x98>)
    5722:	4803      	ldr	r0, [pc, #12]	@ (5730 <__multadd+0x9c>)
    5724:	4642      	mov	r2, r8
    5726:	21ba      	movs	r1, #186	@ 0xba
    5728:	f7ff ff5e 	bl	55e8 <__assert_func>
    572c:	00009720 	.word	0x00009720
    5730:	000097a0 	.word	0x000097a0

00005734 <__s2b>:
    5734:	e92d 43f8 	stmdb	sp!, {r3, r4, r5, r6, r7, r8, r9, lr}
    5738:	4617      	mov	r7, r2
    573a:	4a28      	ldr	r2, [pc, #160]	@ (57dc <__s2b+0xa8>)
    573c:	461e      	mov	r6, r3
    573e:	3308      	adds	r3, #8
    5740:	460c      	mov	r4, r1
    5742:	2e09      	cmp	r6, #9
    5744:	fb82 1203 	smull	r1, r2, r2, r3
    5748:	ea4f 73e3 	mov.w	r3, r3, asr #31
    574c:	4605      	mov	r5, r0
    574e:	ebc3 0362 	rsb	r3, r3, r2, asr #1
    5752:	dd3a      	ble.n	57ca <__s2b+0x96>
    5754:	f04f 0c01 	mov.w	ip, #1
    5758:	2100      	movs	r1, #0
    575a:	ea4f 0c4c 	mov.w	ip, ip, lsl #1
    575e:	4563      	cmp	r3, ip
    5760:	f101 0101 	add.w	r1, r1, #1
    5764:	dcf9      	bgt.n	575a <__s2b+0x26>
    5766:	4628      	mov	r0, r5
    5768:	f7ff ff64 	bl	5634 <_Balloc>
    576c:	4601      	mov	r1, r0
    576e:	b370      	cbz	r0, 57ce <__s2b+0x9a>
    5770:	9b08      	ldr	r3, [sp, #32]
    5772:	6143      	str	r3, [r0, #20]
    5774:	2f09      	cmp	r7, #9
    5776:	f04f 0301 	mov.w	r3, #1
    577a:	6103      	str	r3, [r0, #16]
    577c:	dc12      	bgt.n	57a4 <__s2b+0x70>
    577e:	340a      	adds	r4, #10
    5780:	2709      	movs	r7, #9
    5782:	42be      	cmp	r6, r7
    5784:	dd0b      	ble.n	579e <__s2b+0x6a>
    5786:	1bf6      	subs	r6, r6, r7
    5788:	4426      	add	r6, r4
    578a:	f814 3b01 	ldrb.w	r3, [r4], #1
    578e:	220a      	movs	r2, #10
    5790:	3b30      	subs	r3, #48	@ 0x30
    5792:	4628      	mov	r0, r5
    5794:	f7ff ff7e 	bl	5694 <__multadd>
    5798:	42b4      	cmp	r4, r6
    579a:	4601      	mov	r1, r0
    579c:	d1f5      	bne.n	578a <__s2b+0x56>
    579e:	4608      	mov	r0, r1
    57a0:	e8bd 83f8 	ldmia.w	sp!, {r3, r4, r5, r6, r7, r8, r9, pc}
    57a4:	f104 0809 	add.w	r8, r4, #9
    57a8:	eb04 0907 	add.w	r9, r4, r7
    57ac:	4644      	mov	r4, r8
    57ae:	f814 3b01 	ldrb.w	r3, [r4], #1
    57b2:	220a      	movs	r2, #10
    57b4:	3b30      	subs	r3, #48	@ 0x30
    57b6:	4628      	mov	r0, r5
    57b8:	f7ff ff6c 	bl	5694 <__multadd>
    57bc:	454c      	cmp	r4, r9
    57be:	4601      	mov	r1, r0
    57c0:	d1f5      	bne.n	57ae <__s2b+0x7a>
    57c2:	f1a7 0408 	sub.w	r4, r7, #8
    57c6:	4444      	add	r4, r8
    57c8:	e7db      	b.n	5782 <__s2b+0x4e>
    57ca:	2100      	movs	r1, #0
    57cc:	e7cb      	b.n	5766 <__s2b+0x32>
    57ce:	460a      	mov	r2, r1
    57d0:	4b03      	ldr	r3, [pc, #12]	@ (57e0 <__s2b+0xac>)
    57d2:	4804      	ldr	r0, [pc, #16]	@ (57e4 <__s2b+0xb0>)
    57d4:	21d3      	movs	r1, #211	@ 0xd3
    57d6:	f7ff ff07 	bl	55e8 <__assert_func>
    57da:	bf00      	nop
    57dc:	38e38e39 	.word	0x38e38e39
    57e0:	00009720 	.word	0x00009720
    57e4:	000097a0 	.word	0x000097a0

000057e8 <__hi0bits>:
    57e8:	f5b0 3f80 	cmp.w	r0, #65536	@ 0x10000
    57ec:	4603      	mov	r3, r0
    57ee:	bf36      	itet	cc
    57f0:	0403      	lslcc	r3, r0, #16
    57f2:	2000      	movcs	r0, #0
    57f4:	2010      	movcc	r0, #16
    57f6:	f1b3 7f80 	cmp.w	r3, #16777216	@ 0x1000000
    57fa:	bf3c      	itt	cc
    57fc:	021b      	lslcc	r3, r3, #8
    57fe:	3008      	addcc	r0, #8
    5800:	f1b3 5f80 	cmp.w	r3, #268435456	@ 0x10000000
    5804:	bf3c      	itt	cc
    5806:	011b      	lslcc	r3, r3, #4
    5808:	3004      	addcc	r0, #4
    580a:	f1b3 4f80 	cmp.w	r3, #1073741824	@ 0x40000000
    580e:	d303      	bcc.n	5818 <__hi0bits+0x30>
    5810:	2b00      	cmp	r3, #0
    5812:	db06      	blt.n	5822 <__hi0bits+0x3a>
    5814:	3001      	adds	r0, #1
    5816:	4770      	bx	lr
    5818:	009b      	lsls	r3, r3, #2
    581a:	d403      	bmi.n	5824 <__hi0bits+0x3c>
    581c:	005b      	lsls	r3, r3, #1
    581e:	d403      	bmi.n	5828 <__hi0bits+0x40>
    5820:	2020      	movs	r0, #32
    5822:	4770      	bx	lr
    5824:	3002      	adds	r0, #2
    5826:	4770      	bx	lr
    5828:	3003      	adds	r0, #3
    582a:	4770      	bx	lr

0000582c <__lo0bits>:
    582c:	6803      	ldr	r3, [r0, #0]
    582e:	f013 0207 	ands.w	r2, r3, #7
    5832:	4601      	mov	r1, r0
    5834:	d007      	beq.n	5846 <__lo0bits+0x1a>
    5836:	07da      	lsls	r2, r3, #31
    5838:	d41f      	bmi.n	587a <__lo0bits+0x4e>
    583a:	0798      	lsls	r0, r3, #30
    583c:	d521      	bpl.n	5882 <__lo0bits+0x56>
    583e:	085b      	lsrs	r3, r3, #1
    5840:	600b      	str	r3, [r1, #0]
    5842:	2001      	movs	r0, #1
    5844:	4770      	bx	lr
    5846:	b298      	uxth	r0, r3
    5848:	b1a0      	cbz	r0, 5874 <__lo0bits+0x48>
    584a:	4610      	mov	r0, r2
    584c:	b2da      	uxtb	r2, r3
    584e:	b90a      	cbnz	r2, 5854 <__lo0bits+0x28>
    5850:	3008      	adds	r0, #8
    5852:	0a1b      	lsrs	r3, r3, #8
    5854:	071a      	lsls	r2, r3, #28
    5856:	bf04      	itt	eq
    5858:	091b      	lsreq	r3, r3, #4
    585a:	3004      	addeq	r0, #4
    585c:	079a      	lsls	r2, r3, #30
    585e:	bf04      	itt	eq
    5860:	089b      	lsreq	r3, r3, #2
    5862:	3002      	addeq	r0, #2
    5864:	07da      	lsls	r2, r3, #31
    5866:	d403      	bmi.n	5870 <__lo0bits+0x44>
    5868:	085b      	lsrs	r3, r3, #1
    586a:	f100 0001 	add.w	r0, r0, #1
    586e:	d006      	beq.n	587e <__lo0bits+0x52>
    5870:	600b      	str	r3, [r1, #0]
    5872:	4770      	bx	lr
    5874:	0c1b      	lsrs	r3, r3, #16
    5876:	2010      	movs	r0, #16
    5878:	e7e8      	b.n	584c <__lo0bits+0x20>
    587a:	2000      	movs	r0, #0
    587c:	4770      	bx	lr
    587e:	2020      	movs	r0, #32
    5880:	4770      	bx	lr
    5882:	089b      	lsrs	r3, r3, #2
    5884:	600b      	str	r3, [r1, #0]
    5886:	2002      	movs	r0, #2
    5888:	4770      	bx	lr
    588a:	bf00      	nop

0000588c <__i2b>:
    588c:	b538      	push	{r3, r4, r5, lr}
    588e:	6c43      	ldr	r3, [r0, #68]	@ 0x44
    5890:	4604      	mov	r4, r0
    5892:	460d      	mov	r5, r1
    5894:	b14b      	cbz	r3, 58aa <__i2b+0x1e>
    5896:	6858      	ldr	r0, [r3, #4]
    5898:	b1b0      	cbz	r0, 58c8 <__i2b+0x3c>
    589a:	6802      	ldr	r2, [r0, #0]
    589c:	605a      	str	r2, [r3, #4]
    589e:	2200      	movs	r2, #0
    58a0:	2301      	movs	r3, #1
    58a2:	e9c0 2303 	strd	r2, r3, [r0, #12]
    58a6:	6145      	str	r5, [r0, #20]
    58a8:	bd38      	pop	{r3, r4, r5, pc}
    58aa:	2221      	movs	r2, #33	@ 0x21
    58ac:	2104      	movs	r1, #4
    58ae:	f000 fcc7 	bl	6240 <_calloc_r>
    58b2:	4603      	mov	r3, r0
    58b4:	6460      	str	r0, [r4, #68]	@ 0x44
    58b6:	2800      	cmp	r0, #0
    58b8:	d1ed      	bne.n	5896 <__i2b+0xa>
    58ba:	4b09      	ldr	r3, [pc, #36]	@ (58e0 <__i2b+0x54>)
    58bc:	4809      	ldr	r0, [pc, #36]	@ (58e4 <__i2b+0x58>)
    58be:	2200      	movs	r2, #0
    58c0:	f240 1145 	movw	r1, #325	@ 0x145
    58c4:	f7ff fe90 	bl	55e8 <__assert_func>
    58c8:	221c      	movs	r2, #28
    58ca:	2101      	movs	r1, #1
    58cc:	4620      	mov	r0, r4
    58ce:	f000 fcb7 	bl	6240 <_calloc_r>
    58d2:	2800      	cmp	r0, #0
    58d4:	d0f1      	beq.n	58ba <__i2b+0x2e>
    58d6:	2201      	movs	r2, #1
    58d8:	2302      	movs	r3, #2
    58da:	e9c0 2301 	strd	r2, r3, [r0, #4]
    58de:	e7de      	b.n	589e <__i2b+0x12>
    58e0:	00009720 	.word	0x00009720
    58e4:	000097a0 	.word	0x000097a0

000058e8 <__multiply>:
    58e8:	e92d 4ff0 	stmdb	sp!, {r4, r5, r6, r7, r8, r9, sl, fp, lr}
    58ec:	f8d1 8010 	ldr.w	r8, [r1, #16]
    58f0:	6915      	ldr	r5, [r2, #16]
    58f2:	45a8      	cmp	r8, r5
    58f4:	b085      	sub	sp, #20
    58f6:	460e      	mov	r6, r1
    58f8:	4692      	mov	sl, r2
    58fa:	db05      	blt.n	5908 <__multiply+0x20>
    58fc:	462a      	mov	r2, r5
    58fe:	4653      	mov	r3, sl
    5900:	4645      	mov	r5, r8
    5902:	468a      	mov	sl, r1
    5904:	4690      	mov	r8, r2
    5906:	461e      	mov	r6, r3
    5908:	f8da 3008 	ldr.w	r3, [sl, #8]
    590c:	f8da 1004 	ldr.w	r1, [sl, #4]
    5910:	eb05 0408 	add.w	r4, r5, r8
    5914:	42a3      	cmp	r3, r4
    5916:	bfb8      	it	lt
    5918:	3101      	addlt	r1, #1
    591a:	f7ff fe8b 	bl	5634 <_Balloc>
    591e:	4684      	mov	ip, r0
    5920:	2800      	cmp	r0, #0
    5922:	f000 808b 	beq.w	5a3c <__multiply+0x154>
    5926:	f100 0714 	add.w	r7, r0, #20
    592a:	eb07 0e84 	add.w	lr, r7, r4, lsl #2
    592e:	4577      	cmp	r7, lr
    5930:	d205      	bcs.n	593e <__multiply+0x56>
    5932:	463b      	mov	r3, r7
    5934:	2200      	movs	r2, #0
    5936:	f843 2b04 	str.w	r2, [r3], #4
    593a:	459e      	cmp	lr, r3
    593c:	d8fb      	bhi.n	5936 <__multiply+0x4e>
    593e:	3614      	adds	r6, #20
    5940:	eb06 0888 	add.w	r8, r6, r8, lsl #2
    5944:	f10a 0914 	add.w	r9, sl, #20
    5948:	4546      	cmp	r6, r8
    594a:	eb09 0585 	add.w	r5, r9, r5, lsl #2
    594e:	d266      	bcs.n	5a1e <__multiply+0x136>
    5950:	eba5 030a 	sub.w	r3, r5, sl
    5954:	3b15      	subs	r3, #21
    5956:	f023 0303 	bic.w	r3, r3, #3
    595a:	f10a 0a15 	add.w	sl, sl, #21
    595e:	3304      	adds	r3, #4
    5960:	4555      	cmp	r5, sl
    5962:	bf2c      	ite	cs
    5964:	469b      	movcs	fp, r3
    5966:	f04f 0b04 	movcc.w	fp, #4
    596a:	f8cd e008 	str.w	lr, [sp, #8]
    596e:	9403      	str	r4, [sp, #12]
    5970:	46ae      	mov	lr, r5
    5972:	46e2      	mov	sl, ip
    5974:	e005      	b.n	5982 <__multiply+0x9a>
    5976:	0c09      	lsrs	r1, r1, #16
    5978:	d12a      	bne.n	59d0 <__multiply+0xe8>
    597a:	45b0      	cmp	r8, r6
    597c:	f107 0704 	add.w	r7, r7, #4
    5980:	d94a      	bls.n	5a18 <__multiply+0x130>
    5982:	f856 1b04 	ldr.w	r1, [r6], #4
    5986:	b28d      	uxth	r5, r1
    5988:	2d00      	cmp	r5, #0
    598a:	d0f4      	beq.n	5976 <__multiply+0x8e>
    598c:	46cc      	mov	ip, r9
    598e:	463c      	mov	r4, r7
    5990:	2300      	movs	r3, #0
    5992:	9601      	str	r6, [sp, #4]
    5994:	f85c 0b04 	ldr.w	r0, [ip], #4
    5998:	6821      	ldr	r1, [r4, #0]
    599a:	b286      	uxth	r6, r0
    599c:	b28a      	uxth	r2, r1
    599e:	0c00      	lsrs	r0, r0, #16
    59a0:	fb05 2206 	mla	r2, r5, r6, r2
    59a4:	0c09      	lsrs	r1, r1, #16
    59a6:	441a      	add	r2, r3
    59a8:	fb05 1100 	mla	r1, r5, r0, r1
    59ac:	eb01 4112 	add.w	r1, r1, r2, lsr #16
    59b0:	b292      	uxth	r2, r2
    59b2:	ea42 4201 	orr.w	r2, r2, r1, lsl #16
    59b6:	45e6      	cmp	lr, ip
    59b8:	f844 2b04 	str.w	r2, [r4], #4
    59bc:	ea4f 4311 	mov.w	r3, r1, lsr #16
    59c0:	d8e8      	bhi.n	5994 <__multiply+0xac>
    59c2:	9e01      	ldr	r6, [sp, #4]
    59c4:	f847 300b 	str.w	r3, [r7, fp]
    59c8:	f856 1c04 	ldr.w	r1, [r6, #-4]
    59cc:	0c09      	lsrs	r1, r1, #16
    59ce:	d0d4      	beq.n	597a <__multiply+0x92>
    59d0:	683b      	ldr	r3, [r7, #0]
    59d2:	2200      	movs	r2, #0
    59d4:	4648      	mov	r0, r9
    59d6:	461d      	mov	r5, r3
    59d8:	463c      	mov	r4, r7
    59da:	4694      	mov	ip, r2
    59dc:	8802      	ldrh	r2, [r0, #0]
    59de:	fb01 c202 	mla	r2, r1, r2, ip
    59e2:	eb02 4215 	add.w	r2, r2, r5, lsr #16
    59e6:	b29b      	uxth	r3, r3
    59e8:	ea43 4302 	orr.w	r3, r3, r2, lsl #16
    59ec:	f844 3b04 	str.w	r3, [r4], #4
    59f0:	f850 3b04 	ldr.w	r3, [r0], #4
    59f4:	6825      	ldr	r5, [r4, #0]
    59f6:	ea4f 4c13 	mov.w	ip, r3, lsr #16
    59fa:	b2ab      	uxth	r3, r5
    59fc:	fb01 330c 	mla	r3, r1, ip, r3
    5a00:	eb03 4312 	add.w	r3, r3, r2, lsr #16
    5a04:	4570      	cmp	r0, lr
    5a06:	ea4f 4c13 	mov.w	ip, r3, lsr #16
    5a0a:	d3e7      	bcc.n	59dc <__multiply+0xf4>
    5a0c:	45b0      	cmp	r8, r6
    5a0e:	f847 300b 	str.w	r3, [r7, fp]
    5a12:	f107 0704 	add.w	r7, r7, #4
    5a16:	d8b4      	bhi.n	5982 <__multiply+0x9a>
    5a18:	e9dd e402 	ldrd	lr, r4, [sp, #8]
    5a1c:	46d4      	mov	ip, sl
    5a1e:	2c00      	cmp	r4, #0
    5a20:	dc02      	bgt.n	5a28 <__multiply+0x140>
    5a22:	e005      	b.n	5a30 <__multiply+0x148>
    5a24:	3c01      	subs	r4, #1
    5a26:	d003      	beq.n	5a30 <__multiply+0x148>
    5a28:	f85e 3d04 	ldr.w	r3, [lr, #-4]!
    5a2c:	2b00      	cmp	r3, #0
    5a2e:	d0f9      	beq.n	5a24 <__multiply+0x13c>
    5a30:	4660      	mov	r0, ip
    5a32:	f8cc 4010 	str.w	r4, [ip, #16]
    5a36:	b005      	add	sp, #20
    5a38:	e8bd 8ff0 	ldmia.w	sp!, {r4, r5, r6, r7, r8, r9, sl, fp, pc}
    5a3c:	4b03      	ldr	r3, [pc, #12]	@ (5a4c <__multiply+0x164>)
    5a3e:	4804      	ldr	r0, [pc, #16]	@ (5a50 <__multiply+0x168>)
    5a40:	4662      	mov	r2, ip
    5a42:	f44f 71b1 	mov.w	r1, #354	@ 0x162
    5a46:	f7ff fdcf 	bl	55e8 <__assert_func>
    5a4a:	bf00      	nop
    5a4c:	00009720 	.word	0x00009720
    5a50:	000097a0 	.word	0x000097a0

00005a54 <__pow5mult>:
    5a54:	f012 0303 	ands.w	r3, r2, #3
    5a58:	e92d 41f0 	stmdb	sp!, {r4, r5, r6, r7, r8, lr}
    5a5c:	4614      	mov	r4, r2
    5a5e:	4607      	mov	r7, r0
    5a60:	d12c      	bne.n	5abc <__pow5mult+0x68>
    5a62:	460d      	mov	r5, r1
    5a64:	10a4      	asrs	r4, r4, #2
    5a66:	d01c      	beq.n	5aa2 <__pow5mult+0x4e>
    5a68:	6c3e      	ldr	r6, [r7, #64]	@ 0x40
    5a6a:	b386      	cbz	r6, 5ace <__pow5mult+0x7a>
    5a6c:	07e3      	lsls	r3, r4, #31
    5a6e:	f04f 0800 	mov.w	r8, #0
    5a72:	d406      	bmi.n	5a82 <__pow5mult+0x2e>
    5a74:	1064      	asrs	r4, r4, #1
    5a76:	d014      	beq.n	5aa2 <__pow5mult+0x4e>
    5a78:	6830      	ldr	r0, [r6, #0]
    5a7a:	b1a8      	cbz	r0, 5aa8 <__pow5mult+0x54>
    5a7c:	4606      	mov	r6, r0
    5a7e:	07e3      	lsls	r3, r4, #31
    5a80:	d5f8      	bpl.n	5a74 <__pow5mult+0x20>
    5a82:	4632      	mov	r2, r6
    5a84:	4629      	mov	r1, r5
    5a86:	4638      	mov	r0, r7
    5a88:	f7ff ff2e 	bl	58e8 <__multiply>
    5a8c:	b135      	cbz	r5, 5a9c <__pow5mult+0x48>
    5a8e:	6c7b      	ldr	r3, [r7, #68]	@ 0x44
    5a90:	6869      	ldr	r1, [r5, #4]
    5a92:	f853 2021 	ldr.w	r2, [r3, r1, lsl #2]
    5a96:	602a      	str	r2, [r5, #0]
    5a98:	f843 5021 	str.w	r5, [r3, r1, lsl #2]
    5a9c:	1064      	asrs	r4, r4, #1
    5a9e:	4605      	mov	r5, r0
    5aa0:	d1ea      	bne.n	5a78 <__pow5mult+0x24>
    5aa2:	4628      	mov	r0, r5
    5aa4:	e8bd 81f0 	ldmia.w	sp!, {r4, r5, r6, r7, r8, pc}
    5aa8:	4632      	mov	r2, r6
    5aaa:	4631      	mov	r1, r6
    5aac:	4638      	mov	r0, r7
    5aae:	f7ff ff1b 	bl	58e8 <__multiply>
    5ab2:	6030      	str	r0, [r6, #0]
    5ab4:	f8c0 8000 	str.w	r8, [r0]
    5ab8:	4606      	mov	r6, r0
    5aba:	e7e0      	b.n	5a7e <__pow5mult+0x2a>
    5abc:	3b01      	subs	r3, #1
    5abe:	4a0f      	ldr	r2, [pc, #60]	@ (5afc <__pow5mult+0xa8>)
    5ac0:	f852 2023 	ldr.w	r2, [r2, r3, lsl #2]
    5ac4:	2300      	movs	r3, #0
    5ac6:	f7ff fde5 	bl	5694 <__multadd>
    5aca:	4605      	mov	r5, r0
    5acc:	e7ca      	b.n	5a64 <__pow5mult+0x10>
    5ace:	2101      	movs	r1, #1
    5ad0:	4638      	mov	r0, r7
    5ad2:	f7ff fdaf 	bl	5634 <_Balloc>
    5ad6:	4606      	mov	r6, r0
    5ad8:	b140      	cbz	r0, 5aec <__pow5mult+0x98>
    5ada:	2301      	movs	r3, #1
    5adc:	f240 2271 	movw	r2, #625	@ 0x271
    5ae0:	e9c0 3204 	strd	r3, r2, [r0, #16]
    5ae4:	2300      	movs	r3, #0
    5ae6:	6438      	str	r0, [r7, #64]	@ 0x40
    5ae8:	6003      	str	r3, [r0, #0]
    5aea:	e7bf      	b.n	5a6c <__pow5mult+0x18>
    5aec:	4b04      	ldr	r3, [pc, #16]	@ (5b00 <__pow5mult+0xac>)
    5aee:	4805      	ldr	r0, [pc, #20]	@ (5b04 <__pow5mult+0xb0>)
    5af0:	4632      	mov	r2, r6
    5af2:	f240 1145 	movw	r1, #325	@ 0x145
    5af6:	f7ff fd77 	bl	55e8 <__assert_func>
    5afa:	bf00      	nop
    5afc:	00009908 	.word	0x00009908
    5b00:	00009720 	.word	0x00009720
    5b04:	000097a0 	.word	0x000097a0

00005b08 <__lshift>:
    5b08:	e92d 47f0 	stmdb	sp!, {r4, r5, r6, r7, r8, r9, sl, lr}
    5b0c:	460c      	mov	r4, r1
    5b0e:	4690      	mov	r8, r2
    5b10:	6927      	ldr	r7, [r4, #16]
    5b12:	68a3      	ldr	r3, [r4, #8]
    5b14:	6849      	ldr	r1, [r1, #4]
    5b16:	eb07 1762 	add.w	r7, r7, r2, asr #5
    5b1a:	1c7d      	adds	r5, r7, #1
    5b1c:	429d      	cmp	r5, r3
    5b1e:	4606      	mov	r6, r0
    5b20:	ea4f 1962 	mov.w	r9, r2, asr #5
    5b24:	dd04      	ble.n	5b30 <__lshift+0x28>
    5b26:	005b      	lsls	r3, r3, #1
    5b28:	429d      	cmp	r5, r3
    5b2a:	f101 0101 	add.w	r1, r1, #1
    5b2e:	dcfa      	bgt.n	5b26 <__lshift+0x1e>
    5b30:	4630      	mov	r0, r6
    5b32:	f7ff fd7f 	bl	5634 <_Balloc>
    5b36:	4684      	mov	ip, r0
    5b38:	2800      	cmp	r0, #0
    5b3a:	d051      	beq.n	5be0 <__lshift+0xd8>
    5b3c:	f1b9 0f00 	cmp.w	r9, #0
    5b40:	f100 0014 	add.w	r0, r0, #20
    5b44:	dd0e      	ble.n	5b64 <__lshift+0x5c>
    5b46:	f109 0205 	add.w	r2, r9, #5
    5b4a:	ea4f 0e82 	mov.w	lr, r2, lsl #2
    5b4e:	4603      	mov	r3, r0
    5b50:	eb0c 0282 	add.w	r2, ip, r2, lsl #2
    5b54:	2100      	movs	r1, #0
    5b56:	f843 1b04 	str.w	r1, [r3], #4
    5b5a:	4293      	cmp	r3, r2
    5b5c:	d1fb      	bne.n	5b56 <__lshift+0x4e>
    5b5e:	f1ae 0314 	sub.w	r3, lr, #20
    5b62:	4418      	add	r0, r3
    5b64:	6921      	ldr	r1, [r4, #16]
    5b66:	f104 0314 	add.w	r3, r4, #20
    5b6a:	f018 081f 	ands.w	r8, r8, #31
    5b6e:	eb03 0181 	add.w	r1, r3, r1, lsl #2
    5b72:	d02d      	beq.n	5bd0 <__lshift+0xc8>
    5b74:	f1c8 0920 	rsb	r9, r8, #32
    5b78:	4686      	mov	lr, r0
    5b7a:	f04f 0a00 	mov.w	sl, #0
    5b7e:	681a      	ldr	r2, [r3, #0]
    5b80:	fa02 f208 	lsl.w	r2, r2, r8
    5b84:	ea42 020a 	orr.w	r2, r2, sl
    5b88:	f84e 2b04 	str.w	r2, [lr], #4
    5b8c:	f853 2b04 	ldr.w	r2, [r3], #4
    5b90:	4299      	cmp	r1, r3
    5b92:	fa22 fa09 	lsr.w	sl, r2, r9
    5b96:	d8f2      	bhi.n	5b7e <__lshift+0x76>
    5b98:	1b0b      	subs	r3, r1, r4
    5b9a:	3b15      	subs	r3, #21
    5b9c:	f023 0303 	bic.w	r3, r3, #3
    5ba0:	3304      	adds	r3, #4
    5ba2:	f104 0215 	add.w	r2, r4, #21
    5ba6:	4291      	cmp	r1, r2
    5ba8:	bf38      	it	cc
    5baa:	2304      	movcc	r3, #4
    5bac:	f840 a003 	str.w	sl, [r0, r3]
    5bb0:	f1ba 0f00 	cmp.w	sl, #0
    5bb4:	d100      	bne.n	5bb8 <__lshift+0xb0>
    5bb6:	463d      	mov	r5, r7
    5bb8:	6c73      	ldr	r3, [r6, #68]	@ 0x44
    5bba:	6862      	ldr	r2, [r4, #4]
    5bbc:	f8cc 5010 	str.w	r5, [ip, #16]
    5bc0:	f853 1022 	ldr.w	r1, [r3, r2, lsl #2]
    5bc4:	6021      	str	r1, [r4, #0]
    5bc6:	4660      	mov	r0, ip
    5bc8:	f843 4022 	str.w	r4, [r3, r2, lsl #2]
    5bcc:	e8bd 87f0 	ldmia.w	sp!, {r4, r5, r6, r7, r8, r9, sl, pc}
    5bd0:	3804      	subs	r0, #4
    5bd2:	f853 2b04 	ldr.w	r2, [r3], #4
    5bd6:	f840 2f04 	str.w	r2, [r0, #4]!
    5bda:	4299      	cmp	r1, r3
    5bdc:	d8f9      	bhi.n	5bd2 <__lshift+0xca>
    5bde:	e7ea      	b.n	5bb6 <__lshift+0xae>
    5be0:	4b03      	ldr	r3, [pc, #12]	@ (5bf0 <__lshift+0xe8>)
    5be2:	4804      	ldr	r0, [pc, #16]	@ (5bf4 <__lshift+0xec>)
    5be4:	4662      	mov	r2, ip
    5be6:	f44f 71ef 	mov.w	r1, #478	@ 0x1de
    5bea:	f7ff fcfd 	bl	55e8 <__assert_func>
    5bee:	bf00      	nop
    5bf0:	00009720 	.word	0x00009720
    5bf4:	000097a0 	.word	0x000097a0

00005bf8 <__mcmp>:
    5bf8:	690b      	ldr	r3, [r1, #16]
    5bfa:	4684      	mov	ip, r0
    5bfc:	6900      	ldr	r0, [r0, #16]
    5bfe:	1ac0      	subs	r0, r0, r3
    5c00:	d116      	bne.n	5c30 <__mcmp+0x38>
    5c02:	f10c 0c14 	add.w	ip, ip, #20
    5c06:	3114      	adds	r1, #20
    5c08:	eb0c 0283 	add.w	r2, ip, r3, lsl #2
    5c0c:	b410      	push	{r4}
    5c0e:	eb01 0383 	add.w	r3, r1, r3, lsl #2
    5c12:	e001      	b.n	5c18 <__mcmp+0x20>
    5c14:	4594      	cmp	ip, r2
    5c16:	d208      	bcs.n	5c2a <__mcmp+0x32>
    5c18:	f852 4d04 	ldr.w	r4, [r2, #-4]!
    5c1c:	f853 1d04 	ldr.w	r1, [r3, #-4]!
    5c20:	428c      	cmp	r4, r1
    5c22:	d0f7      	beq.n	5c14 <__mcmp+0x1c>
    5c24:	d205      	bcs.n	5c32 <__mcmp+0x3a>
    5c26:	f04f 30ff 	mov.w	r0, #4294967295	@ 0xffffffff
    5c2a:	f85d 4b04 	ldr.w	r4, [sp], #4
    5c2e:	4770      	bx	lr
    5c30:	4770      	bx	lr
    5c32:	2001      	movs	r0, #1
    5c34:	f85d 4b04 	ldr.w	r4, [sp], #4
    5c38:	4770      	bx	lr
    5c3a:	bf00      	nop

00005c3c <__mdiff>:
    5c3c:	e92d 4ff0 	stmdb	sp!, {r4, r5, r6, r7, r8, r9, sl, fp, lr}
    5c40:	4615      	mov	r5, r2
    5c42:	690a      	ldr	r2, [r1, #16]
    5c44:	692b      	ldr	r3, [r5, #16]
    5c46:	1ad2      	subs	r2, r2, r3
    5c48:	2a00      	cmp	r2, #0
    5c4a:	b083      	sub	sp, #12
    5c4c:	4688      	mov	r8, r1
    5c4e:	f040 8087 	bne.w	5d60 <__mdiff+0x124>
    5c52:	f101 0614 	add.w	r6, r1, #20
    5c56:	f105 0114 	add.w	r1, r5, #20
    5c5a:	eb01 0183 	add.w	r1, r1, r3, lsl #2
    5c5e:	eb06 0383 	add.w	r3, r6, r3, lsl #2
    5c62:	e001      	b.n	5c68 <__mdiff+0x2c>
    5c64:	429e      	cmp	r6, r3
    5c66:	d27e      	bcs.n	5d66 <__mdiff+0x12a>
    5c68:	f853 4d04 	ldr.w	r4, [r3, #-4]!
    5c6c:	f851 2d04 	ldr.w	r2, [r1, #-4]!
    5c70:	4294      	cmp	r4, r2
    5c72:	d0f7      	beq.n	5c64 <__mdiff+0x28>
    5c74:	d375      	bcc.n	5d62 <__mdiff+0x126>
    5c76:	462b      	mov	r3, r5
    5c78:	2400      	movs	r4, #0
    5c7a:	4645      	mov	r5, r8
    5c7c:	4698      	mov	r8, r3
    5c7e:	6869      	ldr	r1, [r5, #4]
    5c80:	f7ff fcd8 	bl	5634 <_Balloc>
    5c84:	4681      	mov	r9, r0
    5c86:	2800      	cmp	r0, #0
    5c88:	f000 8089 	beq.w	5d9e <__mdiff+0x162>
    5c8c:	692e      	ldr	r6, [r5, #16]
    5c8e:	60c4      	str	r4, [r0, #12]
    5c90:	f8d8 0010 	ldr.w	r0, [r8, #16]
    5c94:	f105 0b14 	add.w	fp, r5, #20
    5c98:	f108 0e14 	add.w	lr, r8, #20
    5c9c:	f109 0a14 	add.w	sl, r9, #20
    5ca0:	f105 0210 	add.w	r2, r5, #16
    5ca4:	eb0e 0080 	add.w	r0, lr, r0, lsl #2
    5ca8:	eb0b 0186 	add.w	r1, fp, r6, lsl #2
    5cac:	4657      	mov	r7, sl
    5cae:	f04f 0c00 	mov.w	ip, #0
    5cb2:	f8cd b004 	str.w	fp, [sp, #4]
    5cb6:	f85e 4b04 	ldr.w	r4, [lr], #4
    5cba:	f852 5f04 	ldr.w	r5, [r2, #4]!
    5cbe:	fa1f fb84 	uxth.w	fp, r4
    5cc2:	b2ab      	uxth	r3, r5
    5cc4:	eba3 030b 	sub.w	r3, r3, fp
    5cc8:	0c24      	lsrs	r4, r4, #16
    5cca:	4463      	add	r3, ip
    5ccc:	ebc4 4415 	rsb	r4, r4, r5, lsr #16
    5cd0:	eb04 4423 	add.w	r4, r4, r3, asr #16
    5cd4:	b29b      	uxth	r3, r3
    5cd6:	ea43 4304 	orr.w	r3, r3, r4, lsl #16
    5cda:	4570      	cmp	r0, lr
    5cdc:	f847 3b04 	str.w	r3, [r7], #4
    5ce0:	ea4f 4c24 	mov.w	ip, r4, asr #16
    5ce4:	d8e7      	bhi.n	5cb6 <__mdiff+0x7a>
    5ce6:	eba0 0208 	sub.w	r2, r0, r8
    5cea:	f108 0815 	add.w	r8, r8, #21
    5cee:	4540      	cmp	r0, r8
    5cf0:	f1a2 0215 	sub.w	r2, r2, #21
    5cf4:	bf34      	ite	cc
    5cf6:	2000      	movcc	r0, #0
    5cf8:	2001      	movcs	r0, #1
    5cfa:	0892      	lsrs	r2, r2, #2
    5cfc:	2800      	cmp	r0, #0
    5cfe:	f8dd b004 	ldr.w	fp, [sp, #4]
    5d02:	f102 0401 	add.w	r4, r2, #1
    5d06:	ea4f 0484 	mov.w	r4, r4, lsl #2
    5d0a:	bf08      	it	eq
    5d0c:	2404      	moveq	r4, #4
    5d0e:	eb0b 0504 	add.w	r5, fp, r4
    5d12:	42a9      	cmp	r1, r5
    5d14:	4454      	add	r4, sl
    5d16:	d933      	bls.n	5d80 <__mdiff+0x144>
    5d18:	4627      	mov	r7, r4
    5d1a:	4628      	mov	r0, r5
    5d1c:	f850 3b04 	ldr.w	r3, [r0], #4
    5d20:	fa1c fe83 	uxtah	lr, ip, r3
    5d24:	0c1a      	lsrs	r2, r3, #16
    5d26:	4463      	add	r3, ip
    5d28:	eb02 422e 	add.w	r2, r2, lr, asr #16
    5d2c:	b29b      	uxth	r3, r3
    5d2e:	ea43 4302 	orr.w	r3, r3, r2, lsl #16
    5d32:	4281      	cmp	r1, r0
    5d34:	f847 3b04 	str.w	r3, [r7], #4
    5d38:	ea4f 4c22 	mov.w	ip, r2, asr #16
    5d3c:	d8ee      	bhi.n	5d1c <__mdiff+0xe0>
    5d3e:	3901      	subs	r1, #1
    5d40:	1b49      	subs	r1, r1, r5
    5d42:	f021 0103 	bic.w	r1, r1, #3
    5d46:	440c      	add	r4, r1
    5d48:	b923      	cbnz	r3, 5d54 <__mdiff+0x118>
    5d4a:	f854 3d04 	ldr.w	r3, [r4, #-4]!
    5d4e:	3e01      	subs	r6, #1
    5d50:	2b00      	cmp	r3, #0
    5d52:	d0fa      	beq.n	5d4a <__mdiff+0x10e>
    5d54:	4648      	mov	r0, r9
    5d56:	f8c9 6010 	str.w	r6, [r9, #16]
    5d5a:	b003      	add	sp, #12
    5d5c:	e8bd 8ff0 	ldmia.w	sp!, {r4, r5, r6, r7, r8, r9, sl, fp, pc}
    5d60:	da89      	bge.n	5c76 <__mdiff+0x3a>
    5d62:	2401      	movs	r4, #1
    5d64:	e78b      	b.n	5c7e <__mdiff+0x42>
    5d66:	2100      	movs	r1, #0
    5d68:	f7ff fc64 	bl	5634 <_Balloc>
    5d6c:	4681      	mov	r9, r0
    5d6e:	b178      	cbz	r0, 5d90 <__mdiff+0x154>
    5d70:	2201      	movs	r2, #1
    5d72:	2300      	movs	r3, #0
    5d74:	e9c0 2304 	strd	r2, r3, [r0, #16]
    5d78:	4648      	mov	r0, r9
    5d7a:	b003      	add	sp, #12
    5d7c:	e8bd 8ff0 	ldmia.w	sp!, {r4, r5, r6, r7, r8, r9, sl, fp, pc}
    5d80:	2800      	cmp	r0, #0
    5d82:	ea4f 0282 	mov.w	r2, r2, lsl #2
    5d86:	bf08      	it	eq
    5d88:	2200      	moveq	r2, #0
    5d8a:	eb0a 0402 	add.w	r4, sl, r2
    5d8e:	e7db      	b.n	5d48 <__mdiff+0x10c>
    5d90:	4b06      	ldr	r3, [pc, #24]	@ (5dac <__mdiff+0x170>)
    5d92:	4807      	ldr	r0, [pc, #28]	@ (5db0 <__mdiff+0x174>)
    5d94:	464a      	mov	r2, r9
    5d96:	f240 2137 	movw	r1, #567	@ 0x237
    5d9a:	f7ff fc25 	bl	55e8 <__assert_func>
    5d9e:	4b03      	ldr	r3, [pc, #12]	@ (5dac <__mdiff+0x170>)
    5da0:	4803      	ldr	r0, [pc, #12]	@ (5db0 <__mdiff+0x174>)
    5da2:	464a      	mov	r2, r9
    5da4:	f240 2145 	movw	r1, #581	@ 0x245
    5da8:	f7ff fc1e 	bl	55e8 <__assert_func>
    5dac:	00009720 	.word	0x00009720
    5db0:	000097a0 	.word	0x000097a0

00005db4 <__ulp>:
    5db4:	b082      	sub	sp, #8
    5db6:	ed8d 0b00 	vstr	d0, [sp]
    5dba:	4b16      	ldr	r3, [pc, #88]	@ (5e14 <__ulp+0x60>)
    5dbc:	9a01      	ldr	r2, [sp, #4]
    5dbe:	4013      	ands	r3, r2
    5dc0:	f1a3 7350 	sub.w	r3, r3, #54525952	@ 0x3400000
    5dc4:	2b00      	cmp	r3, #0
    5dc6:	dd06      	ble.n	5dd6 <__ulp+0x22>
    5dc8:	2200      	movs	r2, #0
    5dca:	4619      	mov	r1, r3
    5dcc:	4610      	mov	r0, r2
    5dce:	ec41 0b10 	vmov	d0, r0, r1
    5dd2:	b002      	add	sp, #8
    5dd4:	4770      	bx	lr
    5dd6:	425b      	negs	r3, r3
    5dd8:	f1b3 7fa0 	cmp.w	r3, #20971520	@ 0x1400000
    5ddc:	ea4f 5223 	mov.w	r2, r3, asr #20
    5de0:	da09      	bge.n	5df6 <__ulp+0x42>
    5de2:	f44f 2300 	mov.w	r3, #524288	@ 0x80000
    5de6:	4113      	asrs	r3, r2
    5de8:	2200      	movs	r2, #0
    5dea:	4619      	mov	r1, r3
    5dec:	4610      	mov	r0, r2
    5dee:	ec41 0b10 	vmov	d0, r0, r1
    5df2:	b002      	add	sp, #8
    5df4:	4770      	bx	lr
    5df6:	f1a2 0314 	sub.w	r3, r2, #20
    5dfa:	2b1e      	cmp	r3, #30
    5dfc:	bfda      	itte	le
    5dfe:	f04f 4200 	movle.w	r2, #2147483648	@ 0x80000000
    5e02:	40da      	lsrle	r2, r3
    5e04:	2201      	movgt	r2, #1
    5e06:	2300      	movs	r3, #0
    5e08:	4619      	mov	r1, r3
    5e0a:	4610      	mov	r0, r2
    5e0c:	ec41 0b10 	vmov	d0, r0, r1
    5e10:	b002      	add	sp, #8
    5e12:	4770      	bx	lr
    5e14:	7ff00000 	.word	0x7ff00000

00005e18 <__b2d>:
    5e18:	b5f8      	push	{r3, r4, r5, r6, r7, lr}
    5e1a:	6904      	ldr	r4, [r0, #16]
    5e1c:	f100 0614 	add.w	r6, r0, #20
    5e20:	eb06 0484 	add.w	r4, r6, r4, lsl #2
    5e24:	1f27      	subs	r7, r4, #4
    5e26:	f854 5c04 	ldr.w	r5, [r4, #-4]
    5e2a:	4628      	mov	r0, r5
    5e2c:	f7ff fcdc 	bl	57e8 <__hi0bits>
    5e30:	f1c0 0320 	rsb	r3, r0, #32
    5e34:	280a      	cmp	r0, #10
    5e36:	600b      	str	r3, [r1, #0]
    5e38:	dd33      	ble.n	5ea2 <__b2d+0x8a>
    5e3a:	42be      	cmp	r6, r7
    5e3c:	f1a0 010b 	sub.w	r1, r0, #11
    5e40:	d219      	bcs.n	5e76 <__b2d+0x5e>
    5e42:	f854 0c08 	ldr.w	r0, [r4, #-8]
    5e46:	b321      	cbz	r1, 5e92 <__b2d+0x7a>
    5e48:	f1c1 0720 	rsb	r7, r1, #32
    5e4c:	408d      	lsls	r5, r1
    5e4e:	fa20 f207 	lsr.w	r2, r0, r7
    5e52:	4315      	orrs	r5, r2
    5e54:	4088      	lsls	r0, r1
    5e56:	f1a4 0108 	sub.w	r1, r4, #8
    5e5a:	f045 537f 	orr.w	r3, r5, #1069547520	@ 0x3fc00000
    5e5e:	428e      	cmp	r6, r1
    5e60:	f443 1340 	orr.w	r3, r3, #3145728	@ 0x300000
    5e64:	d219      	bcs.n	5e9a <__b2d+0x82>
    5e66:	f854 1c0c 	ldr.w	r1, [r4, #-12]
    5e6a:	40f9      	lsrs	r1, r7
    5e6c:	4308      	orrs	r0, r1
    5e6e:	4602      	mov	r2, r0
    5e70:	ec43 2b10 	vmov	d0, r2, r3
    5e74:	bdf8      	pop	{r3, r4, r5, r6, r7, pc}
    5e76:	280b      	cmp	r0, #11
    5e78:	d00a      	beq.n	5e90 <__b2d+0x78>
    5e7a:	fa05 f101 	lsl.w	r1, r5, r1
    5e7e:	f041 537f 	orr.w	r3, r1, #1069547520	@ 0x3fc00000
    5e82:	2000      	movs	r0, #0
    5e84:	f443 1340 	orr.w	r3, r3, #3145728	@ 0x300000
    5e88:	4602      	mov	r2, r0
    5e8a:	ec43 2b10 	vmov	d0, r2, r3
    5e8e:	bdf8      	pop	{r3, r4, r5, r6, r7, pc}
    5e90:	2000      	movs	r0, #0
    5e92:	f045 537f 	orr.w	r3, r5, #1069547520	@ 0x3fc00000
    5e96:	f443 1340 	orr.w	r3, r3, #3145728	@ 0x300000
    5e9a:	4602      	mov	r2, r0
    5e9c:	ec43 2b10 	vmov	d0, r2, r3
    5ea0:	bdf8      	pop	{r3, r4, r5, r6, r7, pc}
    5ea2:	f1c0 0c0b 	rsb	ip, r0, #11
    5ea6:	fa25 f10c 	lsr.w	r1, r5, ip
    5eaa:	42be      	cmp	r6, r7
    5eac:	f041 537f 	orr.w	r3, r1, #1069547520	@ 0x3fc00000
    5eb0:	bf38      	it	cc
    5eb2:	f854 1c08 	ldrcc.w	r1, [r4, #-8]
    5eb6:	f100 0015 	add.w	r0, r0, #21
    5eba:	bf34      	ite	cc
    5ebc:	fa21 f10c 	lsrcc.w	r1, r1, ip
    5ec0:	2100      	movcs	r1, #0
    5ec2:	fa05 f000 	lsl.w	r0, r5, r0
    5ec6:	4308      	orrs	r0, r1
    5ec8:	f443 1340 	orr.w	r3, r3, #3145728	@ 0x300000
    5ecc:	4602      	mov	r2, r0
    5ece:	ec43 2b10 	vmov	d0, r2, r3
    5ed2:	bdf8      	pop	{r3, r4, r5, r6, r7, pc}

00005ed4 <__d2b>:
    5ed4:	e92d 43f0 	stmdb	sp!, {r4, r5, r6, r7, r8, r9, lr}
    5ed8:	460e      	mov	r6, r1
    5eda:	b083      	sub	sp, #12
    5edc:	2101      	movs	r1, #1
    5ede:	ec59 8b10 	vmov	r8, r9, d0
    5ee2:	4615      	mov	r5, r2
    5ee4:	f7ff fba6 	bl	5634 <_Balloc>
    5ee8:	4604      	mov	r4, r0
    5eea:	2800      	cmp	r0, #0
    5eec:	d046      	beq.n	5f7c <__d2b+0xa8>
    5eee:	f3c9 570a 	ubfx	r7, r9, #20, #11
    5ef2:	f3c9 0313 	ubfx	r3, r9, #0, #20
    5ef6:	b10f      	cbz	r7, 5efc <__d2b+0x28>
    5ef8:	f443 1380 	orr.w	r3, r3, #1048576	@ 0x100000
    5efc:	9301      	str	r3, [sp, #4]
    5efe:	f1b8 0300 	subs.w	r3, r8, #0
    5f02:	d113      	bne.n	5f2c <__d2b+0x58>
    5f04:	a801      	add	r0, sp, #4
    5f06:	f7ff fc91 	bl	582c <__lo0bits>
    5f0a:	9b01      	ldr	r3, [sp, #4]
    5f0c:	6163      	str	r3, [r4, #20]
    5f0e:	2201      	movs	r2, #1
    5f10:	3020      	adds	r0, #32
    5f12:	6122      	str	r2, [r4, #16]
    5f14:	b30f      	cbz	r7, 5f5a <__d2b+0x86>
    5f16:	f2a7 4733 	subw	r7, r7, #1075	@ 0x433
    5f1a:	4407      	add	r7, r0
    5f1c:	f1c0 0035 	rsb	r0, r0, #53	@ 0x35
    5f20:	6037      	str	r7, [r6, #0]
    5f22:	6028      	str	r0, [r5, #0]
    5f24:	4620      	mov	r0, r4
    5f26:	b003      	add	sp, #12
    5f28:	e8bd 83f0 	ldmia.w	sp!, {r4, r5, r6, r7, r8, r9, pc}
    5f2c:	4668      	mov	r0, sp
    5f2e:	9300      	str	r3, [sp, #0]
    5f30:	f7ff fc7c 	bl	582c <__lo0bits>
    5f34:	9b01      	ldr	r3, [sp, #4]
    5f36:	b1f8      	cbz	r0, 5f78 <__d2b+0xa4>
    5f38:	9900      	ldr	r1, [sp, #0]
    5f3a:	f1c0 0220 	rsb	r2, r0, #32
    5f3e:	fa03 f202 	lsl.w	r2, r3, r2
    5f42:	40c3      	lsrs	r3, r0
    5f44:	430a      	orrs	r2, r1
    5f46:	9301      	str	r3, [sp, #4]
    5f48:	2b00      	cmp	r3, #0
    5f4a:	6162      	str	r2, [r4, #20]
    5f4c:	bf0c      	ite	eq
    5f4e:	2201      	moveq	r2, #1
    5f50:	2202      	movne	r2, #2
    5f52:	61a3      	str	r3, [r4, #24]
    5f54:	6122      	str	r2, [r4, #16]
    5f56:	2f00      	cmp	r7, #0
    5f58:	d1dd      	bne.n	5f16 <__d2b+0x42>
    5f5a:	eb04 0382 	add.w	r3, r4, r2, lsl #2
    5f5e:	f2a0 4032 	subw	r0, r0, #1074	@ 0x432
    5f62:	6030      	str	r0, [r6, #0]
    5f64:	6918      	ldr	r0, [r3, #16]
    5f66:	f7ff fc3f 	bl	57e8 <__hi0bits>
    5f6a:	ebc0 1042 	rsb	r0, r0, r2, lsl #5
    5f6e:	6028      	str	r0, [r5, #0]
    5f70:	4620      	mov	r0, r4
    5f72:	b003      	add	sp, #12
    5f74:	e8bd 83f0 	ldmia.w	sp!, {r4, r5, r6, r7, r8, r9, pc}
    5f78:	9a00      	ldr	r2, [sp, #0]
    5f7a:	e7e5      	b.n	5f48 <__d2b+0x74>
    5f7c:	4b03      	ldr	r3, [pc, #12]	@ (5f8c <__d2b+0xb8>)
    5f7e:	4804      	ldr	r0, [pc, #16]	@ (5f90 <__d2b+0xbc>)
    5f80:	4622      	mov	r2, r4
    5f82:	f240 310f 	movw	r1, #783	@ 0x30f
    5f86:	f7ff fb2f 	bl	55e8 <__assert_func>
    5f8a:	bf00      	nop
    5f8c:	00009720 	.word	0x00009720
    5f90:	000097a0 	.word	0x000097a0

00005f94 <__ratio>:
    5f94:	e92d 43f0 	stmdb	sp!, {r4, r5, r6, r7, r8, r9, lr}
    5f98:	b083      	sub	sp, #12
    5f9a:	4688      	mov	r8, r1
    5f9c:	4669      	mov	r1, sp
    5f9e:	4681      	mov	r9, r0
    5fa0:	f7ff ff3a 	bl	5e18 <__b2d>
    5fa4:	a901      	add	r1, sp, #4
    5fa6:	4640      	mov	r0, r8
    5fa8:	ec55 4b10 	vmov	r4, r5, d0
    5fac:	f7ff ff34 	bl	5e18 <__b2d>
    5fb0:	f8d8 3010 	ldr.w	r3, [r8, #16]
    5fb4:	f8d9 2010 	ldr.w	r2, [r9, #16]
    5fb8:	1ad2      	subs	r2, r2, r3
    5fba:	e9dd 3100 	ldrd	r3, r1, [sp]
    5fbe:	1a5b      	subs	r3, r3, r1
    5fc0:	eb03 1342 	add.w	r3, r3, r2, lsl #5
    5fc4:	2b00      	cmp	r3, #0
    5fc6:	ec59 8b10 	vmov	r8, r9, d0
    5fca:	dd0d      	ble.n	5fe8 <__ratio+0x54>
    5fcc:	eb05 5703 	add.w	r7, r5, r3, lsl #20
    5fd0:	463d      	mov	r5, r7
    5fd2:	4642      	mov	r2, r8
    5fd4:	464b      	mov	r3, r9
    5fd6:	4620      	mov	r0, r4
    5fd8:	4629      	mov	r1, r5
    5fda:	f002 fa77 	bl	84cc <__aeabi_ddiv>
    5fde:	ec41 0b10 	vmov	d0, r0, r1
    5fe2:	b003      	add	sp, #12
    5fe4:	e8bd 83f0 	ldmia.w	sp!, {r4, r5, r6, r7, r8, r9, pc}
    5fe8:	ebc3 3303 	rsb	r3, r3, r3, lsl #12
    5fec:	eb09 5103 	add.w	r1, r9, r3, lsl #20
    5ff0:	4689      	mov	r9, r1
    5ff2:	e7ee      	b.n	5fd2 <__ratio+0x3e>

00005ff4 <_mprec_log10>:
    5ff4:	2817      	cmp	r0, #23
    5ff6:	b570      	push	{r4, r5, r6, lr}
    5ff8:	4606      	mov	r6, r0
    5ffa:	dd0c      	ble.n	6016 <_mprec_log10+0x22>
    5ffc:	490a      	ldr	r1, [pc, #40]	@ (6028 <_mprec_log10+0x34>)
    5ffe:	4d0b      	ldr	r5, [pc, #44]	@ (602c <_mprec_log10+0x38>)
    6000:	2000      	movs	r0, #0
    6002:	2400      	movs	r4, #0
    6004:	4622      	mov	r2, r4
    6006:	462b      	mov	r3, r5
    6008:	f002 f936 	bl	8278 <__aeabi_dmul>
    600c:	3e01      	subs	r6, #1
    600e:	d1f9      	bne.n	6004 <_mprec_log10+0x10>
    6010:	ec41 0b10 	vmov	d0, r0, r1
    6014:	bd70      	pop	{r4, r5, r6, pc}
    6016:	4b06      	ldr	r3, [pc, #24]	@ (6030 <_mprec_log10+0x3c>)
    6018:	eb03 03c0 	add.w	r3, r3, r0, lsl #3
    601c:	e9d3 0104 	ldrd	r0, r1, [r3, #16]
    6020:	ec41 0b10 	vmov	d0, r0, r1
    6024:	bd70      	pop	{r4, r5, r6, pc}
    6026:	bf00      	nop
    6028:	3ff00000 	.word	0x3ff00000
    602c:	40240000 	.word	0x40240000
    6030:	00009908 	.word	0x00009908

00006034 <__copybits>:
    6034:	3901      	subs	r1, #1
    6036:	1149      	asrs	r1, r1, #5
    6038:	f101 0c01 	add.w	ip, r1, #1
    603c:	6911      	ldr	r1, [r2, #16]
    603e:	f102 0314 	add.w	r3, r2, #20
    6042:	eb03 0181 	add.w	r1, r3, r1, lsl #2
    6046:	428b      	cmp	r3, r1
    6048:	eb00 0c8c 	add.w	ip, r0, ip, lsl #2
    604c:	d216      	bcs.n	607c <__copybits+0x48>
    604e:	b510      	push	{r4, lr}
    6050:	f1a0 0e04 	sub.w	lr, r0, #4
    6054:	f853 4b04 	ldr.w	r4, [r3], #4
    6058:	f84e 4f04 	str.w	r4, [lr, #4]!
    605c:	4299      	cmp	r1, r3
    605e:	d8f9      	bhi.n	6054 <__copybits+0x20>
    6060:	1a8b      	subs	r3, r1, r2
    6062:	3b15      	subs	r3, #21
    6064:	f023 0303 	bic.w	r3, r3, #3
    6068:	3304      	adds	r3, #4
    606a:	4418      	add	r0, r3
    606c:	4584      	cmp	ip, r0
    606e:	d904      	bls.n	607a <__copybits+0x46>
    6070:	2300      	movs	r3, #0
    6072:	f840 3b04 	str.w	r3, [r0], #4
    6076:	4584      	cmp	ip, r0
    6078:	d8fb      	bhi.n	6072 <__copybits+0x3e>
    607a:	bd10      	pop	{r4, pc}
    607c:	4584      	cmp	ip, r0
    607e:	d905      	bls.n	608c <__copybits+0x58>
    6080:	2300      	movs	r3, #0
    6082:	f840 3b04 	str.w	r3, [r0], #4
    6086:	4584      	cmp	ip, r0
    6088:	d8fb      	bhi.n	6082 <__copybits+0x4e>
    608a:	4770      	bx	lr
    608c:	4770      	bx	lr
    608e:	bf00      	nop

00006090 <__any_on>:
    6090:	6903      	ldr	r3, [r0, #16]
    6092:	114a      	asrs	r2, r1, #5
    6094:	4293      	cmp	r3, r2
    6096:	f100 0014 	add.w	r0, r0, #20
    609a:	da09      	bge.n	60b0 <__any_on+0x20>
    609c:	eb00 0383 	add.w	r3, r0, r3, lsl #2
    60a0:	e002      	b.n	60a8 <__any_on+0x18>
    60a2:	f853 2d04 	ldr.w	r2, [r3, #-4]!
    60a6:	b9aa      	cbnz	r2, 60d4 <__any_on+0x44>
    60a8:	4283      	cmp	r3, r0
    60aa:	d8fa      	bhi.n	60a2 <__any_on+0x12>
    60ac:	2000      	movs	r0, #0
    60ae:	4770      	bx	lr
    60b0:	eb00 0382 	add.w	r3, r0, r2, lsl #2
    60b4:	ddf8      	ble.n	60a8 <__any_on+0x18>
    60b6:	f011 011f 	ands.w	r1, r1, #31
    60ba:	d0f5      	beq.n	60a8 <__any_on+0x18>
    60bc:	b410      	push	{r4}
    60be:	f850 4022 	ldr.w	r4, [r0, r2, lsl #2]
    60c2:	fa24 f201 	lsr.w	r2, r4, r1
    60c6:	408a      	lsls	r2, r1
    60c8:	4294      	cmp	r4, r2
    60ca:	d009      	beq.n	60e0 <__any_on+0x50>
    60cc:	2001      	movs	r0, #1
    60ce:	f85d 4b04 	ldr.w	r4, [sp], #4
    60d2:	4770      	bx	lr
    60d4:	2001      	movs	r0, #1
    60d6:	4770      	bx	lr
    60d8:	f853 2d04 	ldr.w	r2, [r3, #-4]!
    60dc:	2a00      	cmp	r2, #0
    60de:	d1f5      	bne.n	60cc <__any_on+0x3c>
    60e0:	4283      	cmp	r3, r0
    60e2:	d8f9      	bhi.n	60d8 <__any_on+0x48>
    60e4:	2000      	movs	r0, #0
    60e6:	f85d 4b04 	ldr.w	r4, [sp], #4
    60ea:	4770      	bx	lr

000060ec <_fwalk_sglue>:
    60ec:	e92d 43f8 	stmdb	sp!, {r3, r4, r5, r6, r7, r8, r9, lr}
    60f0:	4607      	mov	r7, r0
    60f2:	4688      	mov	r8, r1
    60f4:	4616      	mov	r6, r2
    60f6:	f04f 0900 	mov.w	r9, #0
    60fa:	e9d6 5401 	ldrd	r5, r4, [r6, #4]
    60fe:	3d01      	subs	r5, #1
    6100:	d410      	bmi.n	6124 <_fwalk_sglue+0x38>
    6102:	89a3      	ldrh	r3, [r4, #12]
    6104:	2b01      	cmp	r3, #1
    6106:	d908      	bls.n	611a <_fwalk_sglue+0x2e>
    6108:	f9b4 300e 	ldrsh.w	r3, [r4, #14]
    610c:	3301      	adds	r3, #1
    610e:	4621      	mov	r1, r4
    6110:	4638      	mov	r0, r7
    6112:	d002      	beq.n	611a <_fwalk_sglue+0x2e>
    6114:	47c0      	blx	r8
    6116:	ea49 0900 	orr.w	r9, r9, r0
    611a:	3d01      	subs	r5, #1
    611c:	1c6b      	adds	r3, r5, #1
    611e:	f104 0468 	add.w	r4, r4, #104	@ 0x68
    6122:	d1ee      	bne.n	6102 <_fwalk_sglue+0x16>
    6124:	6836      	ldr	r6, [r6, #0]
    6126:	2e00      	cmp	r6, #0
    6128:	d1e7      	bne.n	60fa <_fwalk_sglue+0xe>
    612a:	4648      	mov	r0, r9
    612c:	e8bd 83f8 	ldmia.w	sp!, {r3, r4, r5, r6, r7, r8, r9, pc}

00006130 <__localeconv_l>:
    6130:	30f0      	adds	r0, #240	@ 0xf0
    6132:	4770      	bx	lr

00006134 <_localeconv_r>:
    6134:	4800      	ldr	r0, [pc, #0]	@ (6138 <_localeconv_r+0x4>)
    6136:	4770      	bx	lr
    6138:	20000634 	.word	0x20000634

0000613c <localeconv>:
    613c:	4800      	ldr	r0, [pc, #0]	@ (6140 <localeconv+0x4>)
    613e:	4770      	bx	lr
    6140:	20000634 	.word	0x20000634
	...

00006150 <memchr>:
    6150:	f001 01ff 	and.w	r1, r1, #255	@ 0xff
    6154:	2a10      	cmp	r2, #16
    6156:	db2b      	blt.n	61b0 <memchr+0x60>
    6158:	f010 0f07 	tst.w	r0, #7
    615c:	d008      	beq.n	6170 <memchr+0x20>
    615e:	f810 3b01 	ldrb.w	r3, [r0], #1
    6162:	3a01      	subs	r2, #1
    6164:	428b      	cmp	r3, r1
    6166:	d02d      	beq.n	61c4 <memchr+0x74>
    6168:	f010 0f07 	tst.w	r0, #7
    616c:	b342      	cbz	r2, 61c0 <memchr+0x70>
    616e:	d1f6      	bne.n	615e <memchr+0xe>
    6170:	b4f0      	push	{r4, r5, r6, r7}
    6172:	ea41 2101 	orr.w	r1, r1, r1, lsl #8
    6176:	ea41 4101 	orr.w	r1, r1, r1, lsl #16
    617a:	f022 0407 	bic.w	r4, r2, #7
    617e:	f07f 0700 	mvns.w	r7, #0
    6182:	2300      	movs	r3, #0
    6184:	e8f0 5602 	ldrd	r5, r6, [r0], #8
    6188:	3c08      	subs	r4, #8
    618a:	ea85 0501 	eor.w	r5, r5, r1
    618e:	ea86 0601 	eor.w	r6, r6, r1
    6192:	fa85 f547 	uadd8	r5, r5, r7
    6196:	faa3 f587 	sel	r5, r3, r7
    619a:	fa86 f647 	uadd8	r6, r6, r7
    619e:	faa5 f687 	sel	r6, r5, r7
    61a2:	b98e      	cbnz	r6, 61c8 <memchr+0x78>
    61a4:	d1ee      	bne.n	6184 <memchr+0x34>
    61a6:	bcf0      	pop	{r4, r5, r6, r7}
    61a8:	f001 01ff 	and.w	r1, r1, #255	@ 0xff
    61ac:	f002 0207 	and.w	r2, r2, #7
    61b0:	b132      	cbz	r2, 61c0 <memchr+0x70>
    61b2:	f810 3b01 	ldrb.w	r3, [r0], #1
    61b6:	3a01      	subs	r2, #1
    61b8:	ea83 0301 	eor.w	r3, r3, r1
    61bc:	b113      	cbz	r3, 61c4 <memchr+0x74>
    61be:	d1f8      	bne.n	61b2 <memchr+0x62>
    61c0:	2000      	movs	r0, #0
    61c2:	4770      	bx	lr
    61c4:	3801      	subs	r0, #1
    61c6:	4770      	bx	lr
    61c8:	2d00      	cmp	r5, #0
    61ca:	bf06      	itte	eq
    61cc:	4635      	moveq	r5, r6
    61ce:	3803      	subeq	r0, #3
    61d0:	3807      	subne	r0, #7
    61d2:	f015 0f01 	tst.w	r5, #1
    61d6:	d107      	bne.n	61e8 <memchr+0x98>
    61d8:	3001      	adds	r0, #1
    61da:	f415 7f80 	tst.w	r5, #256	@ 0x100
    61de:	bf02      	ittt	eq
    61e0:	3001      	addeq	r0, #1
    61e2:	f415 3fc0 	tsteq.w	r5, #98304	@ 0x18000
    61e6:	3001      	addeq	r0, #1
    61e8:	bcf0      	pop	{r4, r5, r6, r7}
    61ea:	3801      	subs	r0, #1
    61ec:	4770      	bx	lr
    61ee:	bf00      	nop

000061f0 <_mbtowc_r>:
    61f0:	b410      	push	{r4}
    61f2:	4c03      	ldr	r4, [pc, #12]	@ (6200 <_mbtowc_r+0x10>)
    61f4:	f8d4 40e4 	ldr.w	r4, [r4, #228]	@ 0xe4
    61f8:	46a4      	mov	ip, r4
    61fa:	f85d 4b04 	ldr.w	r4, [sp], #4
    61fe:	4760      	bx	ip
    6200:	20000544 	.word	0x20000544

00006204 <__ascii_mbtowc>:
    6204:	b082      	sub	sp, #8
    6206:	b149      	cbz	r1, 621c <__ascii_mbtowc+0x18>
    6208:	b15a      	cbz	r2, 6222 <__ascii_mbtowc+0x1e>
    620a:	b16b      	cbz	r3, 6228 <__ascii_mbtowc+0x24>
    620c:	7813      	ldrb	r3, [r2, #0]
    620e:	600b      	str	r3, [r1, #0]
    6210:	7812      	ldrb	r2, [r2, #0]
    6212:	1e10      	subs	r0, r2, #0
    6214:	bf18      	it	ne
    6216:	2001      	movne	r0, #1
    6218:	b002      	add	sp, #8
    621a:	4770      	bx	lr
    621c:	a901      	add	r1, sp, #4
    621e:	2a00      	cmp	r2, #0
    6220:	d1f3      	bne.n	620a <__ascii_mbtowc+0x6>
    6222:	4610      	mov	r0, r2
    6224:	b002      	add	sp, #8
    6226:	4770      	bx	lr
    6228:	f06f 0001 	mvn.w	r0, #1
    622c:	e7f4      	b.n	6218 <__ascii_mbtowc+0x14>
    622e:	bf00      	nop

00006230 <abort>:
    6230:	b508      	push	{r3, lr}
    6232:	2006      	movs	r0, #6
    6234:	f000 fbcc 	bl	69d0 <raise>
    6238:	2001      	movs	r0, #1
    623a:	f7fb faf4 	bl	1826 <_exit>
    623e:	bf00      	nop

00006240 <_calloc_r>:
    6240:	b538      	push	{r3, r4, r5, lr}
    6242:	fba1 1402 	umull	r1, r4, r1, r2
    6246:	bb54      	cbnz	r4, 629e <_calloc_r+0x5e>
    6248:	f7fd fa60 	bl	370c <_malloc_r>
    624c:	4605      	mov	r5, r0
    624e:	b350      	cbz	r0, 62a6 <_calloc_r+0x66>
    6250:	f850 2c04 	ldr.w	r2, [r0, #-4]
    6254:	f022 0203 	bic.w	r2, r2, #3
    6258:	3a04      	subs	r2, #4
    625a:	2a24      	cmp	r2, #36	@ 0x24
    625c:	d810      	bhi.n	6280 <_calloc_r+0x40>
    625e:	2a13      	cmp	r2, #19
    6260:	d913      	bls.n	628a <_calloc_r+0x4a>
    6262:	2a1b      	cmp	r2, #27
    6264:	e9c0 4400 	strd	r4, r4, [r0]
    6268:	d916      	bls.n	6298 <_calloc_r+0x58>
    626a:	2a24      	cmp	r2, #36	@ 0x24
    626c:	e9c0 4402 	strd	r4, r4, [r0, #8]
    6270:	bf0a      	itet	eq
    6272:	e9c0 4404 	strdeq	r4, r4, [r0, #16]
    6276:	f100 0210 	addne.w	r2, r0, #16
    627a:	f100 0218 	addeq.w	r2, r0, #24
    627e:	e005      	b.n	628c <_calloc_r+0x4c>
    6280:	4621      	mov	r1, r4
    6282:	f7ff f95f 	bl	5544 <memset>
    6286:	4628      	mov	r0, r5
    6288:	bd38      	pop	{r3, r4, r5, pc}
    628a:	4602      	mov	r2, r0
    628c:	2300      	movs	r3, #0
    628e:	e9c2 3300 	strd	r3, r3, [r2]
    6292:	6093      	str	r3, [r2, #8]
    6294:	4628      	mov	r0, r5
    6296:	bd38      	pop	{r3, r4, r5, pc}
    6298:	f100 0208 	add.w	r2, r0, #8
    629c:	e7f6      	b.n	628c <_calloc_r+0x4c>
    629e:	f7fd fa2f 	bl	3700 <__errno>
    62a2:	230c      	movs	r3, #12
    62a4:	6003      	str	r3, [r0, #0]
    62a6:	2500      	movs	r5, #0
    62a8:	4628      	mov	r0, r5
    62aa:	bd38      	pop	{r3, r4, r5, pc}

000062ac <__ssputs_r>:
    62ac:	e92d 47f0 	stmdb	sp!, {r4, r5, r6, r7, r8, r9, sl, lr}
    62b0:	688f      	ldr	r7, [r1, #8]
    62b2:	461d      	mov	r5, r3
    62b4:	42af      	cmp	r7, r5
    62b6:	680b      	ldr	r3, [r1, #0]
    62b8:	460c      	mov	r4, r1
    62ba:	4616      	mov	r6, r2
    62bc:	d836      	bhi.n	632c <__ssputs_r+0x80>
    62be:	f9b1 c00c 	ldrsh.w	ip, [r1, #12]
    62c2:	f41c 6f90 	tst.w	ip, #1152	@ 0x480
    62c6:	d10e      	bne.n	62e6 <__ssputs_r+0x3a>
    62c8:	463d      	mov	r5, r7
    62ca:	4618      	mov	r0, r3
    62cc:	4631      	mov	r1, r6
    62ce:	462a      	mov	r2, r5
    62d0:	f000 fd10 	bl	6cf4 <memmove>
    62d4:	68a3      	ldr	r3, [r4, #8]
    62d6:	1bdf      	subs	r7, r3, r7
    62d8:	6823      	ldr	r3, [r4, #0]
    62da:	60a7      	str	r7, [r4, #8]
    62dc:	442b      	add	r3, r5
    62de:	2000      	movs	r0, #0
    62e0:	6023      	str	r3, [r4, #0]
    62e2:	e8bd 87f0 	ldmia.w	sp!, {r4, r5, r6, r7, r8, r9, sl, pc}
    62e6:	694a      	ldr	r2, [r1, #20]
    62e8:	6909      	ldr	r1, [r1, #16]
    62ea:	eb02 0242 	add.w	r2, r2, r2, lsl #1
    62ee:	1a5f      	subs	r7, r3, r1
    62f0:	eb02 72d2 	add.w	r2, r2, r2, lsr #31
    62f4:	1c6b      	adds	r3, r5, #1
    62f6:	1052      	asrs	r2, r2, #1
    62f8:	443b      	add	r3, r7
    62fa:	4293      	cmp	r3, r2
    62fc:	bf92      	itee	ls
    62fe:	4691      	movls	r9, r2
    6300:	4699      	movhi	r9, r3
    6302:	461a      	movhi	r2, r3
    6304:	f41c 6f80 	tst.w	ip, #1024	@ 0x400
    6308:	4680      	mov	r8, r0
    630a:	d011      	beq.n	6330 <__ssputs_r+0x84>
    630c:	4611      	mov	r1, r2
    630e:	f7fd f9fd 	bl	370c <_malloc_r>
    6312:	4682      	mov	sl, r0
    6314:	b300      	cbz	r0, 6358 <__ssputs_r+0xac>
    6316:	6921      	ldr	r1, [r4, #16]
    6318:	463a      	mov	r2, r7
    631a:	f7fe febd 	bl	5098 <memcpy>
    631e:	89a3      	ldrh	r3, [r4, #12]
    6320:	f423 6390 	bic.w	r3, r3, #1152	@ 0x480
    6324:	f043 0380 	orr.w	r3, r3, #128	@ 0x80
    6328:	81a3      	strh	r3, [r4, #12]
    632a:	e005      	b.n	6338 <__ssputs_r+0x8c>
    632c:	462f      	mov	r7, r5
    632e:	e7cc      	b.n	62ca <__ssputs_r+0x1e>
    6330:	f000 f8e8 	bl	6504 <_realloc_r>
    6334:	4682      	mov	sl, r0
    6336:	b158      	cbz	r0, 6350 <__ssputs_r+0xa4>
    6338:	eb0a 0307 	add.w	r3, sl, r7
    633c:	eba9 0707 	sub.w	r7, r9, r7
    6340:	60a7      	str	r7, [r4, #8]
    6342:	f8c4 a010 	str.w	sl, [r4, #16]
    6346:	f8c4 9014 	str.w	r9, [r4, #20]
    634a:	6023      	str	r3, [r4, #0]
    634c:	462f      	mov	r7, r5
    634e:	e7bc      	b.n	62ca <__ssputs_r+0x1e>
    6350:	6921      	ldr	r1, [r4, #16]
    6352:	4640      	mov	r0, r8
    6354:	f7fe fcb8 	bl	4cc8 <_free_r>
    6358:	89a3      	ldrh	r3, [r4, #12]
    635a:	220c      	movs	r2, #12
    635c:	f043 0340 	orr.w	r3, r3, #64	@ 0x40
    6360:	f8c8 2000 	str.w	r2, [r8]
    6364:	f04f 30ff 	mov.w	r0, #4294967295	@ 0xffffffff
    6368:	81a3      	strh	r3, [r4, #12]
    636a:	e7ba      	b.n	62e2 <__ssputs_r+0x36>

0000636c <_fiprintf_r>:
    636c:	b40c      	push	{r2, r3}
    636e:	b500      	push	{lr}
    6370:	b083      	sub	sp, #12
    6372:	ab04      	add	r3, sp, #16
    6374:	f853 2b04 	ldr.w	r2, [r3], #4
    6378:	9301      	str	r3, [sp, #4]
    637a:	f000 fd3b 	bl	6df4 <_vfiprintf_r>
    637e:	b003      	add	sp, #12
    6380:	f85d eb04 	ldr.w	lr, [sp], #4
    6384:	b002      	add	sp, #8
    6386:	4770      	bx	lr

00006388 <fiprintf>:
    6388:	b40e      	push	{r1, r2, r3}
    638a:	b510      	push	{r4, lr}
    638c:	b083      	sub	sp, #12
    638e:	ab05      	add	r3, sp, #20
    6390:	4c06      	ldr	r4, [pc, #24]	@ (63ac <fiprintf+0x24>)
    6392:	f853 2b04 	ldr.w	r2, [r3], #4
    6396:	9301      	str	r3, [sp, #4]
    6398:	4601      	mov	r1, r0
    639a:	6820      	ldr	r0, [r4, #0]
    639c:	f000 fd2a 	bl	6df4 <_vfiprintf_r>
    63a0:	b003      	add	sp, #12
    63a2:	e8bd 4010 	ldmia.w	sp!, {r4, lr}
    63a6:	b003      	add	sp, #12
    63a8:	4770      	bx	lr
    63aa:	bf00      	nop
    63ac:	20000000 	.word	0x20000000

000063b0 <_fclose_r>:
    63b0:	b570      	push	{r4, r5, r6, lr}
    63b2:	b139      	cbz	r1, 63c4 <_fclose_r+0x14>
    63b4:	4606      	mov	r6, r0
    63b6:	460c      	mov	r4, r1
    63b8:	b108      	cbz	r0, 63be <_fclose_r+0xe>
    63ba:	6b43      	ldr	r3, [r0, #52]	@ 0x34
    63bc:	b383      	cbz	r3, 6420 <_fclose_r+0x70>
    63be:	f9b4 300c 	ldrsh.w	r3, [r4, #12]
    63c2:	b913      	cbnz	r3, 63ca <_fclose_r+0x1a>
    63c4:	2500      	movs	r5, #0
    63c6:	4628      	mov	r0, r5
    63c8:	bd70      	pop	{r4, r5, r6, pc}
    63ca:	4621      	mov	r1, r4
    63cc:	4630      	mov	r0, r6
    63ce:	f000 fbbb 	bl	6b48 <__sflush_r>
    63d2:	6ae3      	ldr	r3, [r4, #44]	@ 0x2c
    63d4:	4605      	mov	r5, r0
    63d6:	b133      	cbz	r3, 63e6 <_fclose_r+0x36>
    63d8:	69e1      	ldr	r1, [r4, #28]
    63da:	4630      	mov	r0, r6
    63dc:	4798      	blx	r3
    63de:	2800      	cmp	r0, #0
    63e0:	bfb8      	it	lt
    63e2:	f04f 35ff 	movlt.w	r5, #4294967295	@ 0xffffffff
    63e6:	89a3      	ldrh	r3, [r4, #12]
    63e8:	061b      	lsls	r3, r3, #24
    63ea:	d41c      	bmi.n	6426 <_fclose_r+0x76>
    63ec:	6b21      	ldr	r1, [r4, #48]	@ 0x30
    63ee:	b141      	cbz	r1, 6402 <_fclose_r+0x52>
    63f0:	f104 0340 	add.w	r3, r4, #64	@ 0x40
    63f4:	4299      	cmp	r1, r3
    63f6:	d002      	beq.n	63fe <_fclose_r+0x4e>
    63f8:	4630      	mov	r0, r6
    63fa:	f7fe fc65 	bl	4cc8 <_free_r>
    63fe:	2300      	movs	r3, #0
    6400:	6323      	str	r3, [r4, #48]	@ 0x30
    6402:	6c61      	ldr	r1, [r4, #68]	@ 0x44
    6404:	b121      	cbz	r1, 6410 <_fclose_r+0x60>
    6406:	4630      	mov	r0, r6
    6408:	f7fe fc5e 	bl	4cc8 <_free_r>
    640c:	2300      	movs	r3, #0
    640e:	6463      	str	r3, [r4, #68]	@ 0x44
    6410:	f7fe ffe4 	bl	53dc <__sfp_lock_acquire>
    6414:	2300      	movs	r3, #0
    6416:	81a3      	strh	r3, [r4, #12]
    6418:	f7fe ffe2 	bl	53e0 <__sfp_lock_release>
    641c:	4628      	mov	r0, r5
    641e:	bd70      	pop	{r4, r5, r6, pc}
    6420:	f7fe ffcc 	bl	53bc <__sinit>
    6424:	e7cb      	b.n	63be <_fclose_r+0xe>
    6426:	6921      	ldr	r1, [r4, #16]
    6428:	4630      	mov	r0, r6
    642a:	f7fe fc4d 	bl	4cc8 <_free_r>
    642e:	e7dd      	b.n	63ec <_fclose_r+0x3c>

00006430 <fclose>:
    6430:	4b02      	ldr	r3, [pc, #8]	@ (643c <fclose+0xc>)
    6432:	4601      	mov	r1, r0
    6434:	6818      	ldr	r0, [r3, #0]
    6436:	f7ff bfbb 	b.w	63b0 <_fclose_r>
    643a:	bf00      	nop
    643c:	20000000 	.word	0x20000000

00006440 <_wctomb_r>:
    6440:	b410      	push	{r4}
    6442:	4c03      	ldr	r4, [pc, #12]	@ (6450 <_wctomb_r+0x10>)
    6444:	f8d4 40e0 	ldr.w	r4, [r4, #224]	@ 0xe0
    6448:	46a4      	mov	ip, r4
    644a:	f85d 4b04 	ldr.w	r4, [sp], #4
    644e:	4760      	bx	ip
    6450:	20000544 	.word	0x20000544

00006454 <__ascii_wctomb>:
    6454:	b149      	cbz	r1, 646a <__ascii_wctomb+0x16>
    6456:	2aff      	cmp	r2, #255	@ 0xff
    6458:	d802      	bhi.n	6460 <__ascii_wctomb+0xc>
    645a:	700a      	strb	r2, [r1, #0]
    645c:	2001      	movs	r0, #1
    645e:	4770      	bx	lr
    6460:	238a      	movs	r3, #138	@ 0x8a
    6462:	6003      	str	r3, [r0, #0]
    6464:	f04f 30ff 	mov.w	r0, #4294967295	@ 0xffffffff
    6468:	4770      	bx	lr
    646a:	4608      	mov	r0, r1
    646c:	4770      	bx	lr
    646e:	bf00      	nop

00006470 <__sread>:
    6470:	b510      	push	{r4, lr}
    6472:	460c      	mov	r4, r1
    6474:	f9b1 100e 	ldrsh.w	r1, [r1, #14]
    6478:	f001 fa5e 	bl	7938 <_read_r>
    647c:	2800      	cmp	r0, #0
    647e:	db03      	blt.n	6488 <__sread+0x18>
    6480:	6d23      	ldr	r3, [r4, #80]	@ 0x50
    6482:	4403      	add	r3, r0
    6484:	6523      	str	r3, [r4, #80]	@ 0x50
    6486:	bd10      	pop	{r4, pc}
    6488:	89a3      	ldrh	r3, [r4, #12]
    648a:	f423 5380 	bic.w	r3, r3, #4096	@ 0x1000
    648e:	81a3      	strh	r3, [r4, #12]
    6490:	bd10      	pop	{r4, pc}
    6492:	bf00      	nop

00006494 <__seofread>:
    6494:	2000      	movs	r0, #0
    6496:	4770      	bx	lr

00006498 <__swrite>:
    6498:	e92d 41f0 	stmdb	sp!, {r4, r5, r6, r7, r8, lr}
    649c:	460c      	mov	r4, r1
    649e:	f9b1 100c 	ldrsh.w	r1, [r1, #12]
    64a2:	461f      	mov	r7, r3
    64a4:	05cb      	lsls	r3, r1, #23
    64a6:	4605      	mov	r5, r0
    64a8:	4616      	mov	r6, r2
    64aa:	d40b      	bmi.n	64c4 <__swrite+0x2c>
    64ac:	f421 5180 	bic.w	r1, r1, #4096	@ 0x1000
    64b0:	81a1      	strh	r1, [r4, #12]
    64b2:	463b      	mov	r3, r7
    64b4:	f9b4 100e 	ldrsh.w	r1, [r4, #14]
    64b8:	4632      	mov	r2, r6
    64ba:	4628      	mov	r0, r5
    64bc:	e8bd 41f0 	ldmia.w	sp!, {r4, r5, r6, r7, r8, lr}
    64c0:	f000 b9c2 	b.w	6848 <_write_r>
    64c4:	f9b4 100e 	ldrsh.w	r1, [r4, #14]
    64c8:	2302      	movs	r3, #2
    64ca:	2200      	movs	r2, #0
    64cc:	f001 faac 	bl	7a28 <_lseek_r>
    64d0:	f9b4 100c 	ldrsh.w	r1, [r4, #12]
    64d4:	e7ea      	b.n	64ac <__swrite+0x14>
    64d6:	bf00      	nop

000064d8 <__sseek>:
    64d8:	b510      	push	{r4, lr}
    64da:	460c      	mov	r4, r1
    64dc:	f9b1 100e 	ldrsh.w	r1, [r1, #14]
    64e0:	f001 faa2 	bl	7a28 <_lseek_r>
    64e4:	f9b4 300c 	ldrsh.w	r3, [r4, #12]
    64e8:	1c42      	adds	r2, r0, #1
    64ea:	bf0e      	itee	eq
    64ec:	f423 5380 	biceq.w	r3, r3, #4096	@ 0x1000
    64f0:	f443 5380 	orrne.w	r3, r3, #4096	@ 0x1000
    64f4:	6520      	strne	r0, [r4, #80]	@ 0x50
    64f6:	81a3      	strh	r3, [r4, #12]
    64f8:	bd10      	pop	{r4, pc}
    64fa:	bf00      	nop

000064fc <__sclose>:
    64fc:	f9b1 100e 	ldrsh.w	r1, [r1, #14]
    6500:	f000 b9b8 	b.w	6874 <_close_r>

00006504 <_realloc_r>:
    6504:	e92d 4ff8 	stmdb	sp!, {r3, r4, r5, r6, r7, r8, r9, sl, fp, lr}
    6508:	4616      	mov	r6, r2
    650a:	2900      	cmp	r1, #0
    650c:	f000 8096 	beq.w	663c <_realloc_r+0x138>
    6510:	460c      	mov	r4, r1
    6512:	4680      	mov	r8, r0
    6514:	f106 050b 	add.w	r5, r6, #11
    6518:	f7fb f856 	bl	15c8 <__malloc_lock>
    651c:	f854 1c04 	ldr.w	r1, [r4, #-4]
    6520:	2d16      	cmp	r5, #22
    6522:	f1a4 0908 	sub.w	r9, r4, #8
    6526:	f021 0703 	bic.w	r7, r1, #3
    652a:	d858      	bhi.n	65de <_realloc_r+0xda>
    652c:	2510      	movs	r5, #16
    652e:	42ae      	cmp	r6, r5
    6530:	d858      	bhi.n	65e4 <_realloc_r+0xe0>
    6532:	42af      	cmp	r7, r5
    6534:	da60      	bge.n	65f8 <_realloc_r+0xf4>
    6536:	4bbe      	ldr	r3, [pc, #760]	@ (6830 <_realloc_r+0x32c>)
    6538:	689a      	ldr	r2, [r3, #8]
    653a:	eb09 0c07 	add.w	ip, r9, r7
    653e:	4562      	cmp	r2, ip
    6540:	f8dc 0004 	ldr.w	r0, [ip, #4]
    6544:	f000 8090 	beq.w	6668 <_realloc_r+0x164>
    6548:	f020 0301 	bic.w	r3, r0, #1
    654c:	4463      	add	r3, ip
    654e:	685b      	ldr	r3, [r3, #4]
    6550:	07db      	lsls	r3, r3, #31
    6552:	d468      	bmi.n	6626 <_realloc_r+0x122>
    6554:	f020 0003 	bic.w	r0, r0, #3
    6558:	183b      	adds	r3, r7, r0
    655a:	429d      	cmp	r5, r3
    655c:	dd47      	ble.n	65ee <_realloc_r+0xea>
    655e:	07cb      	lsls	r3, r1, #31
    6560:	d412      	bmi.n	6588 <_realloc_r+0x84>
    6562:	f854 3c08 	ldr.w	r3, [r4, #-8]
    6566:	eba9 0b03 	sub.w	fp, r9, r3
    656a:	f8db 3004 	ldr.w	r3, [fp, #4]
    656e:	f023 0203 	bic.w	r2, r3, #3
    6572:	4410      	add	r0, r2
    6574:	eb00 0a07 	add.w	sl, r0, r7
    6578:	4555      	cmp	r5, sl
    657a:	f340 80f6 	ble.w	676a <_realloc_r+0x266>
    657e:	eb07 0a02 	add.w	sl, r7, r2
    6582:	4555      	cmp	r5, sl
    6584:	f340 80cc 	ble.w	6720 <_realloc_r+0x21c>
    6588:	4631      	mov	r1, r6
    658a:	4640      	mov	r0, r8
    658c:	f7fd f8be 	bl	370c <_malloc_r>
    6590:	4606      	mov	r6, r0
    6592:	2800      	cmp	r0, #0
    6594:	f000 8120 	beq.w	67d8 <_realloc_r+0x2d4>
    6598:	f854 3c04 	ldr.w	r3, [r4, #-4]
    659c:	f023 0301 	bic.w	r3, r3, #1
    65a0:	444b      	add	r3, r9
    65a2:	f1a0 0208 	sub.w	r2, r0, #8
    65a6:	4293      	cmp	r3, r2
    65a8:	f000 80b4 	beq.w	6714 <_realloc_r+0x210>
    65ac:	1f3a      	subs	r2, r7, #4
    65ae:	2a24      	cmp	r2, #36	@ 0x24
    65b0:	f200 80d7 	bhi.w	6762 <_realloc_r+0x25e>
    65b4:	2a13      	cmp	r2, #19
    65b6:	f200 80a2 	bhi.w	66fe <_realloc_r+0x1fa>
    65ba:	4603      	mov	r3, r0
    65bc:	4622      	mov	r2, r4
    65be:	6811      	ldr	r1, [r2, #0]
    65c0:	6019      	str	r1, [r3, #0]
    65c2:	6851      	ldr	r1, [r2, #4]
    65c4:	6059      	str	r1, [r3, #4]
    65c6:	6892      	ldr	r2, [r2, #8]
    65c8:	609a      	str	r2, [r3, #8]
    65ca:	4621      	mov	r1, r4
    65cc:	4640      	mov	r0, r8
    65ce:	f7fe fb7b 	bl	4cc8 <_free_r>
    65d2:	4640      	mov	r0, r8
    65d4:	f7fb f802 	bl	15dc <__malloc_unlock>
    65d8:	4630      	mov	r0, r6
    65da:	e8bd 8ff8 	ldmia.w	sp!, {r3, r4, r5, r6, r7, r8, r9, sl, fp, pc}
    65de:	f035 0507 	bics.w	r5, r5, #7
    65e2:	d5a4      	bpl.n	652e <_realloc_r+0x2a>
    65e4:	230c      	movs	r3, #12
    65e6:	f8c8 3000 	str.w	r3, [r8]
    65ea:	2600      	movs	r6, #0
    65ec:	e018      	b.n	6620 <_realloc_r+0x11c>
    65ee:	461f      	mov	r7, r3
    65f0:	e9dc 2302 	ldrd	r2, r3, [ip, #8]
    65f4:	60d3      	str	r3, [r2, #12]
    65f6:	609a      	str	r2, [r3, #8]
    65f8:	f8d9 3004 	ldr.w	r3, [r9, #4]
    65fc:	1b7a      	subs	r2, r7, r5
    65fe:	2a0f      	cmp	r2, #15
    6600:	f003 0301 	and.w	r3, r3, #1
    6604:	eb09 0007 	add.w	r0, r9, r7
    6608:	d81d      	bhi.n	6646 <_realloc_r+0x142>
    660a:	433b      	orrs	r3, r7
    660c:	f8c9 3004 	str.w	r3, [r9, #4]
    6610:	6843      	ldr	r3, [r0, #4]
    6612:	f043 0301 	orr.w	r3, r3, #1
    6616:	6043      	str	r3, [r0, #4]
    6618:	4640      	mov	r0, r8
    661a:	f7fa ffdf 	bl	15dc <__malloc_unlock>
    661e:	4626      	mov	r6, r4
    6620:	4630      	mov	r0, r6
    6622:	e8bd 8ff8 	ldmia.w	sp!, {r3, r4, r5, r6, r7, r8, r9, sl, fp, pc}
    6626:	07c9      	lsls	r1, r1, #31
    6628:	d4ae      	bmi.n	6588 <_realloc_r+0x84>
    662a:	f854 3c08 	ldr.w	r3, [r4, #-8]
    662e:	eba9 0b03 	sub.w	fp, r9, r3
    6632:	f8db 3004 	ldr.w	r3, [fp, #4]
    6636:	f023 0203 	bic.w	r2, r3, #3
    663a:	e7a0      	b.n	657e <_realloc_r+0x7a>
    663c:	e8bd 4ff8 	ldmia.w	sp!, {r3, r4, r5, r6, r7, r8, r9, sl, fp, lr}
    6640:	4611      	mov	r1, r2
    6642:	f7fd b863 	b.w	370c <_malloc_r>
    6646:	eb09 0105 	add.w	r1, r9, r5
    664a:	432b      	orrs	r3, r5
    664c:	f042 0201 	orr.w	r2, r2, #1
    6650:	f8c9 3004 	str.w	r3, [r9, #4]
    6654:	604a      	str	r2, [r1, #4]
    6656:	6843      	ldr	r3, [r0, #4]
    6658:	f043 0301 	orr.w	r3, r3, #1
    665c:	6043      	str	r3, [r0, #4]
    665e:	3108      	adds	r1, #8
    6660:	4640      	mov	r0, r8
    6662:	f7fe fb31 	bl	4cc8 <_free_r>
    6666:	e7d7      	b.n	6618 <_realloc_r+0x114>
    6668:	f020 0003 	bic.w	r0, r0, #3
    666c:	19c2      	adds	r2, r0, r7
    666e:	f105 0c10 	add.w	ip, r5, #16
    6672:	4562      	cmp	r2, ip
    6674:	f280 8091 	bge.w	679a <_realloc_r+0x296>
    6678:	07ca      	lsls	r2, r1, #31
    667a:	d485      	bmi.n	6588 <_realloc_r+0x84>
    667c:	f854 2c08 	ldr.w	r2, [r4, #-8]
    6680:	eba9 0b02 	sub.w	fp, r9, r2
    6684:	f8db 2004 	ldr.w	r2, [fp, #4]
    6688:	f022 0203 	bic.w	r2, r2, #3
    668c:	4410      	add	r0, r2
    668e:	eb00 0a07 	add.w	sl, r0, r7
    6692:	45d4      	cmp	ip, sl
    6694:	f73f af73 	bgt.w	657e <_realloc_r+0x7a>
    6698:	465e      	mov	r6, fp
    669a:	f8db 100c 	ldr.w	r1, [fp, #12]
    669e:	f856 0f08 	ldr.w	r0, [r6, #8]!
    66a2:	1f3a      	subs	r2, r7, #4
    66a4:	2a24      	cmp	r2, #36	@ 0x24
    66a6:	60c1      	str	r1, [r0, #12]
    66a8:	6088      	str	r0, [r1, #8]
    66aa:	f200 80ae 	bhi.w	680a <_realloc_r+0x306>
    66ae:	2a13      	cmp	r2, #19
    66b0:	f240 80a9 	bls.w	6806 <_realloc_r+0x302>
    66b4:	6821      	ldr	r1, [r4, #0]
    66b6:	f8cb 1008 	str.w	r1, [fp, #8]
    66ba:	6861      	ldr	r1, [r4, #4]
    66bc:	f8cb 100c 	str.w	r1, [fp, #12]
    66c0:	2a1b      	cmp	r2, #27
    66c2:	f200 80a8 	bhi.w	6816 <_realloc_r+0x312>
    66c6:	3408      	adds	r4, #8
    66c8:	f10b 0210 	add.w	r2, fp, #16
    66cc:	6821      	ldr	r1, [r4, #0]
    66ce:	6011      	str	r1, [r2, #0]
    66d0:	6861      	ldr	r1, [r4, #4]
    66d2:	6051      	str	r1, [r2, #4]
    66d4:	68a1      	ldr	r1, [r4, #8]
    66d6:	6091      	str	r1, [r2, #8]
    66d8:	eb0b 0105 	add.w	r1, fp, r5
    66dc:	ebaa 0205 	sub.w	r2, sl, r5
    66e0:	f042 0201 	orr.w	r2, r2, #1
    66e4:	6099      	str	r1, [r3, #8]
    66e6:	604a      	str	r2, [r1, #4]
    66e8:	f8db 3004 	ldr.w	r3, [fp, #4]
    66ec:	f003 0301 	and.w	r3, r3, #1
    66f0:	432b      	orrs	r3, r5
    66f2:	4640      	mov	r0, r8
    66f4:	f8cb 3004 	str.w	r3, [fp, #4]
    66f8:	f7fa ff70 	bl	15dc <__malloc_unlock>
    66fc:	e790      	b.n	6620 <_realloc_r+0x11c>
    66fe:	6823      	ldr	r3, [r4, #0]
    6700:	6003      	str	r3, [r0, #0]
    6702:	6863      	ldr	r3, [r4, #4]
    6704:	6043      	str	r3, [r0, #4]
    6706:	2a1b      	cmp	r2, #27
    6708:	d83c      	bhi.n	6784 <_realloc_r+0x280>
    670a:	f104 0208 	add.w	r2, r4, #8
    670e:	f100 0308 	add.w	r3, r0, #8
    6712:	e754      	b.n	65be <_realloc_r+0xba>
    6714:	f850 3c04 	ldr.w	r3, [r0, #-4]
    6718:	f023 0303 	bic.w	r3, r3, #3
    671c:	441f      	add	r7, r3
    671e:	e76b      	b.n	65f8 <_realloc_r+0xf4>
    6720:	1f3a      	subs	r2, r7, #4
    6722:	465e      	mov	r6, fp
    6724:	f8db 300c 	ldr.w	r3, [fp, #12]
    6728:	f856 1f08 	ldr.w	r1, [r6, #8]!
    672c:	2a24      	cmp	r2, #36	@ 0x24
    672e:	60cb      	str	r3, [r1, #12]
    6730:	6099      	str	r1, [r3, #8]
    6732:	d822      	bhi.n	677a <_realloc_r+0x276>
    6734:	2a13      	cmp	r2, #19
    6736:	d91e      	bls.n	6776 <_realloc_r+0x272>
    6738:	6823      	ldr	r3, [r4, #0]
    673a:	f8cb 3008 	str.w	r3, [fp, #8]
    673e:	6863      	ldr	r3, [r4, #4]
    6740:	f8cb 300c 	str.w	r3, [fp, #12]
    6744:	2a1b      	cmp	r2, #27
    6746:	d83b      	bhi.n	67c0 <_realloc_r+0x2bc>
    6748:	3408      	adds	r4, #8
    674a:	f10b 0310 	add.w	r3, fp, #16
    674e:	6822      	ldr	r2, [r4, #0]
    6750:	601a      	str	r2, [r3, #0]
    6752:	6862      	ldr	r2, [r4, #4]
    6754:	605a      	str	r2, [r3, #4]
    6756:	68a2      	ldr	r2, [r4, #8]
    6758:	609a      	str	r2, [r3, #8]
    675a:	4634      	mov	r4, r6
    675c:	4657      	mov	r7, sl
    675e:	46d9      	mov	r9, fp
    6760:	e74a      	b.n	65f8 <_realloc_r+0xf4>
    6762:	4621      	mov	r1, r4
    6764:	f000 fac6 	bl	6cf4 <memmove>
    6768:	e72f      	b.n	65ca <_realloc_r+0xc6>
    676a:	e9dc 1302 	ldrd	r1, r3, [ip, #8]
    676e:	1f3a      	subs	r2, r7, #4
    6770:	60cb      	str	r3, [r1, #12]
    6772:	6099      	str	r1, [r3, #8]
    6774:	e7d5      	b.n	6722 <_realloc_r+0x21e>
    6776:	4633      	mov	r3, r6
    6778:	e7e9      	b.n	674e <_realloc_r+0x24a>
    677a:	4621      	mov	r1, r4
    677c:	4630      	mov	r0, r6
    677e:	f000 fab9 	bl	6cf4 <memmove>
    6782:	e7ea      	b.n	675a <_realloc_r+0x256>
    6784:	68a3      	ldr	r3, [r4, #8]
    6786:	6083      	str	r3, [r0, #8]
    6788:	68e3      	ldr	r3, [r4, #12]
    678a:	60c3      	str	r3, [r0, #12]
    678c:	2a24      	cmp	r2, #36	@ 0x24
    678e:	d027      	beq.n	67e0 <_realloc_r+0x2dc>
    6790:	f104 0210 	add.w	r2, r4, #16
    6794:	f100 0310 	add.w	r3, r0, #16
    6798:	e711      	b.n	65be <_realloc_r+0xba>
    679a:	eb09 0105 	add.w	r1, r9, r5
    679e:	6099      	str	r1, [r3, #8]
    67a0:	1b53      	subs	r3, r2, r5
    67a2:	f043 0301 	orr.w	r3, r3, #1
    67a6:	604b      	str	r3, [r1, #4]
    67a8:	f854 3c04 	ldr.w	r3, [r4, #-4]
    67ac:	f003 0301 	and.w	r3, r3, #1
    67b0:	432b      	orrs	r3, r5
    67b2:	4640      	mov	r0, r8
    67b4:	f844 3c04 	str.w	r3, [r4, #-4]
    67b8:	f7fa ff10 	bl	15dc <__malloc_unlock>
    67bc:	4626      	mov	r6, r4
    67be:	e72f      	b.n	6620 <_realloc_r+0x11c>
    67c0:	68a3      	ldr	r3, [r4, #8]
    67c2:	f8cb 3010 	str.w	r3, [fp, #16]
    67c6:	68e3      	ldr	r3, [r4, #12]
    67c8:	f8cb 3014 	str.w	r3, [fp, #20]
    67cc:	2a24      	cmp	r2, #36	@ 0x24
    67ce:	d010      	beq.n	67f2 <_realloc_r+0x2ee>
    67d0:	3410      	adds	r4, #16
    67d2:	f10b 0318 	add.w	r3, fp, #24
    67d6:	e7ba      	b.n	674e <_realloc_r+0x24a>
    67d8:	4640      	mov	r0, r8
    67da:	f7fa feff 	bl	15dc <__malloc_unlock>
    67de:	e704      	b.n	65ea <_realloc_r+0xe6>
    67e0:	6923      	ldr	r3, [r4, #16]
    67e2:	6103      	str	r3, [r0, #16]
    67e4:	6961      	ldr	r1, [r4, #20]
    67e6:	6141      	str	r1, [r0, #20]
    67e8:	f104 0218 	add.w	r2, r4, #24
    67ec:	f100 0318 	add.w	r3, r0, #24
    67f0:	e6e5      	b.n	65be <_realloc_r+0xba>
    67f2:	6923      	ldr	r3, [r4, #16]
    67f4:	f8cb 3018 	str.w	r3, [fp, #24]
    67f8:	6963      	ldr	r3, [r4, #20]
    67fa:	f8cb 301c 	str.w	r3, [fp, #28]
    67fe:	3418      	adds	r4, #24
    6800:	f10b 0320 	add.w	r3, fp, #32
    6804:	e7a3      	b.n	674e <_realloc_r+0x24a>
    6806:	4632      	mov	r2, r6
    6808:	e760      	b.n	66cc <_realloc_r+0x1c8>
    680a:	4621      	mov	r1, r4
    680c:	4630      	mov	r0, r6
    680e:	f000 fa71 	bl	6cf4 <memmove>
    6812:	4b07      	ldr	r3, [pc, #28]	@ (6830 <_realloc_r+0x32c>)
    6814:	e760      	b.n	66d8 <_realloc_r+0x1d4>
    6816:	68a1      	ldr	r1, [r4, #8]
    6818:	f8cb 1010 	str.w	r1, [fp, #16]
    681c:	68e1      	ldr	r1, [r4, #12]
    681e:	f8cb 1014 	str.w	r1, [fp, #20]
    6822:	2a24      	cmp	r2, #36	@ 0x24
    6824:	d006      	beq.n	6834 <_realloc_r+0x330>
    6826:	3410      	adds	r4, #16
    6828:	f10b 0218 	add.w	r2, fp, #24
    682c:	e74e      	b.n	66cc <_realloc_r+0x1c8>
    682e:	bf00      	nop
    6830:	20000128 	.word	0x20000128
    6834:	6922      	ldr	r2, [r4, #16]
    6836:	f8cb 2018 	str.w	r2, [fp, #24]
    683a:	6962      	ldr	r2, [r4, #20]
    683c:	f8cb 201c 	str.w	r2, [fp, #28]
    6840:	3418      	adds	r4, #24
    6842:	f10b 0220 	add.w	r2, fp, #32
    6846:	e741      	b.n	66cc <_realloc_r+0x1c8>

00006848 <_write_r>:
    6848:	b538      	push	{r3, r4, r5, lr}
    684a:	460c      	mov	r4, r1
    684c:	4d08      	ldr	r5, [pc, #32]	@ (6870 <_write_r+0x28>)
    684e:	4684      	mov	ip, r0
    6850:	4611      	mov	r1, r2
    6852:	4620      	mov	r0, r4
    6854:	461a      	mov	r2, r3
    6856:	2300      	movs	r3, #0
    6858:	602b      	str	r3, [r5, #0]
    685a:	4664      	mov	r4, ip
    685c:	f7fa ffd2 	bl	1804 <_write>
    6860:	1c43      	adds	r3, r0, #1
    6862:	d000      	beq.n	6866 <_write_r+0x1e>
    6864:	bd38      	pop	{r3, r4, r5, pc}
    6866:	682b      	ldr	r3, [r5, #0]
    6868:	2b00      	cmp	r3, #0
    686a:	d0fb      	beq.n	6864 <_write_r+0x1c>
    686c:	6023      	str	r3, [r4, #0]
    686e:	bd38      	pop	{r3, r4, r5, pc}
    6870:	2000087c 	.word	0x2000087c

00006874 <_close_r>:
    6874:	b538      	push	{r3, r4, r5, lr}
    6876:	4d07      	ldr	r5, [pc, #28]	@ (6894 <_close_r+0x20>)
    6878:	2200      	movs	r2, #0
    687a:	4604      	mov	r4, r0
    687c:	4608      	mov	r0, r1
    687e:	602a      	str	r2, [r5, #0]
    6880:	f7fa ff78 	bl	1774 <_close>
    6884:	1c43      	adds	r3, r0, #1
    6886:	d000      	beq.n	688a <_close_r+0x16>
    6888:	bd38      	pop	{r3, r4, r5, pc}
    688a:	682b      	ldr	r3, [r5, #0]
    688c:	2b00      	cmp	r3, #0
    688e:	d0fb      	beq.n	6888 <_close_r+0x14>
    6890:	6023      	str	r3, [r4, #0]
    6892:	bd38      	pop	{r3, r4, r5, pc}
    6894:	2000087c 	.word	0x2000087c

00006898 <_init_signal_r>:
    6898:	b538      	push	{r3, r4, r5, lr}
    689a:	f8d0 4118 	ldr.w	r4, [r0, #280]	@ 0x118
    689e:	b10c      	cbz	r4, 68a4 <_init_signal_r+0xc>
    68a0:	2000      	movs	r0, #0
    68a2:	bd38      	pop	{r3, r4, r5, pc}
    68a4:	2180      	movs	r1, #128	@ 0x80
    68a6:	4605      	mov	r5, r0
    68a8:	f7fc ff30 	bl	370c <_malloc_r>
    68ac:	4602      	mov	r2, r0
    68ae:	f8c5 0118 	str.w	r0, [r5, #280]	@ 0x118
    68b2:	b130      	cbz	r0, 68c2 <_init_signal_r+0x2a>
    68b4:	1f03      	subs	r3, r0, #4
    68b6:	327c      	adds	r2, #124	@ 0x7c
    68b8:	f843 4f04 	str.w	r4, [r3, #4]!
    68bc:	4293      	cmp	r3, r2
    68be:	d1fb      	bne.n	68b8 <_init_signal_r+0x20>
    68c0:	e7ee      	b.n	68a0 <_init_signal_r+0x8>
    68c2:	f04f 30ff 	mov.w	r0, #4294967295	@ 0xffffffff
    68c6:	bd38      	pop	{r3, r4, r5, pc}

000068c8 <_signal_r>:
    68c8:	b530      	push	{r4, r5, lr}
    68ca:	291f      	cmp	r1, #31
    68cc:	b083      	sub	sp, #12
    68ce:	4605      	mov	r5, r0
    68d0:	d809      	bhi.n	68e6 <_signal_r+0x1e>
    68d2:	f8d0 3118 	ldr.w	r3, [r0, #280]	@ 0x118
    68d6:	460c      	mov	r4, r1
    68d8:	b153      	cbz	r3, 68f0 <_signal_r+0x28>
    68da:	f853 0024 	ldr.w	r0, [r3, r4, lsl #2]
    68de:	f843 2024 	str.w	r2, [r3, r4, lsl #2]
    68e2:	b003      	add	sp, #12
    68e4:	bd30      	pop	{r4, r5, pc}
    68e6:	2316      	movs	r3, #22
    68e8:	6003      	str	r3, [r0, #0]
    68ea:	f04f 30ff 	mov.w	r0, #4294967295	@ 0xffffffff
    68ee:	e7f8      	b.n	68e2 <_signal_r+0x1a>
    68f0:	2180      	movs	r1, #128	@ 0x80
    68f2:	9201      	str	r2, [sp, #4]
    68f4:	f7fc ff0a 	bl	370c <_malloc_r>
    68f8:	9a01      	ldr	r2, [sp, #4]
    68fa:	f8c5 0118 	str.w	r0, [r5, #280]	@ 0x118
    68fe:	4603      	mov	r3, r0
    6900:	2800      	cmp	r0, #0
    6902:	d0f2      	beq.n	68ea <_signal_r+0x22>
    6904:	1f01      	subs	r1, r0, #4
    6906:	f100 057c 	add.w	r5, r0, #124	@ 0x7c
    690a:	2000      	movs	r0, #0
    690c:	f841 0f04 	str.w	r0, [r1, #4]!
    6910:	42a9      	cmp	r1, r5
    6912:	d1fb      	bne.n	690c <_signal_r+0x44>
    6914:	e7e1      	b.n	68da <_signal_r+0x12>
    6916:	bf00      	nop

00006918 <_raise_r>:
    6918:	291f      	cmp	r1, #31
    691a:	b538      	push	{r3, r4, r5, lr}
    691c:	4605      	mov	r5, r0
    691e:	d81f      	bhi.n	6960 <_raise_r+0x48>
    6920:	f8d0 2118 	ldr.w	r2, [r0, #280]	@ 0x118
    6924:	460c      	mov	r4, r1
    6926:	b16a      	cbz	r2, 6944 <_raise_r+0x2c>
    6928:	f852 3021 	ldr.w	r3, [r2, r1, lsl #2]
    692c:	b153      	cbz	r3, 6944 <_raise_r+0x2c>
    692e:	2b01      	cmp	r3, #1
    6930:	d006      	beq.n	6940 <_raise_r+0x28>
    6932:	1c59      	adds	r1, r3, #1
    6934:	d010      	beq.n	6958 <_raise_r+0x40>
    6936:	2100      	movs	r1, #0
    6938:	f842 1024 	str.w	r1, [r2, r4, lsl #2]
    693c:	4620      	mov	r0, r4
    693e:	4798      	blx	r3
    6940:	2000      	movs	r0, #0
    6942:	bd38      	pop	{r3, r4, r5, pc}
    6944:	4628      	mov	r0, r5
    6946:	f000 f8fd 	bl	6b44 <_getpid_r>
    694a:	4622      	mov	r2, r4
    694c:	4601      	mov	r1, r0
    694e:	4628      	mov	r0, r5
    6950:	e8bd 4038 	ldmia.w	sp!, {r3, r4, r5, lr}
    6954:	f000 b8e0 	b.w	6b18 <_kill_r>
    6958:	2316      	movs	r3, #22
    695a:	6003      	str	r3, [r0, #0]
    695c:	2001      	movs	r0, #1
    695e:	bd38      	pop	{r3, r4, r5, pc}
    6960:	2316      	movs	r3, #22
    6962:	6003      	str	r3, [r0, #0]
    6964:	f04f 30ff 	mov.w	r0, #4294967295	@ 0xffffffff
    6968:	bd38      	pop	{r3, r4, r5, pc}
    696a:	bf00      	nop

0000696c <__sigtramp_r>:
    696c:	291f      	cmp	r1, #31
    696e:	d82c      	bhi.n	69ca <__sigtramp_r+0x5e>
    6970:	b538      	push	{r3, r4, r5, lr}
    6972:	f8d0 3118 	ldr.w	r3, [r0, #280]	@ 0x118
    6976:	460c      	mov	r4, r1
    6978:	4605      	mov	r5, r0
    697a:	b1a3      	cbz	r3, 69a6 <__sigtramp_r+0x3a>
    697c:	f853 2024 	ldr.w	r2, [r3, r4, lsl #2]
    6980:	eb03 0384 	add.w	r3, r3, r4, lsl #2
    6984:	b14a      	cbz	r2, 699a <__sigtramp_r+0x2e>
    6986:	1c51      	adds	r1, r2, #1
    6988:	d00b      	beq.n	69a2 <__sigtramp_r+0x36>
    698a:	2a01      	cmp	r2, #1
    698c:	d007      	beq.n	699e <__sigtramp_r+0x32>
    698e:	2500      	movs	r5, #0
    6990:	4620      	mov	r0, r4
    6992:	601d      	str	r5, [r3, #0]
    6994:	4790      	blx	r2
    6996:	4628      	mov	r0, r5
    6998:	bd38      	pop	{r3, r4, r5, pc}
    699a:	2001      	movs	r0, #1
    699c:	bd38      	pop	{r3, r4, r5, pc}
    699e:	2003      	movs	r0, #3
    69a0:	bd38      	pop	{r3, r4, r5, pc}
    69a2:	2002      	movs	r0, #2
    69a4:	bd38      	pop	{r3, r4, r5, pc}
    69a6:	2180      	movs	r1, #128	@ 0x80
    69a8:	f7fc feb0 	bl	370c <_malloc_r>
    69ac:	4603      	mov	r3, r0
    69ae:	f8c5 0118 	str.w	r0, [r5, #280]	@ 0x118
    69b2:	b138      	cbz	r0, 69c4 <__sigtramp_r+0x58>
    69b4:	1f02      	subs	r2, r0, #4
    69b6:	2100      	movs	r1, #0
    69b8:	307c      	adds	r0, #124	@ 0x7c
    69ba:	f842 1f04 	str.w	r1, [r2, #4]!
    69be:	4282      	cmp	r2, r0
    69c0:	d1fb      	bne.n	69ba <__sigtramp_r+0x4e>
    69c2:	e7db      	b.n	697c <__sigtramp_r+0x10>
    69c4:	f04f 30ff 	mov.w	r0, #4294967295	@ 0xffffffff
    69c8:	bd38      	pop	{r3, r4, r5, pc}
    69ca:	f04f 30ff 	mov.w	r0, #4294967295	@ 0xffffffff
    69ce:	4770      	bx	lr

000069d0 <raise>:
    69d0:	b538      	push	{r3, r4, r5, lr}
    69d2:	4b14      	ldr	r3, [pc, #80]	@ (6a24 <raise+0x54>)
    69d4:	281f      	cmp	r0, #31
    69d6:	681d      	ldr	r5, [r3, #0]
    69d8:	d81e      	bhi.n	6a18 <raise+0x48>
    69da:	f8d5 2118 	ldr.w	r2, [r5, #280]	@ 0x118
    69de:	4604      	mov	r4, r0
    69e0:	b162      	cbz	r2, 69fc <raise+0x2c>
    69e2:	f852 3020 	ldr.w	r3, [r2, r0, lsl #2]
    69e6:	b14b      	cbz	r3, 69fc <raise+0x2c>
    69e8:	2b01      	cmp	r3, #1
    69ea:	d005      	beq.n	69f8 <raise+0x28>
    69ec:	1c59      	adds	r1, r3, #1
    69ee:	d00f      	beq.n	6a10 <raise+0x40>
    69f0:	2100      	movs	r1, #0
    69f2:	f842 1020 	str.w	r1, [r2, r0, lsl #2]
    69f6:	4798      	blx	r3
    69f8:	2000      	movs	r0, #0
    69fa:	bd38      	pop	{r3, r4, r5, pc}
    69fc:	4628      	mov	r0, r5
    69fe:	f000 f8a1 	bl	6b44 <_getpid_r>
    6a02:	4622      	mov	r2, r4
    6a04:	4601      	mov	r1, r0
    6a06:	4628      	mov	r0, r5
    6a08:	e8bd 4038 	ldmia.w	sp!, {r3, r4, r5, lr}
    6a0c:	f000 b884 	b.w	6b18 <_kill_r>
    6a10:	2316      	movs	r3, #22
    6a12:	602b      	str	r3, [r5, #0]
    6a14:	2001      	movs	r0, #1
    6a16:	bd38      	pop	{r3, r4, r5, pc}
    6a18:	2316      	movs	r3, #22
    6a1a:	602b      	str	r3, [r5, #0]
    6a1c:	f04f 30ff 	mov.w	r0, #4294967295	@ 0xffffffff
    6a20:	bd38      	pop	{r3, r4, r5, pc}
    6a22:	bf00      	nop
    6a24:	20000000 	.word	0x20000000

00006a28 <signal>:
    6a28:	4b12      	ldr	r3, [pc, #72]	@ (6a74 <signal+0x4c>)
    6a2a:	281f      	cmp	r0, #31
    6a2c:	b570      	push	{r4, r5, r6, lr}
    6a2e:	681e      	ldr	r6, [r3, #0]
    6a30:	d809      	bhi.n	6a46 <signal+0x1e>
    6a32:	f8d6 3118 	ldr.w	r3, [r6, #280]	@ 0x118
    6a36:	4604      	mov	r4, r0
    6a38:	460d      	mov	r5, r1
    6a3a:	b14b      	cbz	r3, 6a50 <signal+0x28>
    6a3c:	f853 0024 	ldr.w	r0, [r3, r4, lsl #2]
    6a40:	f843 5024 	str.w	r5, [r3, r4, lsl #2]
    6a44:	bd70      	pop	{r4, r5, r6, pc}
    6a46:	2316      	movs	r3, #22
    6a48:	6033      	str	r3, [r6, #0]
    6a4a:	f04f 30ff 	mov.w	r0, #4294967295	@ 0xffffffff
    6a4e:	bd70      	pop	{r4, r5, r6, pc}
    6a50:	2180      	movs	r1, #128	@ 0x80
    6a52:	4630      	mov	r0, r6
    6a54:	f7fc fe5a 	bl	370c <_malloc_r>
    6a58:	4603      	mov	r3, r0
    6a5a:	f8c6 0118 	str.w	r0, [r6, #280]	@ 0x118
    6a5e:	2800      	cmp	r0, #0
    6a60:	d0f3      	beq.n	6a4a <signal+0x22>
    6a62:	1f02      	subs	r2, r0, #4
    6a64:	2100      	movs	r1, #0
    6a66:	307c      	adds	r0, #124	@ 0x7c
    6a68:	f842 1f04 	str.w	r1, [r2, #4]!
    6a6c:	4282      	cmp	r2, r0
    6a6e:	d1fb      	bne.n	6a68 <signal+0x40>
    6a70:	e7e4      	b.n	6a3c <signal+0x14>
    6a72:	bf00      	nop
    6a74:	20000000 	.word	0x20000000

00006a78 <_init_signal>:
    6a78:	b538      	push	{r3, r4, r5, lr}
    6a7a:	4b0c      	ldr	r3, [pc, #48]	@ (6aac <_init_signal+0x34>)
    6a7c:	681d      	ldr	r5, [r3, #0]
    6a7e:	f8d5 4118 	ldr.w	r4, [r5, #280]	@ 0x118
    6a82:	b10c      	cbz	r4, 6a88 <_init_signal+0x10>
    6a84:	2000      	movs	r0, #0
    6a86:	bd38      	pop	{r3, r4, r5, pc}
    6a88:	2180      	movs	r1, #128	@ 0x80
    6a8a:	4628      	mov	r0, r5
    6a8c:	f7fc fe3e 	bl	370c <_malloc_r>
    6a90:	f8c5 0118 	str.w	r0, [r5, #280]	@ 0x118
    6a94:	b138      	cbz	r0, 6aa6 <_init_signal+0x2e>
    6a96:	1f03      	subs	r3, r0, #4
    6a98:	f100 027c 	add.w	r2, r0, #124	@ 0x7c
    6a9c:	f843 4f04 	str.w	r4, [r3, #4]!
    6aa0:	4293      	cmp	r3, r2
    6aa2:	d1fb      	bne.n	6a9c <_init_signal+0x24>
    6aa4:	e7ee      	b.n	6a84 <_init_signal+0xc>
    6aa6:	f04f 30ff 	mov.w	r0, #4294967295	@ 0xffffffff
    6aaa:	bd38      	pop	{r3, r4, r5, pc}
    6aac:	20000000 	.word	0x20000000

00006ab0 <__sigtramp>:
    6ab0:	b538      	push	{r3, r4, r5, lr}
    6ab2:	4b18      	ldr	r3, [pc, #96]	@ (6b14 <__sigtramp+0x64>)
    6ab4:	281f      	cmp	r0, #31
    6ab6:	681d      	ldr	r5, [r3, #0]
    6ab8:	d828      	bhi.n	6b0c <__sigtramp+0x5c>
    6aba:	4604      	mov	r4, r0
    6abc:	f8d5 0118 	ldr.w	r0, [r5, #280]	@ 0x118
    6ac0:	b1a0      	cbz	r0, 6aec <__sigtramp+0x3c>
    6ac2:	f850 3024 	ldr.w	r3, [r0, r4, lsl #2]
    6ac6:	eb00 0084 	add.w	r0, r0, r4, lsl #2
    6aca:	b14b      	cbz	r3, 6ae0 <__sigtramp+0x30>
    6acc:	1c5a      	adds	r2, r3, #1
    6ace:	d00b      	beq.n	6ae8 <__sigtramp+0x38>
    6ad0:	2b01      	cmp	r3, #1
    6ad2:	d007      	beq.n	6ae4 <__sigtramp+0x34>
    6ad4:	2500      	movs	r5, #0
    6ad6:	6005      	str	r5, [r0, #0]
    6ad8:	4620      	mov	r0, r4
    6ada:	4798      	blx	r3
    6adc:	4628      	mov	r0, r5
    6ade:	bd38      	pop	{r3, r4, r5, pc}
    6ae0:	2001      	movs	r0, #1
    6ae2:	bd38      	pop	{r3, r4, r5, pc}
    6ae4:	2003      	movs	r0, #3
    6ae6:	bd38      	pop	{r3, r4, r5, pc}
    6ae8:	2002      	movs	r0, #2
    6aea:	bd38      	pop	{r3, r4, r5, pc}
    6aec:	2180      	movs	r1, #128	@ 0x80
    6aee:	4628      	mov	r0, r5
    6af0:	f7fc fe0c 	bl	370c <_malloc_r>
    6af4:	f8c5 0118 	str.w	r0, [r5, #280]	@ 0x118
    6af8:	b140      	cbz	r0, 6b0c <__sigtramp+0x5c>
    6afa:	1f03      	subs	r3, r0, #4
    6afc:	f100 017c 	add.w	r1, r0, #124	@ 0x7c
    6b00:	2200      	movs	r2, #0
    6b02:	f843 2f04 	str.w	r2, [r3, #4]!
    6b06:	428b      	cmp	r3, r1
    6b08:	d1fb      	bne.n	6b02 <__sigtramp+0x52>
    6b0a:	e7da      	b.n	6ac2 <__sigtramp+0x12>
    6b0c:	f04f 30ff 	mov.w	r0, #4294967295	@ 0xffffffff
    6b10:	bd38      	pop	{r3, r4, r5, pc}
    6b12:	bf00      	nop
    6b14:	20000000 	.word	0x20000000

00006b18 <_kill_r>:
    6b18:	b570      	push	{r4, r5, r6, lr}
    6b1a:	460c      	mov	r4, r1
    6b1c:	4d08      	ldr	r5, [pc, #32]	@ (6b40 <_kill_r+0x28>)
    6b1e:	4603      	mov	r3, r0
    6b20:	2600      	movs	r6, #0
    6b22:	4620      	mov	r0, r4
    6b24:	4611      	mov	r1, r2
    6b26:	461c      	mov	r4, r3
    6b28:	602e      	str	r6, [r5, #0]
    6b2a:	f7fa fe82 	bl	1832 <_kill>
    6b2e:	1c43      	adds	r3, r0, #1
    6b30:	d000      	beq.n	6b34 <_kill_r+0x1c>
    6b32:	bd70      	pop	{r4, r5, r6, pc}
    6b34:	682b      	ldr	r3, [r5, #0]
    6b36:	2b00      	cmp	r3, #0
    6b38:	d0fb      	beq.n	6b32 <_kill_r+0x1a>
    6b3a:	6023      	str	r3, [r4, #0]
    6b3c:	bd70      	pop	{r4, r5, r6, pc}
    6b3e:	bf00      	nop
    6b40:	2000087c 	.word	0x2000087c

00006b44 <_getpid_r>:
    6b44:	f7fa be85 	b.w	1852 <_getpid>

00006b48 <__sflush_r>:
    6b48:	f9b1 200c 	ldrsh.w	r2, [r1, #12]
    6b4c:	e92d 41f0 	stmdb	sp!, {r4, r5, r6, r7, r8, lr}
    6b50:	0716      	lsls	r6, r2, #28
    6b52:	460c      	mov	r4, r1
    6b54:	4680      	mov	r8, r0
    6b56:	d44e      	bmi.n	6bf6 <__sflush_r+0xae>
    6b58:	6849      	ldr	r1, [r1, #4]
    6b5a:	f442 6300 	orr.w	r3, r2, #2048	@ 0x800
    6b5e:	2900      	cmp	r1, #0
    6b60:	81a3      	strh	r3, [r4, #12]
    6b62:	dd63      	ble.n	6c2c <__sflush_r+0xe4>
    6b64:	6aa5      	ldr	r5, [r4, #40]	@ 0x28
    6b66:	2d00      	cmp	r5, #0
    6b68:	d042      	beq.n	6bf0 <__sflush_r+0xa8>
    6b6a:	2100      	movs	r1, #0
    6b6c:	f412 5280 	ands.w	r2, r2, #4096	@ 0x1000
    6b70:	f8d8 6000 	ldr.w	r6, [r8]
    6b74:	f8c8 1000 	str.w	r1, [r8]
    6b78:	69e1      	ldr	r1, [r4, #28]
    6b7a:	d164      	bne.n	6c46 <__sflush_r+0xfe>
    6b7c:	2301      	movs	r3, #1
    6b7e:	4640      	mov	r0, r8
    6b80:	47a8      	blx	r5
    6b82:	1c45      	adds	r5, r0, #1
    6b84:	4602      	mov	r2, r0
    6b86:	d06e      	beq.n	6c66 <__sflush_r+0x11e>
    6b88:	f9b4 300c 	ldrsh.w	r3, [r4, #12]
    6b8c:	6aa5      	ldr	r5, [r4, #40]	@ 0x28
    6b8e:	69e1      	ldr	r1, [r4, #28]
    6b90:	0758      	lsls	r0, r3, #29
    6b92:	d505      	bpl.n	6ba0 <__sflush_r+0x58>
    6b94:	6863      	ldr	r3, [r4, #4]
    6b96:	1ad2      	subs	r2, r2, r3
    6b98:	6b23      	ldr	r3, [r4, #48]	@ 0x30
    6b9a:	b10b      	cbz	r3, 6ba0 <__sflush_r+0x58>
    6b9c:	6be3      	ldr	r3, [r4, #60]	@ 0x3c
    6b9e:	1ad2      	subs	r2, r2, r3
    6ba0:	2300      	movs	r3, #0
    6ba2:	4640      	mov	r0, r8
    6ba4:	47a8      	blx	r5
    6ba6:	1c43      	adds	r3, r0, #1
    6ba8:	d14f      	bne.n	6c4a <__sflush_r+0x102>
    6baa:	f8d8 1000 	ldr.w	r1, [r8]
    6bae:	f9b4 300c 	ldrsh.w	r3, [r4, #12]
    6bb2:	291d      	cmp	r1, #29
    6bb4:	d840      	bhi.n	6c38 <__sflush_r+0xf0>
    6bb6:	4a31      	ldr	r2, [pc, #196]	@ (6c7c <__sflush_r+0x134>)
    6bb8:	40ca      	lsrs	r2, r1
    6bba:	07d7      	lsls	r7, r2, #31
    6bbc:	d53c      	bpl.n	6c38 <__sflush_r+0xf0>
    6bbe:	6922      	ldr	r2, [r4, #16]
    6bc0:	6022      	str	r2, [r4, #0]
    6bc2:	f423 6200 	bic.w	r2, r3, #2048	@ 0x800
    6bc6:	81a2      	strh	r2, [r4, #12]
    6bc8:	04dd      	lsls	r5, r3, #19
    6bca:	f04f 0200 	mov.w	r2, #0
    6bce:	6062      	str	r2, [r4, #4]
    6bd0:	d501      	bpl.n	6bd6 <__sflush_r+0x8e>
    6bd2:	2900      	cmp	r1, #0
    6bd4:	d045      	beq.n	6c62 <__sflush_r+0x11a>
    6bd6:	6b21      	ldr	r1, [r4, #48]	@ 0x30
    6bd8:	f8c8 6000 	str.w	r6, [r8]
    6bdc:	b141      	cbz	r1, 6bf0 <__sflush_r+0xa8>
    6bde:	f104 0340 	add.w	r3, r4, #64	@ 0x40
    6be2:	4299      	cmp	r1, r3
    6be4:	d002      	beq.n	6bec <__sflush_r+0xa4>
    6be6:	4640      	mov	r0, r8
    6be8:	f7fe f86e 	bl	4cc8 <_free_r>
    6bec:	2300      	movs	r3, #0
    6bee:	6323      	str	r3, [r4, #48]	@ 0x30
    6bf0:	2000      	movs	r0, #0
    6bf2:	e8bd 81f0 	ldmia.w	sp!, {r4, r5, r6, r7, r8, pc}
    6bf6:	690e      	ldr	r6, [r1, #16]
    6bf8:	2e00      	cmp	r6, #0
    6bfa:	d0f9      	beq.n	6bf0 <__sflush_r+0xa8>
    6bfc:	680d      	ldr	r5, [r1, #0]
    6bfe:	600e      	str	r6, [r1, #0]
    6c00:	0792      	lsls	r2, r2, #30
    6c02:	bf0c      	ite	eq
    6c04:	694b      	ldreq	r3, [r1, #20]
    6c06:	2300      	movne	r3, #0
    6c08:	1bad      	subs	r5, r5, r6
    6c0a:	608b      	str	r3, [r1, #8]
    6c0c:	e00b      	b.n	6c26 <__sflush_r+0xde>
    6c0e:	462b      	mov	r3, r5
    6c10:	4632      	mov	r2, r6
    6c12:	69e1      	ldr	r1, [r4, #28]
    6c14:	6a67      	ldr	r7, [r4, #36]	@ 0x24
    6c16:	4640      	mov	r0, r8
    6c18:	47b8      	blx	r7
    6c1a:	f1b0 0c00 	subs.w	ip, r0, #0
    6c1e:	eba5 050c 	sub.w	r5, r5, ip
    6c22:	4466      	add	r6, ip
    6c24:	dd06      	ble.n	6c34 <__sflush_r+0xec>
    6c26:	2d00      	cmp	r5, #0
    6c28:	dcf1      	bgt.n	6c0e <__sflush_r+0xc6>
    6c2a:	e7e1      	b.n	6bf0 <__sflush_r+0xa8>
    6c2c:	6be1      	ldr	r1, [r4, #60]	@ 0x3c
    6c2e:	2900      	cmp	r1, #0
    6c30:	dc98      	bgt.n	6b64 <__sflush_r+0x1c>
    6c32:	e7dd      	b.n	6bf0 <__sflush_r+0xa8>
    6c34:	f9b4 300c 	ldrsh.w	r3, [r4, #12]
    6c38:	f043 0340 	orr.w	r3, r3, #64	@ 0x40
    6c3c:	81a3      	strh	r3, [r4, #12]
    6c3e:	f04f 30ff 	mov.w	r0, #4294967295	@ 0xffffffff
    6c42:	e8bd 81f0 	ldmia.w	sp!, {r4, r5, r6, r7, r8, pc}
    6c46:	6d22      	ldr	r2, [r4, #80]	@ 0x50
    6c48:	e7a2      	b.n	6b90 <__sflush_r+0x48>
    6c4a:	f9b4 300c 	ldrsh.w	r3, [r4, #12]
    6c4e:	6922      	ldr	r2, [r4, #16]
    6c50:	6022      	str	r2, [r4, #0]
    6c52:	f423 6200 	bic.w	r2, r3, #2048	@ 0x800
    6c56:	81a2      	strh	r2, [r4, #12]
    6c58:	04db      	lsls	r3, r3, #19
    6c5a:	f04f 0200 	mov.w	r2, #0
    6c5e:	6062      	str	r2, [r4, #4]
    6c60:	d5b9      	bpl.n	6bd6 <__sflush_r+0x8e>
    6c62:	6520      	str	r0, [r4, #80]	@ 0x50
    6c64:	e7b7      	b.n	6bd6 <__sflush_r+0x8e>
    6c66:	f8d8 3000 	ldr.w	r3, [r8]
    6c6a:	2b00      	cmp	r3, #0
    6c6c:	d08c      	beq.n	6b88 <__sflush_r+0x40>
    6c6e:	2b1d      	cmp	r3, #29
    6c70:	d001      	beq.n	6c76 <__sflush_r+0x12e>
    6c72:	2b16      	cmp	r3, #22
    6c74:	d1de      	bne.n	6c34 <__sflush_r+0xec>
    6c76:	f8c8 6000 	str.w	r6, [r8]
    6c7a:	e7b9      	b.n	6bf0 <__sflush_r+0xa8>
    6c7c:	20400001 	.word	0x20400001

00006c80 <_fflush_r>:
    6c80:	b510      	push	{r4, lr}
    6c82:	4604      	mov	r4, r0
    6c84:	b082      	sub	sp, #8
    6c86:	b108      	cbz	r0, 6c8c <_fflush_r+0xc>
    6c88:	6b43      	ldr	r3, [r0, #52]	@ 0x34
    6c8a:	b153      	cbz	r3, 6ca2 <_fflush_r+0x22>
    6c8c:	f9b1 000c 	ldrsh.w	r0, [r1, #12]
    6c90:	b908      	cbnz	r0, 6c96 <_fflush_r+0x16>
    6c92:	b002      	add	sp, #8
    6c94:	bd10      	pop	{r4, pc}
    6c96:	4620      	mov	r0, r4
    6c98:	b002      	add	sp, #8
    6c9a:	e8bd 4010 	ldmia.w	sp!, {r4, lr}
    6c9e:	f7ff bf53 	b.w	6b48 <__sflush_r>
    6ca2:	9101      	str	r1, [sp, #4]
    6ca4:	f7fe fb8a 	bl	53bc <__sinit>
    6ca8:	9901      	ldr	r1, [sp, #4]
    6caa:	e7ef      	b.n	6c8c <_fflush_r+0xc>

00006cac <fflush>:
    6cac:	b1a0      	cbz	r0, 6cd8 <fflush+0x2c>
    6cae:	b538      	push	{r3, r4, r5, lr}
    6cb0:	4b0c      	ldr	r3, [pc, #48]	@ (6ce4 <fflush+0x38>)
    6cb2:	681d      	ldr	r5, [r3, #0]
    6cb4:	4604      	mov	r4, r0
    6cb6:	b10d      	cbz	r5, 6cbc <fflush+0x10>
    6cb8:	6b6b      	ldr	r3, [r5, #52]	@ 0x34
    6cba:	b14b      	cbz	r3, 6cd0 <fflush+0x24>
    6cbc:	f9b4 000c 	ldrsh.w	r0, [r4, #12]
    6cc0:	b900      	cbnz	r0, 6cc4 <fflush+0x18>
    6cc2:	bd38      	pop	{r3, r4, r5, pc}
    6cc4:	4621      	mov	r1, r4
    6cc6:	4628      	mov	r0, r5
    6cc8:	e8bd 4038 	ldmia.w	sp!, {r3, r4, r5, lr}
    6ccc:	f7ff bf3c 	b.w	6b48 <__sflush_r>
    6cd0:	4628      	mov	r0, r5
    6cd2:	f7fe fb73 	bl	53bc <__sinit>
    6cd6:	e7f1      	b.n	6cbc <fflush+0x10>
    6cd8:	4a03      	ldr	r2, [pc, #12]	@ (6ce8 <fflush+0x3c>)
    6cda:	4904      	ldr	r1, [pc, #16]	@ (6cec <fflush+0x40>)
    6cdc:	4804      	ldr	r0, [pc, #16]	@ (6cf0 <fflush+0x44>)
    6cde:	f7ff ba05 	b.w	60ec <_fwalk_sglue>
    6ce2:	bf00      	nop
    6ce4:	20000000 	.word	0x20000000
    6ce8:	20000538 	.word	0x20000538
    6cec:	00006c81 	.word	0x00006c81
    6cf0:	20000008 	.word	0x20000008

00006cf4 <memmove>:
    6cf4:	4288      	cmp	r0, r1
    6cf6:	d90e      	bls.n	6d16 <memmove+0x22>
    6cf8:	188b      	adds	r3, r1, r2
    6cfa:	4283      	cmp	r3, r0
    6cfc:	d90b      	bls.n	6d16 <memmove+0x22>
    6cfe:	eb00 0c02 	add.w	ip, r0, r2
    6d02:	2a00      	cmp	r2, #0
    6d04:	d06e      	beq.n	6de4 <memmove+0xf0>
    6d06:	4662      	mov	r2, ip
    6d08:	f813 cd01 	ldrb.w	ip, [r3, #-1]!
    6d0c:	f802 cd01 	strb.w	ip, [r2, #-1]!
    6d10:	4299      	cmp	r1, r3
    6d12:	d1f9      	bne.n	6d08 <memmove+0x14>
    6d14:	4770      	bx	lr
    6d16:	2a0f      	cmp	r2, #15
    6d18:	d80f      	bhi.n	6d3a <memmove+0x46>
    6d1a:	4603      	mov	r3, r0
    6d1c:	f102 3cff 	add.w	ip, r2, #4294967295	@ 0xffffffff
    6d20:	2a00      	cmp	r2, #0
    6d22:	d05f      	beq.n	6de4 <memmove+0xf0>
    6d24:	f10c 0c01 	add.w	ip, ip, #1
    6d28:	3b01      	subs	r3, #1
    6d2a:	448c      	add	ip, r1
    6d2c:	f811 2b01 	ldrb.w	r2, [r1], #1
    6d30:	f803 2f01 	strb.w	r2, [r3, #1]!
    6d34:	4561      	cmp	r1, ip
    6d36:	d1f9      	bne.n	6d2c <memmove+0x38>
    6d38:	4770      	bx	lr
    6d3a:	ea40 0301 	orr.w	r3, r0, r1
    6d3e:	079b      	lsls	r3, r3, #30
    6d40:	d151      	bne.n	6de6 <memmove+0xf2>
    6d42:	f1a2 0310 	sub.w	r3, r2, #16
    6d46:	b570      	push	{r4, r5, r6, lr}
    6d48:	f101 0c20 	add.w	ip, r1, #32
    6d4c:	f023 050f 	bic.w	r5, r3, #15
    6d50:	f101 0e10 	add.w	lr, r1, #16
    6d54:	f100 0410 	add.w	r4, r0, #16
    6d58:	44ac      	add	ip, r5
    6d5a:	091b      	lsrs	r3, r3, #4
    6d5c:	f85e 5c10 	ldr.w	r5, [lr, #-16]
    6d60:	f844 5c10 	str.w	r5, [r4, #-16]
    6d64:	f85e 5c0c 	ldr.w	r5, [lr, #-12]
    6d68:	f844 5c0c 	str.w	r5, [r4, #-12]
    6d6c:	f85e 5c08 	ldr.w	r5, [lr, #-8]
    6d70:	f844 5c08 	str.w	r5, [r4, #-8]
    6d74:	f85e 5c04 	ldr.w	r5, [lr, #-4]
    6d78:	f844 5c04 	str.w	r5, [r4, #-4]
    6d7c:	f10e 0e10 	add.w	lr, lr, #16
    6d80:	45e6      	cmp	lr, ip
    6d82:	f104 0410 	add.w	r4, r4, #16
    6d86:	d1e9      	bne.n	6d5c <memmove+0x68>
    6d88:	3301      	adds	r3, #1
    6d8a:	f012 0f0c 	tst.w	r2, #12
    6d8e:	eb01 1103 	add.w	r1, r1, r3, lsl #4
    6d92:	f002 040f 	and.w	r4, r2, #15
    6d96:	eb00 1303 	add.w	r3, r0, r3, lsl #4
    6d9a:	d028      	beq.n	6dee <memmove+0xfa>
    6d9c:	3c04      	subs	r4, #4
    6d9e:	f024 0603 	bic.w	r6, r4, #3
    6da2:	ea4f 0c94 	mov.w	ip, r4, lsr #2
    6da6:	441e      	add	r6, r3
    6da8:	1f1c      	subs	r4, r3, #4
    6daa:	468e      	mov	lr, r1
    6dac:	f85e 5b04 	ldr.w	r5, [lr], #4
    6db0:	f844 5f04 	str.w	r5, [r4, #4]!
    6db4:	42b4      	cmp	r4, r6
    6db6:	d1f9      	bne.n	6dac <memmove+0xb8>
    6db8:	f10c 0401 	add.w	r4, ip, #1
    6dbc:	f002 0203 	and.w	r2, r2, #3
    6dc0:	eb03 0384 	add.w	r3, r3, r4, lsl #2
    6dc4:	eb01 0184 	add.w	r1, r1, r4, lsl #2
    6dc8:	f102 3cff 	add.w	ip, r2, #4294967295	@ 0xffffffff
    6dcc:	b14a      	cbz	r2, 6de2 <memmove+0xee>
    6dce:	f10c 0c01 	add.w	ip, ip, #1
    6dd2:	3b01      	subs	r3, #1
    6dd4:	448c      	add	ip, r1
    6dd6:	f811 2b01 	ldrb.w	r2, [r1], #1
    6dda:	f803 2f01 	strb.w	r2, [r3, #1]!
    6dde:	4561      	cmp	r1, ip
    6de0:	d1f9      	bne.n	6dd6 <memmove+0xe2>
    6de2:	bd70      	pop	{r4, r5, r6, pc}
    6de4:	4770      	bx	lr
    6de6:	f102 3cff 	add.w	ip, r2, #4294967295	@ 0xffffffff
    6dea:	4603      	mov	r3, r0
    6dec:	e79a      	b.n	6d24 <memmove+0x30>
    6dee:	4622      	mov	r2, r4
    6df0:	e7ea      	b.n	6dc8 <memmove+0xd4>
    6df2:	bf00      	nop

00006df4 <_vfiprintf_r>:
    6df4:	e92d 4ff0 	stmdb	sp!, {r4, r5, r6, r7, r8, r9, sl, fp, lr}
    6df8:	b0ad      	sub	sp, #180	@ 0xb4
    6dfa:	e9cd 3007 	strd	r3, r0, [sp, #28]
    6dfe:	461c      	mov	r4, r3
    6e00:	9102      	str	r1, [sp, #8]
    6e02:	4693      	mov	fp, r2
    6e04:	b118      	cbz	r0, 6e0e <_vfiprintf_r+0x1a>
    6e06:	6b43      	ldr	r3, [r0, #52]	@ 0x34
    6e08:	2b00      	cmp	r3, #0
    6e0a:	f000 8503 	beq.w	7814 <_vfiprintf_r+0xa20>
    6e0e:	9902      	ldr	r1, [sp, #8]
    6e10:	f9b1 200c 	ldrsh.w	r2, [r1, #12]
    6e14:	6e4b      	ldr	r3, [r1, #100]	@ 0x64
    6e16:	0495      	lsls	r5, r2, #18
    6e18:	d405      	bmi.n	6e26 <_vfiprintf_r+0x32>
    6e1a:	f442 5200 	orr.w	r2, r2, #8192	@ 0x2000
    6e1e:	f423 5300 	bic.w	r3, r3, #8192	@ 0x2000
    6e22:	818a      	strh	r2, [r1, #12]
    6e24:	664b      	str	r3, [r1, #100]	@ 0x64
    6e26:	0498      	lsls	r0, r3, #18
    6e28:	f100 8524 	bmi.w	7874 <_vfiprintf_r+0xa80>
    6e2c:	9b02      	ldr	r3, [sp, #8]
    6e2e:	f9b3 200c 	ldrsh.w	r2, [r3, #12]
    6e32:	0711      	lsls	r1, r2, #28
    6e34:	f140 80d3 	bpl.w	6fde <_vfiprintf_r+0x1ea>
    6e38:	691b      	ldr	r3, [r3, #16]
    6e3a:	2b00      	cmp	r3, #0
    6e3c:	f000 80cf 	beq.w	6fde <_vfiprintf_r+0x1ea>
    6e40:	f002 021a 	and.w	r2, r2, #26
    6e44:	2a0a      	cmp	r2, #10
    6e46:	f000 80d9 	beq.w	6ffc <_vfiprintf_r+0x208>
    6e4a:	2300      	movs	r3, #0
    6e4c:	e9cd 3310 	strd	r3, r3, [sp, #64]	@ 0x40
    6e50:	f10d 0970 	add.w	r9, sp, #112	@ 0x70
    6e54:	f8cd 903c 	str.w	r9, [sp, #60]	@ 0x3c
    6e58:	9309      	str	r3, [sp, #36]	@ 0x24
    6e5a:	46ca      	mov	sl, r9
    6e5c:	9305      	str	r3, [sp, #20]
    6e5e:	f89b 3000 	ldrb.w	r3, [fp]
    6e62:	2b00      	cmp	r3, #0
    6e64:	f000 80f4 	beq.w	7050 <_vfiprintf_r+0x25c>
    6e68:	465c      	mov	r4, fp
    6e6a:	e004      	b.n	6e76 <_vfiprintf_r+0x82>
    6e6c:	f814 3f01 	ldrb.w	r3, [r4, #1]!
    6e70:	2b00      	cmp	r3, #0
    6e72:	f000 80d2 	beq.w	701a <_vfiprintf_r+0x226>
    6e76:	2b25      	cmp	r3, #37	@ 0x25
    6e78:	d1f8      	bne.n	6e6c <_vfiprintf_r+0x78>
    6e7a:	ebb4 050b 	subs.w	r5, r4, fp
    6e7e:	f040 80cf 	bne.w	7020 <_vfiprintf_r+0x22c>
    6e82:	7823      	ldrb	r3, [r4, #0]
    6e84:	2b00      	cmp	r3, #0
    6e86:	f000 80e3 	beq.w	7050 <_vfiprintf_r+0x25c>
    6e8a:	f04f 0300 	mov.w	r3, #0
    6e8e:	f88d 3037 	strb.w	r3, [sp, #55]	@ 0x37
    6e92:	f04f 32ff 	mov.w	r2, #4294967295	@ 0xffffffff
    6e96:	2300      	movs	r3, #0
    6e98:	e9cd 2303 	strd	r2, r3, [sp, #12]
    6e9c:	7861      	ldrb	r1, [r4, #1]
    6e9e:	f104 0b01 	add.w	fp, r4, #1
    6ea2:	4698      	mov	r8, r3
    6ea4:	f10b 0b01 	add.w	fp, fp, #1
    6ea8:	f1a1 0320 	sub.w	r3, r1, #32
    6eac:	2b58      	cmp	r3, #88	@ 0x58
    6eae:	f200 80dc 	bhi.w	706a <_vfiprintf_r+0x276>
    6eb2:	e8df f013 	tbh	[pc, r3, lsl #1]
    6eb6:	01b2      	.short	0x01b2
    6eb8:	00da00da 	.word	0x00da00da
    6ebc:	00da01ad 	.word	0x00da01ad
    6ec0:	00da00da 	.word	0x00da00da
    6ec4:	00da00da 	.word	0x00da00da
    6ec8:	017600da 	.word	0x017600da
    6ecc:	00da01a7 	.word	0x00da01a7
    6ed0:	01860181 	.word	0x01860181
    6ed4:	01a200da 	.word	0x01a200da
    6ed8:	00590059 	.word	0x00590059
    6edc:	00590059 	.word	0x00590059
    6ee0:	00590059 	.word	0x00590059
    6ee4:	00590059 	.word	0x00590059
    6ee8:	00da0059 	.word	0x00da0059
    6eec:	00da00da 	.word	0x00da00da
    6ef0:	00da00da 	.word	0x00da00da
    6ef4:	00da00da 	.word	0x00da00da
    6ef8:	00da00da 	.word	0x00da00da
    6efc:	006800da 	.word	0x006800da
    6f00:	00da00da 	.word	0x00da00da
    6f04:	00da00da 	.word	0x00da00da
    6f08:	00da00da 	.word	0x00da00da
    6f0c:	00da00da 	.word	0x00da00da
    6f10:	00da00da 	.word	0x00da00da
    6f14:	00da0219 	.word	0x00da0219
    6f18:	00da00da 	.word	0x00da00da
    6f1c:	00da00da 	.word	0x00da00da
    6f20:	00da01ea 	.word	0x00da01ea
    6f24:	041d00da 	.word	0x041d00da
    6f28:	00da00da 	.word	0x00da00da
    6f2c:	00da00da 	.word	0x00da00da
    6f30:	00da00da 	.word	0x00da00da
    6f34:	00da00da 	.word	0x00da00da
    6f38:	00da00da 	.word	0x00da00da
    6f3c:	006a01dd 	.word	0x006a01dd
    6f40:	00da00da 	.word	0x00da00da
    6f44:	01d800da 	.word	0x01d800da
    6f48:	00da006a 	.word	0x00da006a
    6f4c:	01cb00da 	.word	0x01cb00da
    6f50:	01bd00da 	.word	0x01bd00da
    6f54:	027f041b 	.word	0x027f041b
    6f58:	00da027a 	.word	0x00da027a
    6f5c:	00da0259 	.word	0x00da0259
    6f60:	00da0419 	.word	0x00da0419
    6f64:	044200da 	.word	0x044200da
    6f68:	f1a1 0330 	sub.w	r3, r1, #48	@ 0x30
    6f6c:	2200      	movs	r2, #0
    6f6e:	f81b 1b01 	ldrb.w	r1, [fp], #1
    6f72:	eb02 0282 	add.w	r2, r2, r2, lsl #2
    6f76:	eb03 0242 	add.w	r2, r3, r2, lsl #1
    6f7a:	f1a1 0330 	sub.w	r3, r1, #48	@ 0x30
    6f7e:	2b09      	cmp	r3, #9
    6f80:	d9f5      	bls.n	6f6e <_vfiprintf_r+0x17a>
    6f82:	9204      	str	r2, [sp, #16]
    6f84:	e790      	b.n	6ea8 <_vfiprintf_r+0xb4>
    6f86:	f048 0810 	orr.w	r8, r8, #16
    6f8a:	f018 0f20 	tst.w	r8, #32
    6f8e:	f000 80d7 	beq.w	7140 <_vfiprintf_r+0x34c>
    6f92:	9b07      	ldr	r3, [sp, #28]
    6f94:	3307      	adds	r3, #7
    6f96:	f023 0307 	bic.w	r3, r3, #7
    6f9a:	461a      	mov	r2, r3
    6f9c:	6859      	ldr	r1, [r3, #4]
    6f9e:	f852 3b08 	ldr.w	r3, [r2], #8
    6fa2:	9207      	str	r2, [sp, #28]
    6fa4:	460a      	mov	r2, r1
    6fa6:	2900      	cmp	r1, #0
    6fa8:	f2c0 80de 	blt.w	7168 <_vfiprintf_r+0x374>
    6fac:	9903      	ldr	r1, [sp, #12]
    6fae:	f89d 5037 	ldrb.w	r5, [sp, #55]	@ 0x37
    6fb2:	2900      	cmp	r1, #0
    6fb4:	f2c0 80e3 	blt.w	717e <_vfiprintf_r+0x38a>
    6fb8:	ea53 0102 	orrs.w	r1, r3, r2
    6fbc:	f028 0880 	bic.w	r8, r8, #128	@ 0x80
    6fc0:	f040 80dd 	bne.w	717e <_vfiprintf_r+0x38a>
    6fc4:	9b03      	ldr	r3, [sp, #12]
    6fc6:	2b00      	cmp	r3, #0
    6fc8:	f040 8459 	bne.w	787e <_vfiprintf_r+0xa8a>
    6fcc:	9301      	str	r3, [sp, #4]
    6fce:	464c      	mov	r4, r9
    6fd0:	2d00      	cmp	r5, #0
    6fd2:	f000 81be 	beq.w	7352 <_vfiprintf_r+0x55e>
    6fd6:	9a01      	ldr	r2, [sp, #4]
    6fd8:	3201      	adds	r2, #1
    6fda:	9201      	str	r2, [sp, #4]
    6fdc:	e1b9      	b.n	7352 <_vfiprintf_r+0x55e>
    6fde:	9d02      	ldr	r5, [sp, #8]
    6fe0:	9808      	ldr	r0, [sp, #32]
    6fe2:	4629      	mov	r1, r5
    6fe4:	f000 fcbe 	bl	7964 <__swsetup_r>
    6fe8:	2800      	cmp	r0, #0
    6fea:	f040 8443 	bne.w	7874 <_vfiprintf_r+0xa80>
    6fee:	f9b5 200c 	ldrsh.w	r2, [r5, #12]
    6ff2:	f002 021a 	and.w	r2, r2, #26
    6ff6:	2a0a      	cmp	r2, #10
    6ff8:	f47f af27 	bne.w	6e4a <_vfiprintf_r+0x56>
    6ffc:	9b02      	ldr	r3, [sp, #8]
    6ffe:	f9b3 300e 	ldrsh.w	r3, [r3, #14]
    7002:	2b00      	cmp	r3, #0
    7004:	f6ff af21 	blt.w	6e4a <_vfiprintf_r+0x56>
    7008:	9902      	ldr	r1, [sp, #8]
    700a:	9808      	ldr	r0, [sp, #32]
    700c:	4623      	mov	r3, r4
    700e:	465a      	mov	r2, fp
    7010:	b02d      	add	sp, #180	@ 0xb4
    7012:	e8bd 4ff0 	ldmia.w	sp!, {r4, r5, r6, r7, r8, r9, sl, fp, lr}
    7016:	f000 bc59 	b.w	78cc <__sbprintf>
    701a:	ebb4 050b 	subs.w	r5, r4, fp
    701e:	d017      	beq.n	7050 <_vfiprintf_r+0x25c>
    7020:	9b11      	ldr	r3, [sp, #68]	@ 0x44
    7022:	442b      	add	r3, r5
    7024:	9311      	str	r3, [sp, #68]	@ 0x44
    7026:	9b10      	ldr	r3, [sp, #64]	@ 0x40
    7028:	3301      	adds	r3, #1
    702a:	2b07      	cmp	r3, #7
    702c:	e9ca b500 	strd	fp, r5, [sl]
    7030:	9310      	str	r3, [sp, #64]	@ 0x40
    7032:	dc05      	bgt.n	7040 <_vfiprintf_r+0x24c>
    7034:	f10a 0a08 	add.w	sl, sl, #8
    7038:	9b05      	ldr	r3, [sp, #20]
    703a:	442b      	add	r3, r5
    703c:	9305      	str	r3, [sp, #20]
    703e:	e720      	b.n	6e82 <_vfiprintf_r+0x8e>
    7040:	9902      	ldr	r1, [sp, #8]
    7042:	9808      	ldr	r0, [sp, #32]
    7044:	aa0f      	add	r2, sp, #60	@ 0x3c
    7046:	f000 fd05 	bl	7a54 <__sprint_r>
    704a:	b928      	cbnz	r0, 7058 <_vfiprintf_r+0x264>
    704c:	46ca      	mov	sl, r9
    704e:	e7f3      	b.n	7038 <_vfiprintf_r+0x244>
    7050:	9b11      	ldr	r3, [sp, #68]	@ 0x44
    7052:	2b00      	cmp	r3, #0
    7054:	f040 8400 	bne.w	7858 <_vfiprintf_r+0xa64>
    7058:	9b02      	ldr	r3, [sp, #8]
    705a:	899b      	ldrh	r3, [r3, #12]
    705c:	065b      	lsls	r3, r3, #25
    705e:	f100 8409 	bmi.w	7874 <_vfiprintf_r+0xa80>
    7062:	9805      	ldr	r0, [sp, #20]
    7064:	b02d      	add	sp, #180	@ 0xb4
    7066:	e8bd 8ff0 	ldmia.w	sp!, {r4, r5, r6, r7, r8, r9, sl, fp, pc}
    706a:	2900      	cmp	r1, #0
    706c:	d0f0      	beq.n	7050 <_vfiprintf_r+0x25c>
    706e:	2300      	movs	r3, #0
    7070:	f88d 3037 	strb.w	r3, [sp, #55]	@ 0x37
    7074:	2301      	movs	r3, #1
    7076:	f88d 1048 	strb.w	r1, [sp, #72]	@ 0x48
    707a:	9301      	str	r3, [sp, #4]
    707c:	ac12      	add	r4, sp, #72	@ 0x48
    707e:	2200      	movs	r2, #0
    7080:	9203      	str	r2, [sp, #12]
    7082:	9206      	str	r2, [sp, #24]
    7084:	f018 0784 	ands.w	r7, r8, #132	@ 0x84
    7088:	e9dd 2110 	ldrd	r2, r1, [sp, #64]	@ 0x40
    708c:	d105      	bne.n	709a <_vfiprintf_r+0x2a6>
    708e:	9804      	ldr	r0, [sp, #16]
    7090:	9d01      	ldr	r5, [sp, #4]
    7092:	1b45      	subs	r5, r0, r5
    7094:	2d00      	cmp	r5, #0
    7096:	f300 824f 	bgt.w	7538 <_vfiprintf_r+0x744>
    709a:	f89d 0037 	ldrb.w	r0, [sp, #55]	@ 0x37
    709e:	b180      	cbz	r0, 70c2 <_vfiprintf_r+0x2ce>
    70a0:	3201      	adds	r2, #1
    70a2:	f10d 0037 	add.w	r0, sp, #55	@ 0x37
    70a6:	3101      	adds	r1, #1
    70a8:	f8ca 0000 	str.w	r0, [sl]
    70ac:	2a07      	cmp	r2, #7
    70ae:	f04f 0001 	mov.w	r0, #1
    70b2:	e9cd 2110 	strd	r2, r1, [sp, #64]	@ 0x40
    70b6:	f8ca 0004 	str.w	r0, [sl, #4]
    70ba:	f300 8277 	bgt.w	75ac <_vfiprintf_r+0x7b8>
    70be:	f10a 0a08 	add.w	sl, sl, #8
    70c2:	9806      	ldr	r0, [sp, #24]
    70c4:	b178      	cbz	r0, 70e6 <_vfiprintf_r+0x2f2>
    70c6:	3201      	adds	r2, #1
    70c8:	a80e      	add	r0, sp, #56	@ 0x38
    70ca:	3102      	adds	r1, #2
    70cc:	f8ca 0000 	str.w	r0, [sl]
    70d0:	2a07      	cmp	r2, #7
    70d2:	f04f 0002 	mov.w	r0, #2
    70d6:	e9cd 2110 	strd	r2, r1, [sp, #64]	@ 0x40
    70da:	f8ca 0004 	str.w	r0, [sl, #4]
    70de:	f300 8273 	bgt.w	75c8 <_vfiprintf_r+0x7d4>
    70e2:	f10a 0a08 	add.w	sl, sl, #8
    70e6:	2f80      	cmp	r7, #128	@ 0x80
    70e8:	f000 819b 	beq.w	7422 <_vfiprintf_r+0x62e>
    70ec:	9803      	ldr	r0, [sp, #12]
    70ee:	1ac5      	subs	r5, r0, r3
    70f0:	2d00      	cmp	r5, #0
    70f2:	f300 81d5 	bgt.w	74a0 <_vfiprintf_r+0x6ac>
    70f6:	3201      	adds	r2, #1
    70f8:	4419      	add	r1, r3
    70fa:	2a07      	cmp	r2, #7
    70fc:	e9cd 2110 	strd	r2, r1, [sp, #64]	@ 0x40
    7100:	f8ca 4000 	str.w	r4, [sl]
    7104:	f8ca 3004 	str.w	r3, [sl, #4]
    7108:	f300 8202 	bgt.w	7510 <_vfiprintf_r+0x71c>
    710c:	f10a 0a08 	add.w	sl, sl, #8
    7110:	f018 0f04 	tst.w	r8, #4
    7114:	d005      	beq.n	7122 <_vfiprintf_r+0x32e>
    7116:	9b04      	ldr	r3, [sp, #16]
    7118:	9a01      	ldr	r2, [sp, #4]
    711a:	1a9c      	subs	r4, r3, r2
    711c:	2c00      	cmp	r4, #0
    711e:	f300 8261 	bgt.w	75e4 <_vfiprintf_r+0x7f0>
    7122:	e9dd 2304 	ldrd	r2, r3, [sp, #16]
    7126:	9801      	ldr	r0, [sp, #4]
    7128:	4282      	cmp	r2, r0
    712a:	bfac      	ite	ge
    712c:	189b      	addge	r3, r3, r2
    712e:	181b      	addlt	r3, r3, r0
    7130:	9305      	str	r3, [sp, #20]
    7132:	2900      	cmp	r1, #0
    7134:	f040 81f7 	bne.w	7526 <_vfiprintf_r+0x732>
    7138:	2300      	movs	r3, #0
    713a:	9310      	str	r3, [sp, #64]	@ 0x40
    713c:	46ca      	mov	sl, r9
    713e:	e68e      	b.n	6e5e <_vfiprintf_r+0x6a>
    7140:	9a07      	ldr	r2, [sp, #28]
    7142:	f018 0f10 	tst.w	r8, #16
    7146:	f852 3b04 	ldr.w	r3, [r2], #4
    714a:	9207      	str	r2, [sp, #28]
    714c:	d107      	bne.n	715e <_vfiprintf_r+0x36a>
    714e:	f018 0f40 	tst.w	r8, #64	@ 0x40
    7152:	d004      	beq.n	715e <_vfiprintf_r+0x36a>
    7154:	f343 32c0 	sbfx	r2, r3, #15, #1
    7158:	4611      	mov	r1, r2
    715a:	b21b      	sxth	r3, r3
    715c:	e723      	b.n	6fa6 <_vfiprintf_r+0x1b2>
    715e:	17da      	asrs	r2, r3, #31
    7160:	4611      	mov	r1, r2
    7162:	2900      	cmp	r1, #0
    7164:	f6bf af22 	bge.w	6fac <_vfiprintf_r+0x1b8>
    7168:	9903      	ldr	r1, [sp, #12]
    716a:	425b      	negs	r3, r3
    716c:	eb62 0242 	sbc.w	r2, r2, r2, lsl #1
    7170:	252d      	movs	r5, #45	@ 0x2d
    7172:	2900      	cmp	r1, #0
    7174:	f88d 5037 	strb.w	r5, [sp, #55]	@ 0x37
    7178:	db01      	blt.n	717e <_vfiprintf_r+0x38a>
    717a:	f028 0880 	bic.w	r8, r8, #128	@ 0x80
    717e:	2b0a      	cmp	r3, #10
    7180:	f172 0100 	sbcs.w	r1, r2, #0
    7184:	f080 82f3 	bcs.w	776e <_vfiprintf_r+0x97a>
    7188:	3330      	adds	r3, #48	@ 0x30
    718a:	b2db      	uxtb	r3, r3
    718c:	f88d 306f 	strb.w	r3, [sp, #111]	@ 0x6f
    7190:	9b03      	ldr	r3, [sp, #12]
    7192:	2b01      	cmp	r3, #1
    7194:	bfb8      	it	lt
    7196:	2301      	movlt	r3, #1
    7198:	9301      	str	r3, [sp, #4]
    719a:	f10d 046f 	add.w	r4, sp, #111	@ 0x6f
    719e:	2301      	movs	r3, #1
    71a0:	e716      	b.n	6fd0 <_vfiprintf_r+0x1dc>
    71a2:	9b07      	ldr	r3, [sp, #28]
    71a4:	f853 2b04 	ldr.w	r2, [r3], #4
    71a8:	9204      	str	r2, [sp, #16]
    71aa:	2a00      	cmp	r2, #0
    71ac:	f280 8288 	bge.w	76c0 <_vfiprintf_r+0x8cc>
    71b0:	9a04      	ldr	r2, [sp, #16]
    71b2:	9307      	str	r3, [sp, #28]
    71b4:	4252      	negs	r2, r2
    71b6:	9204      	str	r2, [sp, #16]
    71b8:	f89b 1000 	ldrb.w	r1, [fp]
    71bc:	f048 0804 	orr.w	r8, r8, #4
    71c0:	e670      	b.n	6ea4 <_vfiprintf_r+0xb0>
    71c2:	4658      	mov	r0, fp
    71c4:	f810 1b01 	ldrb.w	r1, [r0], #1
    71c8:	292a      	cmp	r1, #42	@ 0x2a
    71ca:	f000 835a 	beq.w	7882 <_vfiprintf_r+0xa8e>
    71ce:	f1a1 0330 	sub.w	r3, r1, #48	@ 0x30
    71d2:	2b09      	cmp	r3, #9
    71d4:	bf98      	it	ls
    71d6:	2200      	movls	r2, #0
    71d8:	f200 8347 	bhi.w	786a <_vfiprintf_r+0xa76>
    71dc:	f810 1b01 	ldrb.w	r1, [r0], #1
    71e0:	eb02 0282 	add.w	r2, r2, r2, lsl #2
    71e4:	eb03 0242 	add.w	r2, r3, r2, lsl #1
    71e8:	f1a1 0330 	sub.w	r3, r1, #48	@ 0x30
    71ec:	2b09      	cmp	r3, #9
    71ee:	d9f5      	bls.n	71dc <_vfiprintf_r+0x3e8>
    71f0:	ea42 73e2 	orr.w	r3, r2, r2, asr #31
    71f4:	9303      	str	r3, [sp, #12]
    71f6:	4683      	mov	fp, r0
    71f8:	e656      	b.n	6ea8 <_vfiprintf_r+0xb4>
    71fa:	f89b 1000 	ldrb.w	r1, [fp]
    71fe:	f048 0880 	orr.w	r8, r8, #128	@ 0x80
    7202:	e64f      	b.n	6ea4 <_vfiprintf_r+0xb0>
    7204:	232b      	movs	r3, #43	@ 0x2b
    7206:	f89b 1000 	ldrb.w	r1, [fp]
    720a:	f88d 3037 	strb.w	r3, [sp, #55]	@ 0x37
    720e:	e649      	b.n	6ea4 <_vfiprintf_r+0xb0>
    7210:	f89b 1000 	ldrb.w	r1, [fp]
    7214:	f048 0801 	orr.w	r8, r8, #1
    7218:	e644      	b.n	6ea4 <_vfiprintf_r+0xb0>
    721a:	f89d 3037 	ldrb.w	r3, [sp, #55]	@ 0x37
    721e:	f89b 1000 	ldrb.w	r1, [fp]
    7222:	2b00      	cmp	r3, #0
    7224:	f47f ae3e 	bne.w	6ea4 <_vfiprintf_r+0xb0>
    7228:	2320      	movs	r3, #32
    722a:	f88d 3037 	strb.w	r3, [sp, #55]	@ 0x37
    722e:	e639      	b.n	6ea4 <_vfiprintf_r+0xb0>
    7230:	f018 0f20 	tst.w	r8, #32
    7234:	f000 824d 	beq.w	76d2 <_vfiprintf_r+0x8de>
    7238:	9b07      	ldr	r3, [sp, #28]
    723a:	9a05      	ldr	r2, [sp, #20]
    723c:	681b      	ldr	r3, [r3, #0]
    723e:	601a      	str	r2, [r3, #0]
    7240:	17d2      	asrs	r2, r2, #31
    7242:	605a      	str	r2, [r3, #4]
    7244:	9b07      	ldr	r3, [sp, #28]
    7246:	3304      	adds	r3, #4
    7248:	9307      	str	r3, [sp, #28]
    724a:	e608      	b.n	6e5e <_vfiprintf_r+0x6a>
    724c:	f89b 1000 	ldrb.w	r1, [fp]
    7250:	296c      	cmp	r1, #108	@ 0x6c
    7252:	bf03      	ittte	eq
    7254:	f89b 1001 	ldrbeq.w	r1, [fp, #1]
    7258:	f048 0820 	orreq.w	r8, r8, #32
    725c:	f10b 0b01 	addeq.w	fp, fp, #1
    7260:	f048 0810 	orrne.w	r8, r8, #16
    7264:	e61e      	b.n	6ea4 <_vfiprintf_r+0xb0>
    7266:	f89b 1000 	ldrb.w	r1, [fp]
    726a:	f048 0840 	orr.w	r8, r8, #64	@ 0x40
    726e:	e619      	b.n	6ea4 <_vfiprintf_r+0xb0>
    7270:	9b07      	ldr	r3, [sp, #28]
    7272:	2200      	movs	r2, #0
    7274:	f88d 2037 	strb.w	r2, [sp, #55]	@ 0x37
    7278:	f853 2b04 	ldr.w	r2, [r3], #4
    727c:	9307      	str	r3, [sp, #28]
    727e:	2301      	movs	r3, #1
    7280:	f88d 2048 	strb.w	r2, [sp, #72]	@ 0x48
    7284:	9301      	str	r3, [sp, #4]
    7286:	ac12      	add	r4, sp, #72	@ 0x48
    7288:	e6f9      	b.n	707e <_vfiprintf_r+0x28a>
    728a:	f048 0110 	orr.w	r1, r8, #16
    728e:	f011 0220 	ands.w	r2, r1, #32
    7292:	f000 81de 	beq.w	7652 <_vfiprintf_r+0x85e>
    7296:	9b07      	ldr	r3, [sp, #28]
    7298:	3307      	adds	r3, #7
    729a:	f023 0307 	bic.w	r3, r3, #7
    729e:	4618      	mov	r0, r3
    72a0:	685a      	ldr	r2, [r3, #4]
    72a2:	f850 3b08 	ldr.w	r3, [r0], #8
    72a6:	9007      	str	r0, [sp, #28]
    72a8:	9803      	ldr	r0, [sp, #12]
    72aa:	2500      	movs	r5, #0
    72ac:	42a8      	cmp	r0, r5
    72ae:	f88d 5037 	strb.w	r5, [sp, #55]	@ 0x37
    72b2:	f2c0 82a7 	blt.w	7804 <_vfiprintf_r+0xa10>
    72b6:	2501      	movs	r5, #1
    72b8:	ea53 0002 	orrs.w	r0, r3, r2
    72bc:	f021 0880 	bic.w	r8, r1, #128	@ 0x80
    72c0:	f040 8094 	bne.w	73ec <_vfiprintf_r+0x5f8>
    72c4:	9803      	ldr	r0, [sp, #12]
    72c6:	2800      	cmp	r0, #0
    72c8:	f040 829e 	bne.w	7808 <_vfiprintf_r+0xa14>
    72cc:	2d00      	cmp	r5, #0
    72ce:	f040 81f3 	bne.w	76b8 <_vfiprintf_r+0x8c4>
    72d2:	f011 0301 	ands.w	r3, r1, #1
    72d6:	f000 81f8 	beq.w	76ca <_vfiprintf_r+0x8d6>
    72da:	2230      	movs	r2, #48	@ 0x30
    72dc:	f88d 206f 	strb.w	r2, [sp, #111]	@ 0x6f
    72e0:	9301      	str	r3, [sp, #4]
    72e2:	f10d 046f 	add.w	r4, sp, #111	@ 0x6f
    72e6:	e034      	b.n	7352 <_vfiprintf_r+0x55e>
    72e8:	f048 0110 	orr.w	r1, r8, #16
    72ec:	f011 0220 	ands.w	r2, r1, #32
    72f0:	f000 81be 	beq.w	7670 <_vfiprintf_r+0x87c>
    72f4:	9b07      	ldr	r3, [sp, #28]
    72f6:	3307      	adds	r3, #7
    72f8:	f023 0307 	bic.w	r3, r3, #7
    72fc:	4618      	mov	r0, r3
    72fe:	685a      	ldr	r2, [r3, #4]
    7300:	f850 3b08 	ldr.w	r3, [r0], #8
    7304:	9007      	str	r0, [sp, #28]
    7306:	9803      	ldr	r0, [sp, #12]
    7308:	2500      	movs	r5, #0
    730a:	42a8      	cmp	r0, r5
    730c:	f88d 5037 	strb.w	r5, [sp, #55]	@ 0x37
    7310:	dad2      	bge.n	72b8 <_vfiprintf_r+0x4c4>
    7312:	4688      	mov	r8, r1
    7314:	464c      	mov	r4, r9
    7316:	f003 0107 	and.w	r1, r3, #7
    731a:	08db      	lsrs	r3, r3, #3
    731c:	ea43 7342 	orr.w	r3, r3, r2, lsl #29
    7320:	08d2      	lsrs	r2, r2, #3
    7322:	3130      	adds	r1, #48	@ 0x30
    7324:	ea53 0502 	orrs.w	r5, r3, r2
    7328:	4620      	mov	r0, r4
    732a:	f804 1d01 	strb.w	r1, [r4, #-1]!
    732e:	d1f2      	bne.n	7316 <_vfiprintf_r+0x522>
    7330:	f018 0f01 	tst.w	r8, #1
    7334:	d06d      	beq.n	7412 <_vfiprintf_r+0x61e>
    7336:	2930      	cmp	r1, #48	@ 0x30
    7338:	d06b      	beq.n	7412 <_vfiprintf_r+0x61e>
    733a:	9a03      	ldr	r2, [sp, #12]
    733c:	3802      	subs	r0, #2
    733e:	2330      	movs	r3, #48	@ 0x30
    7340:	f804 3c01 	strb.w	r3, [r4, #-1]
    7344:	eba9 0300 	sub.w	r3, r9, r0
    7348:	429a      	cmp	r2, r3
    734a:	bfb8      	it	lt
    734c:	461a      	movlt	r2, r3
    734e:	4604      	mov	r4, r0
    7350:	9201      	str	r2, [sp, #4]
    7352:	f018 0202 	ands.w	r2, r8, #2
    7356:	9206      	str	r2, [sp, #24]
    7358:	f43f ae94 	beq.w	7084 <_vfiprintf_r+0x290>
    735c:	9a01      	ldr	r2, [sp, #4]
    735e:	3202      	adds	r2, #2
    7360:	9201      	str	r2, [sp, #4]
    7362:	2202      	movs	r2, #2
    7364:	9206      	str	r2, [sp, #24]
    7366:	e68d      	b.n	7084 <_vfiprintf_r+0x290>
    7368:	9d07      	ldr	r5, [sp, #28]
    736a:	9b03      	ldr	r3, [sp, #12]
    736c:	f855 4b04 	ldr.w	r4, [r5], #4
    7370:	2100      	movs	r1, #0
    7372:	f88d 1037 	strb.w	r1, [sp, #55]	@ 0x37
    7376:	2c00      	cmp	r4, #0
    7378:	f000 825e 	beq.w	7838 <_vfiprintf_r+0xa44>
    737c:	2b00      	cmp	r3, #0
    737e:	f2c0 81df 	blt.w	7740 <_vfiprintf_r+0x94c>
    7382:	461a      	mov	r2, r3
    7384:	4620      	mov	r0, r4
    7386:	f7fe fee3 	bl	6150 <memchr>
    738a:	2800      	cmp	r0, #0
    738c:	f000 826b 	beq.w	7866 <_vfiprintf_r+0xa72>
    7390:	1b03      	subs	r3, r0, r4
    7392:	f89d 2037 	ldrb.w	r2, [sp, #55]	@ 0x37
    7396:	ea23 71e3 	bic.w	r1, r3, r3, asr #31
    739a:	9101      	str	r1, [sp, #4]
    739c:	2a00      	cmp	r2, #0
    739e:	f000 8252 	beq.w	7846 <_vfiprintf_r+0xa52>
    73a2:	2200      	movs	r2, #0
    73a4:	9507      	str	r5, [sp, #28]
    73a6:	9203      	str	r2, [sp, #12]
    73a8:	e615      	b.n	6fd6 <_vfiprintf_r+0x1e2>
    73aa:	f89b 1000 	ldrb.w	r1, [fp]
    73ae:	f048 0820 	orr.w	r8, r8, #32
    73b2:	e577      	b.n	6ea4 <_vfiprintf_r+0xb0>
    73b4:	9a07      	ldr	r2, [sp, #28]
    73b6:	f852 3b04 	ldr.w	r3, [r2], #4
    73ba:	9207      	str	r2, [sp, #28]
    73bc:	f647 0230 	movw	r2, #30768	@ 0x7830
    73c0:	f8ad 2038 	strh.w	r2, [sp, #56]	@ 0x38
    73c4:	4ab2      	ldr	r2, [pc, #712]	@ (7690 <_vfiprintf_r+0x89c>)
    73c6:	9209      	str	r2, [sp, #36]	@ 0x24
    73c8:	f048 0802 	orr.w	r8, r8, #2
    73cc:	2200      	movs	r2, #0
    73ce:	2100      	movs	r1, #0
    73d0:	f88d 1037 	strb.w	r1, [sp, #55]	@ 0x37
    73d4:	9903      	ldr	r1, [sp, #12]
    73d6:	2900      	cmp	r1, #0
    73d8:	db0d      	blt.n	73f6 <_vfiprintf_r+0x602>
    73da:	4641      	mov	r1, r8
    73dc:	ea53 0002 	orrs.w	r0, r3, r2
    73e0:	f04f 0502 	mov.w	r5, #2
    73e4:	f021 0880 	bic.w	r8, r1, #128	@ 0x80
    73e8:	f43f af6c 	beq.w	72c4 <_vfiprintf_r+0x4d0>
    73ec:	2d01      	cmp	r5, #1
    73ee:	f000 8254 	beq.w	789a <_vfiprintf_r+0xaa6>
    73f2:	2d02      	cmp	r5, #2
    73f4:	d18e      	bne.n	7314 <_vfiprintf_r+0x520>
    73f6:	9809      	ldr	r0, [sp, #36]	@ 0x24
    73f8:	464c      	mov	r4, r9
    73fa:	f003 010f 	and.w	r1, r3, #15
    73fe:	091b      	lsrs	r3, r3, #4
    7400:	5c41      	ldrb	r1, [r0, r1]
    7402:	f804 1d01 	strb.w	r1, [r4, #-1]!
    7406:	ea43 7302 	orr.w	r3, r3, r2, lsl #28
    740a:	0912      	lsrs	r2, r2, #4
    740c:	ea53 0102 	orrs.w	r1, r3, r2
    7410:	d1f3      	bne.n	73fa <_vfiprintf_r+0x606>
    7412:	9a03      	ldr	r2, [sp, #12]
    7414:	eba9 0304 	sub.w	r3, r9, r4
    7418:	429a      	cmp	r2, r3
    741a:	bfb8      	it	lt
    741c:	461a      	movlt	r2, r3
    741e:	9201      	str	r2, [sp, #4]
    7420:	e797      	b.n	7352 <_vfiprintf_r+0x55e>
    7422:	9804      	ldr	r0, [sp, #16]
    7424:	9d01      	ldr	r5, [sp, #4]
    7426:	1b45      	subs	r5, r0, r5
    7428:	2d00      	cmp	r5, #0
    742a:	f77f ae5f 	ble.w	70ec <_vfiprintf_r+0x2f8>
    742e:	2d10      	cmp	r5, #16
    7430:	4e98      	ldr	r6, [pc, #608]	@ (7694 <_vfiprintf_r+0x8a0>)
    7432:	dd23      	ble.n	747c <_vfiprintf_r+0x688>
    7434:	9406      	str	r4, [sp, #24]
    7436:	4650      	mov	r0, sl
    7438:	9c08      	ldr	r4, [sp, #32]
    743a:	2710      	movs	r7, #16
    743c:	469a      	mov	sl, r3
    743e:	e004      	b.n	744a <_vfiprintf_r+0x656>
    7440:	3d10      	subs	r5, #16
    7442:	2d10      	cmp	r5, #16
    7444:	f100 0008 	add.w	r0, r0, #8
    7448:	dd15      	ble.n	7476 <_vfiprintf_r+0x682>
    744a:	3201      	adds	r2, #1
    744c:	3110      	adds	r1, #16
    744e:	2a07      	cmp	r2, #7
    7450:	e9c0 6700 	strd	r6, r7, [r0]
    7454:	e9cd 2110 	strd	r2, r1, [sp, #64]	@ 0x40
    7458:	ddf2      	ble.n	7440 <_vfiprintf_r+0x64c>
    745a:	9902      	ldr	r1, [sp, #8]
    745c:	aa0f      	add	r2, sp, #60	@ 0x3c
    745e:	4620      	mov	r0, r4
    7460:	f000 faf8 	bl	7a54 <__sprint_r>
    7464:	2800      	cmp	r0, #0
    7466:	f47f adf7 	bne.w	7058 <_vfiprintf_r+0x264>
    746a:	3d10      	subs	r5, #16
    746c:	2d10      	cmp	r5, #16
    746e:	e9dd 2110 	ldrd	r2, r1, [sp, #64]	@ 0x40
    7472:	4648      	mov	r0, r9
    7474:	dce9      	bgt.n	744a <_vfiprintf_r+0x656>
    7476:	9c06      	ldr	r4, [sp, #24]
    7478:	4653      	mov	r3, sl
    747a:	4682      	mov	sl, r0
    747c:	3201      	adds	r2, #1
    747e:	4429      	add	r1, r5
    7480:	2a07      	cmp	r2, #7
    7482:	e9cd 2110 	strd	r2, r1, [sp, #64]	@ 0x40
    7486:	f8ca 6000 	str.w	r6, [sl]
    748a:	f8ca 5004 	str.w	r5, [sl, #4]
    748e:	f300 81c5 	bgt.w	781c <_vfiprintf_r+0xa28>
    7492:	9803      	ldr	r0, [sp, #12]
    7494:	1ac5      	subs	r5, r0, r3
    7496:	2d00      	cmp	r5, #0
    7498:	f10a 0a08 	add.w	sl, sl, #8
    749c:	f77f ae2b 	ble.w	70f6 <_vfiprintf_r+0x302>
    74a0:	2d10      	cmp	r5, #16
    74a2:	4e7c      	ldr	r6, [pc, #496]	@ (7694 <_vfiprintf_r+0x8a0>)
    74a4:	dd26      	ble.n	74f4 <_vfiprintf_r+0x700>
    74a6:	9403      	str	r4, [sp, #12]
    74a8:	4650      	mov	r0, sl
    74aa:	9c08      	ldr	r4, [sp, #32]
    74ac:	46b2      	mov	sl, r6
    74ae:	2710      	movs	r7, #16
    74b0:	461e      	mov	r6, r3
    74b2:	e004      	b.n	74be <_vfiprintf_r+0x6ca>
    74b4:	3d10      	subs	r5, #16
    74b6:	2d10      	cmp	r5, #16
    74b8:	f100 0008 	add.w	r0, r0, #8
    74bc:	dd16      	ble.n	74ec <_vfiprintf_r+0x6f8>
    74be:	3201      	adds	r2, #1
    74c0:	4b74      	ldr	r3, [pc, #464]	@ (7694 <_vfiprintf_r+0x8a0>)
    74c2:	3110      	adds	r1, #16
    74c4:	2a07      	cmp	r2, #7
    74c6:	e9c0 3700 	strd	r3, r7, [r0]
    74ca:	e9cd 2110 	strd	r2, r1, [sp, #64]	@ 0x40
    74ce:	ddf1      	ble.n	74b4 <_vfiprintf_r+0x6c0>
    74d0:	9902      	ldr	r1, [sp, #8]
    74d2:	aa0f      	add	r2, sp, #60	@ 0x3c
    74d4:	4620      	mov	r0, r4
    74d6:	f000 fabd 	bl	7a54 <__sprint_r>
    74da:	2800      	cmp	r0, #0
    74dc:	f47f adbc 	bne.w	7058 <_vfiprintf_r+0x264>
    74e0:	3d10      	subs	r5, #16
    74e2:	2d10      	cmp	r5, #16
    74e4:	e9dd 2110 	ldrd	r2, r1, [sp, #64]	@ 0x40
    74e8:	4648      	mov	r0, r9
    74ea:	dce8      	bgt.n	74be <_vfiprintf_r+0x6ca>
    74ec:	9c03      	ldr	r4, [sp, #12]
    74ee:	4633      	mov	r3, r6
    74f0:	4656      	mov	r6, sl
    74f2:	4682      	mov	sl, r0
    74f4:	3201      	adds	r2, #1
    74f6:	4429      	add	r1, r5
    74f8:	2a07      	cmp	r2, #7
    74fa:	e9cd 2110 	strd	r2, r1, [sp, #64]	@ 0x40
    74fe:	f8ca 6000 	str.w	r6, [sl]
    7502:	f8ca 5004 	str.w	r5, [sl, #4]
    7506:	f300 80c9 	bgt.w	769c <_vfiprintf_r+0x8a8>
    750a:	f10a 0a08 	add.w	sl, sl, #8
    750e:	e5f2      	b.n	70f6 <_vfiprintf_r+0x302>
    7510:	9902      	ldr	r1, [sp, #8]
    7512:	9808      	ldr	r0, [sp, #32]
    7514:	aa0f      	add	r2, sp, #60	@ 0x3c
    7516:	f000 fa9d 	bl	7a54 <__sprint_r>
    751a:	2800      	cmp	r0, #0
    751c:	f47f ad9c 	bne.w	7058 <_vfiprintf_r+0x264>
    7520:	9911      	ldr	r1, [sp, #68]	@ 0x44
    7522:	46ca      	mov	sl, r9
    7524:	e5f4      	b.n	7110 <_vfiprintf_r+0x31c>
    7526:	9902      	ldr	r1, [sp, #8]
    7528:	9808      	ldr	r0, [sp, #32]
    752a:	aa0f      	add	r2, sp, #60	@ 0x3c
    752c:	f000 fa92 	bl	7a54 <__sprint_r>
    7530:	2800      	cmp	r0, #0
    7532:	f43f ae01 	beq.w	7138 <_vfiprintf_r+0x344>
    7536:	e58f      	b.n	7058 <_vfiprintf_r+0x264>
    7538:	2d10      	cmp	r5, #16
    753a:	4e57      	ldr	r6, [pc, #348]	@ (7698 <_vfiprintf_r+0x8a4>)
    753c:	dd28      	ble.n	7590 <_vfiprintf_r+0x79c>
    753e:	e9cd 740a 	strd	r7, r4, [sp, #40]	@ 0x28
    7542:	4650      	mov	r0, sl
    7544:	4637      	mov	r7, r6
    7546:	9c08      	ldr	r4, [sp, #32]
    7548:	9e02      	ldr	r6, [sp, #8]
    754a:	469a      	mov	sl, r3
    754c:	e004      	b.n	7558 <_vfiprintf_r+0x764>
    754e:	3d10      	subs	r5, #16
    7550:	2d10      	cmp	r5, #16
    7552:	f100 0008 	add.w	r0, r0, #8
    7556:	dd16      	ble.n	7586 <_vfiprintf_r+0x792>
    7558:	3201      	adds	r2, #1
    755a:	3110      	adds	r1, #16
    755c:	2310      	movs	r3, #16
    755e:	2a07      	cmp	r2, #7
    7560:	e9cd 2110 	strd	r2, r1, [sp, #64]	@ 0x40
    7564:	6007      	str	r7, [r0, #0]
    7566:	6043      	str	r3, [r0, #4]
    7568:	ddf1      	ble.n	754e <_vfiprintf_r+0x75a>
    756a:	aa0f      	add	r2, sp, #60	@ 0x3c
    756c:	4631      	mov	r1, r6
    756e:	4620      	mov	r0, r4
    7570:	f000 fa70 	bl	7a54 <__sprint_r>
    7574:	2800      	cmp	r0, #0
    7576:	f47f ad6f 	bne.w	7058 <_vfiprintf_r+0x264>
    757a:	3d10      	subs	r5, #16
    757c:	2d10      	cmp	r5, #16
    757e:	e9dd 2110 	ldrd	r2, r1, [sp, #64]	@ 0x40
    7582:	4648      	mov	r0, r9
    7584:	dce8      	bgt.n	7558 <_vfiprintf_r+0x764>
    7586:	463e      	mov	r6, r7
    7588:	9c0b      	ldr	r4, [sp, #44]	@ 0x2c
    758a:	9f0a      	ldr	r7, [sp, #40]	@ 0x28
    758c:	4653      	mov	r3, sl
    758e:	4682      	mov	sl, r0
    7590:	3201      	adds	r2, #1
    7592:	4429      	add	r1, r5
    7594:	2a07      	cmp	r2, #7
    7596:	e9cd 2110 	strd	r2, r1, [sp, #64]	@ 0x40
    759a:	f8ca 6000 	str.w	r6, [sl]
    759e:	f8ca 5004 	str.w	r5, [sl, #4]
    75a2:	f300 8121 	bgt.w	77e8 <_vfiprintf_r+0x9f4>
    75a6:	f10a 0a08 	add.w	sl, sl, #8
    75aa:	e576      	b.n	709a <_vfiprintf_r+0x2a6>
    75ac:	9902      	ldr	r1, [sp, #8]
    75ae:	9808      	ldr	r0, [sp, #32]
    75b0:	930a      	str	r3, [sp, #40]	@ 0x28
    75b2:	aa0f      	add	r2, sp, #60	@ 0x3c
    75b4:	f000 fa4e 	bl	7a54 <__sprint_r>
    75b8:	2800      	cmp	r0, #0
    75ba:	f47f ad4d 	bne.w	7058 <_vfiprintf_r+0x264>
    75be:	e9dd 2110 	ldrd	r2, r1, [sp, #64]	@ 0x40
    75c2:	9b0a      	ldr	r3, [sp, #40]	@ 0x28
    75c4:	46ca      	mov	sl, r9
    75c6:	e57c      	b.n	70c2 <_vfiprintf_r+0x2ce>
    75c8:	9902      	ldr	r1, [sp, #8]
    75ca:	9808      	ldr	r0, [sp, #32]
    75cc:	9306      	str	r3, [sp, #24]
    75ce:	aa0f      	add	r2, sp, #60	@ 0x3c
    75d0:	f000 fa40 	bl	7a54 <__sprint_r>
    75d4:	2800      	cmp	r0, #0
    75d6:	f47f ad3f 	bne.w	7058 <_vfiprintf_r+0x264>
    75da:	e9dd 2110 	ldrd	r2, r1, [sp, #64]	@ 0x40
    75de:	9b06      	ldr	r3, [sp, #24]
    75e0:	46ca      	mov	sl, r9
    75e2:	e580      	b.n	70e6 <_vfiprintf_r+0x2f2>
    75e4:	2c10      	cmp	r4, #16
    75e6:	9b10      	ldr	r3, [sp, #64]	@ 0x40
    75e8:	4e2b      	ldr	r6, [pc, #172]	@ (7698 <_vfiprintf_r+0x8a4>)
    75ea:	dd1f      	ble.n	762c <_vfiprintf_r+0x838>
    75ec:	9f08      	ldr	r7, [sp, #32]
    75ee:	f8dd 8008 	ldr.w	r8, [sp, #8]
    75f2:	2510      	movs	r5, #16
    75f4:	e004      	b.n	7600 <_vfiprintf_r+0x80c>
    75f6:	3c10      	subs	r4, #16
    75f8:	2c10      	cmp	r4, #16
    75fa:	f10a 0a08 	add.w	sl, sl, #8
    75fe:	dd15      	ble.n	762c <_vfiprintf_r+0x838>
    7600:	3301      	adds	r3, #1
    7602:	3110      	adds	r1, #16
    7604:	2b07      	cmp	r3, #7
    7606:	e9ca 6500 	strd	r6, r5, [sl]
    760a:	e9cd 3110 	strd	r3, r1, [sp, #64]	@ 0x40
    760e:	ddf2      	ble.n	75f6 <_vfiprintf_r+0x802>
    7610:	aa0f      	add	r2, sp, #60	@ 0x3c
    7612:	4641      	mov	r1, r8
    7614:	4638      	mov	r0, r7
    7616:	f000 fa1d 	bl	7a54 <__sprint_r>
    761a:	2800      	cmp	r0, #0
    761c:	f47f ad1c 	bne.w	7058 <_vfiprintf_r+0x264>
    7620:	3c10      	subs	r4, #16
    7622:	2c10      	cmp	r4, #16
    7624:	e9dd 3110 	ldrd	r3, r1, [sp, #64]	@ 0x40
    7628:	46ca      	mov	sl, r9
    762a:	dce9      	bgt.n	7600 <_vfiprintf_r+0x80c>
    762c:	3301      	adds	r3, #1
    762e:	4421      	add	r1, r4
    7630:	2b07      	cmp	r3, #7
    7632:	e9ca 6400 	strd	r6, r4, [sl]
    7636:	e9cd 3110 	strd	r3, r1, [sp, #64]	@ 0x40
    763a:	f77f ad72 	ble.w	7122 <_vfiprintf_r+0x32e>
    763e:	9902      	ldr	r1, [sp, #8]
    7640:	9808      	ldr	r0, [sp, #32]
    7642:	aa0f      	add	r2, sp, #60	@ 0x3c
    7644:	f000 fa06 	bl	7a54 <__sprint_r>
    7648:	2800      	cmp	r0, #0
    764a:	f47f ad05 	bne.w	7058 <_vfiprintf_r+0x264>
    764e:	9911      	ldr	r1, [sp, #68]	@ 0x44
    7650:	e567      	b.n	7122 <_vfiprintf_r+0x32e>
    7652:	9807      	ldr	r0, [sp, #28]
    7654:	f850 3b04 	ldr.w	r3, [r0], #4
    7658:	9007      	str	r0, [sp, #28]
    765a:	f011 0010 	ands.w	r0, r1, #16
    765e:	f47f ae23 	bne.w	72a8 <_vfiprintf_r+0x4b4>
    7662:	f011 0240 	ands.w	r2, r1, #64	@ 0x40
    7666:	f43f ae1f 	beq.w	72a8 <_vfiprintf_r+0x4b4>
    766a:	b29b      	uxth	r3, r3
    766c:	4602      	mov	r2, r0
    766e:	e61b      	b.n	72a8 <_vfiprintf_r+0x4b4>
    7670:	9807      	ldr	r0, [sp, #28]
    7672:	f850 3b04 	ldr.w	r3, [r0], #4
    7676:	9007      	str	r0, [sp, #28]
    7678:	f011 0010 	ands.w	r0, r1, #16
    767c:	f47f ae43 	bne.w	7306 <_vfiprintf_r+0x512>
    7680:	f011 0240 	ands.w	r2, r1, #64	@ 0x40
    7684:	f43f ae3f 	beq.w	7306 <_vfiprintf_r+0x512>
    7688:	b29b      	uxth	r3, r3
    768a:	4602      	mov	r2, r0
    768c:	e63b      	b.n	7306 <_vfiprintf_r+0x512>
    768e:	bf00      	nop
    7690:	000096f0 	.word	0x000096f0
    7694:	00009a40 	.word	0x00009a40
    7698:	00009a30 	.word	0x00009a30
    769c:	9902      	ldr	r1, [sp, #8]
    769e:	9808      	ldr	r0, [sp, #32]
    76a0:	9303      	str	r3, [sp, #12]
    76a2:	aa0f      	add	r2, sp, #60	@ 0x3c
    76a4:	f000 f9d6 	bl	7a54 <__sprint_r>
    76a8:	2800      	cmp	r0, #0
    76aa:	f47f acd5 	bne.w	7058 <_vfiprintf_r+0x264>
    76ae:	e9dd 2110 	ldrd	r2, r1, [sp, #64]	@ 0x40
    76b2:	9b03      	ldr	r3, [sp, #12]
    76b4:	46ca      	mov	sl, r9
    76b6:	e51e      	b.n	70f6 <_vfiprintf_r+0x302>
    76b8:	9b03      	ldr	r3, [sp, #12]
    76ba:	9301      	str	r3, [sp, #4]
    76bc:	464c      	mov	r4, r9
    76be:	e648      	b.n	7352 <_vfiprintf_r+0x55e>
    76c0:	f89b 1000 	ldrb.w	r1, [fp]
    76c4:	9307      	str	r3, [sp, #28]
    76c6:	f7ff bbed 	b.w	6ea4 <_vfiprintf_r+0xb0>
    76ca:	9a03      	ldr	r2, [sp, #12]
    76cc:	9201      	str	r2, [sp, #4]
    76ce:	464c      	mov	r4, r9
    76d0:	e63f      	b.n	7352 <_vfiprintf_r+0x55e>
    76d2:	f018 0f10 	tst.w	r8, #16
    76d6:	d138      	bne.n	774a <_vfiprintf_r+0x956>
    76d8:	f018 0f40 	tst.w	r8, #64	@ 0x40
    76dc:	d035      	beq.n	774a <_vfiprintf_r+0x956>
    76de:	9b07      	ldr	r3, [sp, #28]
    76e0:	9a05      	ldr	r2, [sp, #20]
    76e2:	681b      	ldr	r3, [r3, #0]
    76e4:	801a      	strh	r2, [r3, #0]
    76e6:	e5ad      	b.n	7244 <_vfiprintf_r+0x450>
    76e8:	4641      	mov	r1, r8
    76ea:	e5d0      	b.n	728e <_vfiprintf_r+0x49a>
    76ec:	4641      	mov	r1, r8
    76ee:	e5fd      	b.n	72ec <_vfiprintf_r+0x4f8>
    76f0:	4b6b      	ldr	r3, [pc, #428]	@ (78a0 <_vfiprintf_r+0xaac>)
    76f2:	9309      	str	r3, [sp, #36]	@ 0x24
    76f4:	f018 0220 	ands.w	r2, r8, #32
    76f8:	d02c      	beq.n	7754 <_vfiprintf_r+0x960>
    76fa:	9b07      	ldr	r3, [sp, #28]
    76fc:	3307      	adds	r3, #7
    76fe:	f023 0307 	bic.w	r3, r3, #7
    7702:	4618      	mov	r0, r3
    7704:	685a      	ldr	r2, [r3, #4]
    7706:	f850 3b08 	ldr.w	r3, [r0], #8
    770a:	9007      	str	r0, [sp, #28]
    770c:	f018 0f01 	tst.w	r8, #1
    7710:	f43f ae5d 	beq.w	73ce <_vfiprintf_r+0x5da>
    7714:	ea53 0002 	orrs.w	r0, r3, r2
    7718:	f43f ae59 	beq.w	73ce <_vfiprintf_r+0x5da>
    771c:	f88d 1039 	strb.w	r1, [sp, #57]	@ 0x39
    7720:	2130      	movs	r1, #48	@ 0x30
    7722:	f88d 1038 	strb.w	r1, [sp, #56]	@ 0x38
    7726:	2100      	movs	r1, #0
    7728:	f88d 1037 	strb.w	r1, [sp, #55]	@ 0x37
    772c:	9903      	ldr	r1, [sp, #12]
    772e:	2900      	cmp	r1, #0
    7730:	f280 808d 	bge.w	784e <_vfiprintf_r+0xa5a>
    7734:	f048 0802 	orr.w	r8, r8, #2
    7738:	e65d      	b.n	73f6 <_vfiprintf_r+0x602>
    773a:	4b5a      	ldr	r3, [pc, #360]	@ (78a4 <_vfiprintf_r+0xab0>)
    773c:	9309      	str	r3, [sp, #36]	@ 0x24
    773e:	e7d9      	b.n	76f4 <_vfiprintf_r+0x900>
    7740:	4620      	mov	r0, r4
    7742:	f7fa fb9d 	bl	1e80 <strlen>
    7746:	4603      	mov	r3, r0
    7748:	e623      	b.n	7392 <_vfiprintf_r+0x59e>
    774a:	9b07      	ldr	r3, [sp, #28]
    774c:	9a05      	ldr	r2, [sp, #20]
    774e:	681b      	ldr	r3, [r3, #0]
    7750:	601a      	str	r2, [r3, #0]
    7752:	e577      	b.n	7244 <_vfiprintf_r+0x450>
    7754:	9807      	ldr	r0, [sp, #28]
    7756:	f850 3b04 	ldr.w	r3, [r0], #4
    775a:	9007      	str	r0, [sp, #28]
    775c:	f018 0010 	ands.w	r0, r8, #16
    7760:	d1d4      	bne.n	770c <_vfiprintf_r+0x918>
    7762:	f018 0240 	ands.w	r2, r8, #64	@ 0x40
    7766:	bf1c      	itt	ne
    7768:	b29b      	uxthne	r3, r3
    776a:	4602      	movne	r2, r0
    776c:	e7ce      	b.n	770c <_vfiprintf_r+0x918>
    776e:	4e4e      	ldr	r6, [pc, #312]	@ (78a8 <_vfiprintf_r+0xab4>)
    7770:	f8cd a004 	str.w	sl, [sp, #4]
    7774:	464c      	mov	r4, r9
    7776:	f04f 0e05 	mov.w	lr, #5
    777a:	1899      	adds	r1, r3, r2
    777c:	f141 0100 	adc.w	r1, r1, #0
    7780:	fba6 0701 	umull	r0, r7, r6, r1
    7784:	f027 0003 	bic.w	r0, r7, #3
    7788:	eb00 0097 	add.w	r0, r0, r7, lsr #2
    778c:	1a09      	subs	r1, r1, r0
    778e:	1a58      	subs	r0, r3, r1
    7790:	469a      	mov	sl, r3
    7792:	4694      	mov	ip, r2
    7794:	f162 0300 	sbc.w	r3, r2, #0
    7798:	f04f 32cc 	mov.w	r2, #3435973836	@ 0xcccccccc
    779c:	fb02 f200 	mul.w	r2, r2, r0
    77a0:	fb06 2203 	mla	r2, r6, r3, r2
    77a4:	fba0 3006 	umull	r3, r0, r0, r6
    77a8:	f003 0701 	and.w	r7, r3, #1
    77ac:	4402      	add	r2, r0
    77ae:	fba7 070e 	umull	r0, r7, r7, lr
    77b2:	1840      	adds	r0, r0, r1
    77b4:	f1ba 0f0a 	cmp.w	sl, #10
    77b8:	ea4f 0353 	mov.w	r3, r3, lsr #1
    77bc:	f100 0030 	add.w	r0, r0, #48	@ 0x30
    77c0:	f17c 0c00 	sbcs.w	ip, ip, #0
    77c4:	ea43 73c2 	orr.w	r3, r3, r2, lsl #31
    77c8:	f804 0d01 	strb.w	r0, [r4, #-1]!
    77cc:	ea4f 0252 	mov.w	r2, r2, lsr #1
    77d0:	d2d3      	bcs.n	777a <_vfiprintf_r+0x986>
    77d2:	9a03      	ldr	r2, [sp, #12]
    77d4:	f8dd a004 	ldr.w	sl, [sp, #4]
    77d8:	eba9 0304 	sub.w	r3, r9, r4
    77dc:	429a      	cmp	r2, r3
    77de:	bfb8      	it	lt
    77e0:	461a      	movlt	r2, r3
    77e2:	9201      	str	r2, [sp, #4]
    77e4:	f7ff bbf4 	b.w	6fd0 <_vfiprintf_r+0x1dc>
    77e8:	9902      	ldr	r1, [sp, #8]
    77ea:	9808      	ldr	r0, [sp, #32]
    77ec:	930a      	str	r3, [sp, #40]	@ 0x28
    77ee:	aa0f      	add	r2, sp, #60	@ 0x3c
    77f0:	f000 f930 	bl	7a54 <__sprint_r>
    77f4:	2800      	cmp	r0, #0
    77f6:	f47f ac2f 	bne.w	7058 <_vfiprintf_r+0x264>
    77fa:	e9dd 2110 	ldrd	r2, r1, [sp, #64]	@ 0x40
    77fe:	9b0a      	ldr	r3, [sp, #40]	@ 0x28
    7800:	46ca      	mov	sl, r9
    7802:	e44a      	b.n	709a <_vfiprintf_r+0x2a6>
    7804:	4688      	mov	r8, r1
    7806:	e4ba      	b.n	717e <_vfiprintf_r+0x38a>
    7808:	2d01      	cmp	r5, #1
    780a:	f47f adf2 	bne.w	73f2 <_vfiprintf_r+0x5fe>
    780e:	2500      	movs	r5, #0
    7810:	2330      	movs	r3, #48	@ 0x30
    7812:	e4bb      	b.n	718c <_vfiprintf_r+0x398>
    7814:	f7fd fdd2 	bl	53bc <__sinit>
    7818:	f7ff baf9 	b.w	6e0e <_vfiprintf_r+0x1a>
    781c:	9902      	ldr	r1, [sp, #8]
    781e:	9808      	ldr	r0, [sp, #32]
    7820:	9306      	str	r3, [sp, #24]
    7822:	aa0f      	add	r2, sp, #60	@ 0x3c
    7824:	f000 f916 	bl	7a54 <__sprint_r>
    7828:	2800      	cmp	r0, #0
    782a:	f47f ac15 	bne.w	7058 <_vfiprintf_r+0x264>
    782e:	e9dd 2110 	ldrd	r2, r1, [sp, #64]	@ 0x40
    7832:	9b06      	ldr	r3, [sp, #24]
    7834:	46ca      	mov	sl, r9
    7836:	e459      	b.n	70ec <_vfiprintf_r+0x2f8>
    7838:	2b06      	cmp	r3, #6
    783a:	bf28      	it	cs
    783c:	2306      	movcs	r3, #6
    783e:	4c1b      	ldr	r4, [pc, #108]	@ (78ac <_vfiprintf_r+0xab8>)
    7840:	9507      	str	r5, [sp, #28]
    7842:	9301      	str	r3, [sp, #4]
    7844:	e41b      	b.n	707e <_vfiprintf_r+0x28a>
    7846:	e9cd 2506 	strd	r2, r5, [sp, #24]
    784a:	9203      	str	r2, [sp, #12]
    784c:	e41a      	b.n	7084 <_vfiprintf_r+0x290>
    784e:	f028 0180 	bic.w	r1, r8, #128	@ 0x80
    7852:	f041 0802 	orr.w	r8, r1, #2
    7856:	e5ce      	b.n	73f6 <_vfiprintf_r+0x602>
    7858:	9902      	ldr	r1, [sp, #8]
    785a:	9808      	ldr	r0, [sp, #32]
    785c:	aa0f      	add	r2, sp, #60	@ 0x3c
    785e:	f000 f8f9 	bl	7a54 <__sprint_r>
    7862:	f7ff bbf9 	b.w	7058 <_vfiprintf_r+0x264>
    7866:	9b03      	ldr	r3, [sp, #12]
    7868:	e593      	b.n	7392 <_vfiprintf_r+0x59e>
    786a:	2300      	movs	r3, #0
    786c:	4683      	mov	fp, r0
    786e:	9303      	str	r3, [sp, #12]
    7870:	f7ff bb1a 	b.w	6ea8 <_vfiprintf_r+0xb4>
    7874:	f04f 33ff 	mov.w	r3, #4294967295	@ 0xffffffff
    7878:	9305      	str	r3, [sp, #20]
    787a:	f7ff bbf2 	b.w	7062 <_vfiprintf_r+0x26e>
    787e:	2330      	movs	r3, #48	@ 0x30
    7880:	e484      	b.n	718c <_vfiprintf_r+0x398>
    7882:	9b07      	ldr	r3, [sp, #28]
    7884:	f89b 1001 	ldrb.w	r1, [fp, #1]
    7888:	f853 2b04 	ldr.w	r2, [r3], #4
    788c:	9307      	str	r3, [sp, #28]
    788e:	ea42 72e2 	orr.w	r2, r2, r2, asr #31
    7892:	4683      	mov	fp, r0
    7894:	9203      	str	r2, [sp, #12]
    7896:	f7ff bb05 	b.w	6ea4 <_vfiprintf_r+0xb0>
    789a:	2500      	movs	r5, #0
    789c:	e46f      	b.n	717e <_vfiprintf_r+0x38a>
    789e:	bf00      	nop
    78a0:	000096dc 	.word	0x000096dc
    78a4:	000096f0 	.word	0x000096f0
    78a8:	cccccccd 	.word	0xcccccccd
    78ac:	00009704 	.word	0x00009704

000078b0 <vfiprintf>:
    78b0:	b410      	push	{r4}
    78b2:	4c05      	ldr	r4, [pc, #20]	@ (78c8 <vfiprintf+0x18>)
    78b4:	4684      	mov	ip, r0
    78b6:	4613      	mov	r3, r2
    78b8:	6820      	ldr	r0, [r4, #0]
    78ba:	f85d 4b04 	ldr.w	r4, [sp], #4
    78be:	460a      	mov	r2, r1
    78c0:	4661      	mov	r1, ip
    78c2:	f7ff ba97 	b.w	6df4 <_vfiprintf_r>
    78c6:	bf00      	nop
    78c8:	20000000 	.word	0x20000000

000078cc <__sbprintf>:
    78cc:	b570      	push	{r4, r5, r6, lr}
    78ce:	460c      	mov	r4, r1
    78d0:	8989      	ldrh	r1, [r1, #12]
    78d2:	f5ad 6d8d 	sub.w	sp, sp, #1128	@ 0x468
    78d6:	f021 0102 	bic.w	r1, r1, #2
    78da:	f8ad 100c 	strh.w	r1, [sp, #12]
    78de:	a91a      	add	r1, sp, #104	@ 0x68
    78e0:	9100      	str	r1, [sp, #0]
    78e2:	9104      	str	r1, [sp, #16]
    78e4:	f44f 6180 	mov.w	r1, #1024	@ 0x400
    78e8:	9102      	str	r1, [sp, #8]
    78ea:	9105      	str	r1, [sp, #20]
    78ec:	6e61      	ldr	r1, [r4, #100]	@ 0x64
    78ee:	9119      	str	r1, [sp, #100]	@ 0x64
    78f0:	89e1      	ldrh	r1, [r4, #14]
    78f2:	f8ad 100e 	strh.w	r1, [sp, #14]
    78f6:	69e1      	ldr	r1, [r4, #28]
    78f8:	9107      	str	r1, [sp, #28]
    78fa:	6a61      	ldr	r1, [r4, #36]	@ 0x24
    78fc:	9109      	str	r1, [sp, #36]	@ 0x24
    78fe:	2100      	movs	r1, #0
    7900:	9106      	str	r1, [sp, #24]
    7902:	4669      	mov	r1, sp
    7904:	4606      	mov	r6, r0
    7906:	f7ff fa75 	bl	6df4 <_vfiprintf_r>
    790a:	1e05      	subs	r5, r0, #0
    790c:	db07      	blt.n	791e <__sbprintf+0x52>
    790e:	4669      	mov	r1, sp
    7910:	4630      	mov	r0, r6
    7912:	f7ff f9b5 	bl	6c80 <_fflush_r>
    7916:	2800      	cmp	r0, #0
    7918:	bf18      	it	ne
    791a:	f04f 35ff 	movne.w	r5, #4294967295	@ 0xffffffff
    791e:	f8bd 300c 	ldrh.w	r3, [sp, #12]
    7922:	065b      	lsls	r3, r3, #25
    7924:	d503      	bpl.n	792e <__sbprintf+0x62>
    7926:	89a3      	ldrh	r3, [r4, #12]
    7928:	f043 0340 	orr.w	r3, r3, #64	@ 0x40
    792c:	81a3      	strh	r3, [r4, #12]
    792e:	4628      	mov	r0, r5
    7930:	f50d 6d8d 	add.w	sp, sp, #1128	@ 0x468
    7934:	bd70      	pop	{r4, r5, r6, pc}
    7936:	bf00      	nop

00007938 <_read_r>:
    7938:	b538      	push	{r3, r4, r5, lr}
    793a:	460c      	mov	r4, r1
    793c:	4d08      	ldr	r5, [pc, #32]	@ (7960 <_read_r+0x28>)
    793e:	4684      	mov	ip, r0
    7940:	4611      	mov	r1, r2
    7942:	4620      	mov	r0, r4
    7944:	461a      	mov	r2, r3
    7946:	2300      	movs	r3, #0
    7948:	602b      	str	r3, [r5, #0]
    794a:	4664      	mov	r4, ip
    794c:	f7f9 ff49 	bl	17e2 <_read>
    7950:	1c43      	adds	r3, r0, #1
    7952:	d000      	beq.n	7956 <_read_r+0x1e>
    7954:	bd38      	pop	{r3, r4, r5, pc}
    7956:	682b      	ldr	r3, [r5, #0]
    7958:	2b00      	cmp	r3, #0
    795a:	d0fb      	beq.n	7954 <_read_r+0x1c>
    795c:	6023      	str	r3, [r4, #0]
    795e:	bd38      	pop	{r3, r4, r5, pc}
    7960:	2000087c 	.word	0x2000087c

00007964 <__swsetup_r>:
    7964:	b538      	push	{r3, r4, r5, lr}
    7966:	4b2f      	ldr	r3, [pc, #188]	@ (7a24 <__swsetup_r+0xc0>)
    7968:	681b      	ldr	r3, [r3, #0]
    796a:	4605      	mov	r5, r0
    796c:	460c      	mov	r4, r1
    796e:	b113      	cbz	r3, 7976 <__swsetup_r+0x12>
    7970:	6b5a      	ldr	r2, [r3, #52]	@ 0x34
    7972:	2a00      	cmp	r2, #0
    7974:	d04b      	beq.n	7a0e <__swsetup_r+0xaa>
    7976:	f9b4 300c 	ldrsh.w	r3, [r4, #12]
    797a:	0718      	lsls	r0, r3, #28
    797c:	d51c      	bpl.n	79b8 <__swsetup_r+0x54>
    797e:	6922      	ldr	r2, [r4, #16]
    7980:	b322      	cbz	r2, 79cc <__swsetup_r+0x68>
    7982:	f013 0101 	ands.w	r1, r3, #1
    7986:	d007      	beq.n	7998 <__swsetup_r+0x34>
    7988:	6961      	ldr	r1, [r4, #20]
    798a:	2000      	movs	r0, #0
    798c:	4249      	negs	r1, r1
    798e:	60a0      	str	r0, [r4, #8]
    7990:	61a1      	str	r1, [r4, #24]
    7992:	b13a      	cbz	r2, 79a4 <__swsetup_r+0x40>
    7994:	2000      	movs	r0, #0
    7996:	bd38      	pop	{r3, r4, r5, pc}
    7998:	0798      	lsls	r0, r3, #30
    799a:	bf58      	it	pl
    799c:	6961      	ldrpl	r1, [r4, #20]
    799e:	60a1      	str	r1, [r4, #8]
    79a0:	2a00      	cmp	r2, #0
    79a2:	d1f7      	bne.n	7994 <__swsetup_r+0x30>
    79a4:	0619      	lsls	r1, r3, #24
    79a6:	bf58      	it	pl
    79a8:	4610      	movpl	r0, r2
    79aa:	d5f4      	bpl.n	7996 <__swsetup_r+0x32>
    79ac:	f043 0340 	orr.w	r3, r3, #64	@ 0x40
    79b0:	81a3      	strh	r3, [r4, #12]
    79b2:	f04f 30ff 	mov.w	r0, #4294967295	@ 0xffffffff
    79b6:	bd38      	pop	{r3, r4, r5, pc}
    79b8:	06d9      	lsls	r1, r3, #27
    79ba:	d52c      	bpl.n	7a16 <__swsetup_r+0xb2>
    79bc:	075a      	lsls	r2, r3, #29
    79be:	d412      	bmi.n	79e6 <__swsetup_r+0x82>
    79c0:	6922      	ldr	r2, [r4, #16]
    79c2:	f043 0308 	orr.w	r3, r3, #8
    79c6:	81a3      	strh	r3, [r4, #12]
    79c8:	2a00      	cmp	r2, #0
    79ca:	d1da      	bne.n	7982 <__swsetup_r+0x1e>
    79cc:	f403 7120 	and.w	r1, r3, #640	@ 0x280
    79d0:	f5b1 7f00 	cmp.w	r1, #512	@ 0x200
    79d4:	d0d5      	beq.n	7982 <__swsetup_r+0x1e>
    79d6:	4621      	mov	r1, r4
    79d8:	4628      	mov	r0, r5
    79da:	f000 f84b 	bl	7a74 <__smakebuf_r>
    79de:	f9b4 300c 	ldrsh.w	r3, [r4, #12]
    79e2:	6922      	ldr	r2, [r4, #16]
    79e4:	e7cd      	b.n	7982 <__swsetup_r+0x1e>
    79e6:	6b21      	ldr	r1, [r4, #48]	@ 0x30
    79e8:	b151      	cbz	r1, 7a00 <__swsetup_r+0x9c>
    79ea:	f104 0240 	add.w	r2, r4, #64	@ 0x40
    79ee:	4291      	cmp	r1, r2
    79f0:	d004      	beq.n	79fc <__swsetup_r+0x98>
    79f2:	4628      	mov	r0, r5
    79f4:	f7fd f968 	bl	4cc8 <_free_r>
    79f8:	f9b4 300c 	ldrsh.w	r3, [r4, #12]
    79fc:	2200      	movs	r2, #0
    79fe:	6322      	str	r2, [r4, #48]	@ 0x30
    7a00:	6922      	ldr	r2, [r4, #16]
    7a02:	2100      	movs	r1, #0
    7a04:	e9c4 2100 	strd	r2, r1, [r4]
    7a08:	f023 0324 	bic.w	r3, r3, #36	@ 0x24
    7a0c:	e7d9      	b.n	79c2 <__swsetup_r+0x5e>
    7a0e:	4618      	mov	r0, r3
    7a10:	f7fd fcd4 	bl	53bc <__sinit>
    7a14:	e7af      	b.n	7976 <__swsetup_r+0x12>
    7a16:	2209      	movs	r2, #9
    7a18:	f043 0340 	orr.w	r3, r3, #64	@ 0x40
    7a1c:	602a      	str	r2, [r5, #0]
    7a1e:	81a3      	strh	r3, [r4, #12]
    7a20:	e7c7      	b.n	79b2 <__swsetup_r+0x4e>
    7a22:	bf00      	nop
    7a24:	20000000 	.word	0x20000000

00007a28 <_lseek_r>:
    7a28:	b538      	push	{r3, r4, r5, lr}
    7a2a:	460c      	mov	r4, r1
    7a2c:	4d08      	ldr	r5, [pc, #32]	@ (7a50 <_lseek_r+0x28>)
    7a2e:	4684      	mov	ip, r0
    7a30:	4611      	mov	r1, r2
    7a32:	4620      	mov	r0, r4
    7a34:	461a      	mov	r2, r3
    7a36:	2300      	movs	r3, #0
    7a38:	602b      	str	r3, [r5, #0]
    7a3a:	4664      	mov	r4, ip
    7a3c:	f7f9 fec4 	bl	17c8 <_lseek>
    7a40:	1c43      	adds	r3, r0, #1
    7a42:	d000      	beq.n	7a46 <_lseek_r+0x1e>
    7a44:	bd38      	pop	{r3, r4, r5, pc}
    7a46:	682b      	ldr	r3, [r5, #0]
    7a48:	2b00      	cmp	r3, #0
    7a4a:	d0fb      	beq.n	7a44 <_lseek_r+0x1c>
    7a4c:	6023      	str	r3, [r4, #0]
    7a4e:	bd38      	pop	{r3, r4, r5, pc}
    7a50:	2000087c 	.word	0x2000087c

00007a54 <__sprint_r>:
    7a54:	6893      	ldr	r3, [r2, #8]
    7a56:	b510      	push	{r4, lr}
    7a58:	4614      	mov	r4, r2
    7a5a:	b91b      	cbnz	r3, 7a64 <__sprint_r+0x10>
    7a5c:	4618      	mov	r0, r3
    7a5e:	2300      	movs	r3, #0
    7a60:	6063      	str	r3, [r4, #4]
    7a62:	bd10      	pop	{r4, pc}
    7a64:	f000 f8cc 	bl	7c00 <__sfvwrite_r>
    7a68:	2300      	movs	r3, #0
    7a6a:	60a3      	str	r3, [r4, #8]
    7a6c:	2300      	movs	r3, #0
    7a6e:	6063      	str	r3, [r4, #4]
    7a70:	bd10      	pop	{r4, pc}
    7a72:	bf00      	nop

00007a74 <__smakebuf_r>:
    7a74:	e92d 41f0 	stmdb	sp!, {r4, r5, r6, r7, r8, lr}
    7a78:	f9b1 300c 	ldrsh.w	r3, [r1, #12]
    7a7c:	460c      	mov	r4, r1
    7a7e:	0799      	lsls	r1, r3, #30
    7a80:	b096      	sub	sp, #88	@ 0x58
    7a82:	d508      	bpl.n	7a96 <__smakebuf_r+0x22>
    7a84:	f104 0343 	add.w	r3, r4, #67	@ 0x43
    7a88:	2201      	movs	r2, #1
    7a8a:	e9c4 3204 	strd	r3, r2, [r4, #16]
    7a8e:	6023      	str	r3, [r4, #0]
    7a90:	b016      	add	sp, #88	@ 0x58
    7a92:	e8bd 81f0 	ldmia.w	sp!, {r4, r5, r6, r7, r8, pc}
    7a96:	f9b4 100e 	ldrsh.w	r1, [r4, #14]
    7a9a:	2900      	cmp	r1, #0
    7a9c:	4606      	mov	r6, r0
    7a9e:	db26      	blt.n	7aee <__smakebuf_r+0x7a>
    7aa0:	466a      	mov	r2, sp
    7aa2:	f000 f885 	bl	7bb0 <_fstat_r>
    7aa6:	2800      	cmp	r0, #0
    7aa8:	db1f      	blt.n	7aea <__smakebuf_r+0x76>
    7aaa:	9d01      	ldr	r5, [sp, #4]
    7aac:	f405 4570 	and.w	r5, r5, #61440	@ 0xf000
    7ab0:	f5a5 5500 	sub.w	r5, r5, #8192	@ 0x2000
    7ab4:	fab5 f585 	clz	r5, r5
    7ab8:	f44f 6880 	mov.w	r8, #1024	@ 0x400
    7abc:	096d      	lsrs	r5, r5, #5
    7abe:	f44f 6700 	mov.w	r7, #2048	@ 0x800
    7ac2:	4641      	mov	r1, r8
    7ac4:	4630      	mov	r0, r6
    7ac6:	f7fb fe21 	bl	370c <_malloc_r>
    7aca:	b1e8      	cbz	r0, 7b08 <__smakebuf_r+0x94>
    7acc:	f9b4 300c 	ldrsh.w	r3, [r4, #12]
    7ad0:	f8c4 8014 	str.w	r8, [r4, #20]
    7ad4:	f043 0380 	orr.w	r3, r3, #128	@ 0x80
    7ad8:	6020      	str	r0, [r4, #0]
    7ada:	6120      	str	r0, [r4, #16]
    7adc:	81a3      	strh	r3, [r4, #12]
    7ade:	bb3d      	cbnz	r5, 7b30 <__smakebuf_r+0xbc>
    7ae0:	433b      	orrs	r3, r7
    7ae2:	81a3      	strh	r3, [r4, #12]
    7ae4:	b016      	add	sp, #88	@ 0x58
    7ae6:	e8bd 81f0 	ldmia.w	sp!, {r4, r5, r6, r7, r8, pc}
    7aea:	f9b4 300c 	ldrsh.w	r3, [r4, #12]
    7aee:	f013 0580 	ands.w	r5, r3, #128	@ 0x80
    7af2:	d019      	beq.n	7b28 <__smakebuf_r+0xb4>
    7af4:	f04f 0840 	mov.w	r8, #64	@ 0x40
    7af8:	2500      	movs	r5, #0
    7afa:	4641      	mov	r1, r8
    7afc:	4630      	mov	r0, r6
    7afe:	462f      	mov	r7, r5
    7b00:	f7fb fe04 	bl	370c <_malloc_r>
    7b04:	2800      	cmp	r0, #0
    7b06:	d1e1      	bne.n	7acc <__smakebuf_r+0x58>
    7b08:	f9b4 300c 	ldrsh.w	r3, [r4, #12]
    7b0c:	059a      	lsls	r2, r3, #22
    7b0e:	d4bf      	bmi.n	7a90 <__smakebuf_r+0x1c>
    7b10:	f023 0303 	bic.w	r3, r3, #3
    7b14:	f104 0243 	add.w	r2, r4, #67	@ 0x43
    7b18:	f043 0302 	orr.w	r3, r3, #2
    7b1c:	2101      	movs	r1, #1
    7b1e:	e9c4 2104 	strd	r2, r1, [r4, #16]
    7b22:	81a3      	strh	r3, [r4, #12]
    7b24:	6022      	str	r2, [r4, #0]
    7b26:	e7b3      	b.n	7a90 <__smakebuf_r+0x1c>
    7b28:	f44f 6880 	mov.w	r8, #1024	@ 0x400
    7b2c:	462f      	mov	r7, r5
    7b2e:	e7c8      	b.n	7ac2 <__smakebuf_r+0x4e>
    7b30:	f9b4 100e 	ldrsh.w	r1, [r4, #14]
    7b34:	4630      	mov	r0, r6
    7b36:	f000 f851 	bl	7bdc <_isatty_r>
    7b3a:	b910      	cbnz	r0, 7b42 <__smakebuf_r+0xce>
    7b3c:	f9b4 300c 	ldrsh.w	r3, [r4, #12]
    7b40:	e7ce      	b.n	7ae0 <__smakebuf_r+0x6c>
    7b42:	89a3      	ldrh	r3, [r4, #12]
    7b44:	f023 0303 	bic.w	r3, r3, #3
    7b48:	f043 0301 	orr.w	r3, r3, #1
    7b4c:	b21b      	sxth	r3, r3
    7b4e:	e7c7      	b.n	7ae0 <__smakebuf_r+0x6c>

00007b50 <__swhatbuf_r>:
    7b50:	b570      	push	{r4, r5, r6, lr}
    7b52:	460c      	mov	r4, r1
    7b54:	f9b1 100e 	ldrsh.w	r1, [r1, #14]
    7b58:	2900      	cmp	r1, #0
    7b5a:	b096      	sub	sp, #88	@ 0x58
    7b5c:	4615      	mov	r5, r2
    7b5e:	461e      	mov	r6, r3
    7b60:	db14      	blt.n	7b8c <__swhatbuf_r+0x3c>
    7b62:	466a      	mov	r2, sp
    7b64:	f000 f824 	bl	7bb0 <_fstat_r>
    7b68:	2800      	cmp	r0, #0
    7b6a:	db0f      	blt.n	7b8c <__swhatbuf_r+0x3c>
    7b6c:	9901      	ldr	r1, [sp, #4]
    7b6e:	f401 4170 	and.w	r1, r1, #61440	@ 0xf000
    7b72:	f5a1 5100 	sub.w	r1, r1, #8192	@ 0x2000
    7b76:	fab1 f181 	clz	r1, r1
    7b7a:	f44f 6380 	mov.w	r3, #1024	@ 0x400
    7b7e:	0949      	lsrs	r1, r1, #5
    7b80:	f44f 6000 	mov.w	r0, #2048	@ 0x800
    7b84:	6031      	str	r1, [r6, #0]
    7b86:	602b      	str	r3, [r5, #0]
    7b88:	b016      	add	sp, #88	@ 0x58
    7b8a:	bd70      	pop	{r4, r5, r6, pc}
    7b8c:	89a1      	ldrh	r1, [r4, #12]
    7b8e:	f011 0180 	ands.w	r1, r1, #128	@ 0x80
    7b92:	d006      	beq.n	7ba2 <__swhatbuf_r+0x52>
    7b94:	2100      	movs	r1, #0
    7b96:	2340      	movs	r3, #64	@ 0x40
    7b98:	4608      	mov	r0, r1
    7b9a:	6031      	str	r1, [r6, #0]
    7b9c:	602b      	str	r3, [r5, #0]
    7b9e:	b016      	add	sp, #88	@ 0x58
    7ba0:	bd70      	pop	{r4, r5, r6, pc}
    7ba2:	f44f 6380 	mov.w	r3, #1024	@ 0x400
    7ba6:	4608      	mov	r0, r1
    7ba8:	6031      	str	r1, [r6, #0]
    7baa:	602b      	str	r3, [r5, #0]
    7bac:	b016      	add	sp, #88	@ 0x58
    7bae:	bd70      	pop	{r4, r5, r6, pc}

00007bb0 <_fstat_r>:
    7bb0:	b570      	push	{r4, r5, r6, lr}
    7bb2:	460c      	mov	r4, r1
    7bb4:	4d08      	ldr	r5, [pc, #32]	@ (7bd8 <_fstat_r+0x28>)
    7bb6:	4603      	mov	r3, r0
    7bb8:	2600      	movs	r6, #0
    7bba:	4620      	mov	r0, r4
    7bbc:	4611      	mov	r1, r2
    7bbe:	461c      	mov	r4, r3
    7bc0:	602e      	str	r6, [r5, #0]
    7bc2:	f7f9 fde6 	bl	1792 <_fstat>
    7bc6:	1c43      	adds	r3, r0, #1
    7bc8:	d000      	beq.n	7bcc <_fstat_r+0x1c>
    7bca:	bd70      	pop	{r4, r5, r6, pc}
    7bcc:	682b      	ldr	r3, [r5, #0]
    7bce:	2b00      	cmp	r3, #0
    7bd0:	d0fb      	beq.n	7bca <_fstat_r+0x1a>
    7bd2:	6023      	str	r3, [r4, #0]
    7bd4:	bd70      	pop	{r4, r5, r6, pc}
    7bd6:	bf00      	nop
    7bd8:	2000087c 	.word	0x2000087c

00007bdc <_isatty_r>:
    7bdc:	b538      	push	{r3, r4, r5, lr}
    7bde:	4d07      	ldr	r5, [pc, #28]	@ (7bfc <_isatty_r+0x20>)
    7be0:	2200      	movs	r2, #0
    7be2:	4604      	mov	r4, r0
    7be4:	4608      	mov	r0, r1
    7be6:	602a      	str	r2, [r5, #0]
    7be8:	f7f9 fde3 	bl	17b2 <_isatty>
    7bec:	1c43      	adds	r3, r0, #1
    7bee:	d000      	beq.n	7bf2 <_isatty_r+0x16>
    7bf0:	bd38      	pop	{r3, r4, r5, pc}
    7bf2:	682b      	ldr	r3, [r5, #0]
    7bf4:	2b00      	cmp	r3, #0
    7bf6:	d0fb      	beq.n	7bf0 <_isatty_r+0x14>
    7bf8:	6023      	str	r3, [r4, #0]
    7bfa:	bd38      	pop	{r3, r4, r5, pc}
    7bfc:	2000087c 	.word	0x2000087c

00007c00 <__sfvwrite_r>:
    7c00:	6893      	ldr	r3, [r2, #8]
    7c02:	2b00      	cmp	r3, #0
    7c04:	f000 80f8 	beq.w	7df8 <__sfvwrite_r+0x1f8>
    7c08:	e92d 4ff0 	stmdb	sp!, {r4, r5, r6, r7, r8, r9, sl, fp, lr}
    7c0c:	f9b1 c00c 	ldrsh.w	ip, [r1, #12]
    7c10:	f01c 0f08 	tst.w	ip, #8
    7c14:	b083      	sub	sp, #12
    7c16:	4690      	mov	r8, r2
    7c18:	4681      	mov	r9, r0
    7c1a:	460c      	mov	r4, r1
    7c1c:	d031      	beq.n	7c82 <__sfvwrite_r+0x82>
    7c1e:	690b      	ldr	r3, [r1, #16]
    7c20:	b37b      	cbz	r3, 7c82 <__sfvwrite_r+0x82>
    7c22:	f01c 0702 	ands.w	r7, ip, #2
    7c26:	f8d8 6000 	ldr.w	r6, [r8]
    7c2a:	d038      	beq.n	7c9e <__sfvwrite_r+0x9e>
    7c2c:	2700      	movs	r7, #0
    7c2e:	f8d4 b024 	ldr.w	fp, [r4, #36]	@ 0x24
    7c32:	69e1      	ldr	r1, [r4, #28]
    7c34:	f8df a2c4 	ldr.w	sl, [pc, #708]	@ 7efc <__sfvwrite_r+0x2fc>
    7c38:	463d      	mov	r5, r7
    7c3a:	4555      	cmp	r5, sl
    7c3c:	462b      	mov	r3, r5
    7c3e:	463a      	mov	r2, r7
    7c40:	bf28      	it	cs
    7c42:	4653      	movcs	r3, sl
    7c44:	4648      	mov	r0, r9
    7c46:	b1c5      	cbz	r5, 7c7a <__sfvwrite_r+0x7a>
    7c48:	47d8      	blx	fp
    7c4a:	2800      	cmp	r0, #0
    7c4c:	f340 80ca 	ble.w	7de4 <__sfvwrite_r+0x1e4>
    7c50:	f8d8 3008 	ldr.w	r3, [r8, #8]
    7c54:	1a1b      	subs	r3, r3, r0
    7c56:	4407      	add	r7, r0
    7c58:	1a2d      	subs	r5, r5, r0
    7c5a:	f8c8 3008 	str.w	r3, [r8, #8]
    7c5e:	2b00      	cmp	r3, #0
    7c60:	f000 80b6 	beq.w	7dd0 <__sfvwrite_r+0x1d0>
    7c64:	4555      	cmp	r5, sl
    7c66:	462b      	mov	r3, r5
    7c68:	f8d4 b024 	ldr.w	fp, [r4, #36]	@ 0x24
    7c6c:	69e1      	ldr	r1, [r4, #28]
    7c6e:	bf28      	it	cs
    7c70:	4653      	movcs	r3, sl
    7c72:	463a      	mov	r2, r7
    7c74:	4648      	mov	r0, r9
    7c76:	2d00      	cmp	r5, #0
    7c78:	d1e6      	bne.n	7c48 <__sfvwrite_r+0x48>
    7c7a:	e9d6 7500 	ldrd	r7, r5, [r6]
    7c7e:	3608      	adds	r6, #8
    7c80:	e7db      	b.n	7c3a <__sfvwrite_r+0x3a>
    7c82:	4621      	mov	r1, r4
    7c84:	4648      	mov	r0, r9
    7c86:	f7ff fe6d 	bl	7964 <__swsetup_r>
    7c8a:	2800      	cmp	r0, #0
    7c8c:	f040 80af 	bne.w	7dee <__sfvwrite_r+0x1ee>
    7c90:	f9b4 c00c 	ldrsh.w	ip, [r4, #12]
    7c94:	f8d8 6000 	ldr.w	r6, [r8]
    7c98:	f01c 0702 	ands.w	r7, ip, #2
    7c9c:	d1c6      	bne.n	7c2c <__sfvwrite_r+0x2c>
    7c9e:	f01c 0a01 	ands.w	sl, ip, #1
    7ca2:	d163      	bne.n	7d6c <__sfvwrite_r+0x16c>
    7ca4:	6823      	ldr	r3, [r4, #0]
    7ca6:	68a1      	ldr	r1, [r4, #8]
    7ca8:	4657      	mov	r7, sl
    7caa:	4618      	mov	r0, r3
    7cac:	468b      	mov	fp, r1
    7cae:	2f00      	cmp	r7, #0
    7cb0:	d058      	beq.n	7d64 <__sfvwrite_r+0x164>
    7cb2:	f41c 7f00 	tst.w	ip, #512	@ 0x200
    7cb6:	f000 80b5 	beq.w	7e24 <__sfvwrite_r+0x224>
    7cba:	42b9      	cmp	r1, r7
    7cbc:	460a      	mov	r2, r1
    7cbe:	f200 80e1 	bhi.w	7e84 <__sfvwrite_r+0x284>
    7cc2:	f41c 6f90 	tst.w	ip, #1152	@ 0x480
    7cc6:	d02f      	beq.n	7d28 <__sfvwrite_r+0x128>
    7cc8:	6921      	ldr	r1, [r4, #16]
    7cca:	6962      	ldr	r2, [r4, #20]
    7ccc:	1a5d      	subs	r5, r3, r1
    7cce:	eb02 0242 	add.w	r2, r2, r2, lsl #1
    7cd2:	eb02 72d2 	add.w	r2, r2, r2, lsr #31
    7cd6:	1c6b      	adds	r3, r5, #1
    7cd8:	1052      	asrs	r2, r2, #1
    7cda:	443b      	add	r3, r7
    7cdc:	4293      	cmp	r3, r2
    7cde:	bf92      	itee	ls
    7ce0:	4693      	movls	fp, r2
    7ce2:	469b      	movhi	fp, r3
    7ce4:	461a      	movhi	r2, r3
    7ce6:	f41c 6f80 	tst.w	ip, #1024	@ 0x400
    7cea:	f000 80ea 	beq.w	7ec2 <__sfvwrite_r+0x2c2>
    7cee:	4611      	mov	r1, r2
    7cf0:	4648      	mov	r0, r9
    7cf2:	f7fb fd0b 	bl	370c <_malloc_r>
    7cf6:	2800      	cmp	r0, #0
    7cf8:	f000 80f9 	beq.w	7eee <__sfvwrite_r+0x2ee>
    7cfc:	462a      	mov	r2, r5
    7cfe:	6921      	ldr	r1, [r4, #16]
    7d00:	9000      	str	r0, [sp, #0]
    7d02:	f7fd f9c9 	bl	5098 <memcpy>
    7d06:	89a2      	ldrh	r2, [r4, #12]
    7d08:	9b00      	ldr	r3, [sp, #0]
    7d0a:	f422 6290 	bic.w	r2, r2, #1152	@ 0x480
    7d0e:	f042 0280 	orr.w	r2, r2, #128	@ 0x80
    7d12:	81a2      	strh	r2, [r4, #12]
    7d14:	1958      	adds	r0, r3, r5
    7d16:	ebab 0505 	sub.w	r5, fp, r5
    7d1a:	f8c4 b014 	str.w	fp, [r4, #20]
    7d1e:	6123      	str	r3, [r4, #16]
    7d20:	60a5      	str	r5, [r4, #8]
    7d22:	6020      	str	r0, [r4, #0]
    7d24:	46bb      	mov	fp, r7
    7d26:	463a      	mov	r2, r7
    7d28:	4651      	mov	r1, sl
    7d2a:	9200      	str	r2, [sp, #0]
    7d2c:	f7fe ffe2 	bl	6cf4 <memmove>
    7d30:	68a1      	ldr	r1, [r4, #8]
    7d32:	6823      	ldr	r3, [r4, #0]
    7d34:	9a00      	ldr	r2, [sp, #0]
    7d36:	eba1 010b 	sub.w	r1, r1, fp
    7d3a:	441a      	add	r2, r3
    7d3c:	463d      	mov	r5, r7
    7d3e:	60a1      	str	r1, [r4, #8]
    7d40:	6022      	str	r2, [r4, #0]
    7d42:	2700      	movs	r7, #0
    7d44:	f8d8 3008 	ldr.w	r3, [r8, #8]
    7d48:	1b5b      	subs	r3, r3, r5
    7d4a:	44aa      	add	sl, r5
    7d4c:	f8c8 3008 	str.w	r3, [r8, #8]
    7d50:	2b00      	cmp	r3, #0
    7d52:	d03d      	beq.n	7dd0 <__sfvwrite_r+0x1d0>
    7d54:	6823      	ldr	r3, [r4, #0]
    7d56:	68a1      	ldr	r1, [r4, #8]
    7d58:	f9b4 c00c 	ldrsh.w	ip, [r4, #12]
    7d5c:	4618      	mov	r0, r3
    7d5e:	468b      	mov	fp, r1
    7d60:	2f00      	cmp	r7, #0
    7d62:	d1a6      	bne.n	7cb2 <__sfvwrite_r+0xb2>
    7d64:	e9d6 a700 	ldrd	sl, r7, [r6]
    7d68:	3608      	adds	r6, #8
    7d6a:	e79e      	b.n	7caa <__sfvwrite_r+0xaa>
    7d6c:	4638      	mov	r0, r7
    7d6e:	46bb      	mov	fp, r7
    7d70:	463d      	mov	r5, r7
    7d72:	9700      	str	r7, [sp, #0]
    7d74:	2d00      	cmp	r5, #0
    7d76:	d041      	beq.n	7dfc <__sfvwrite_r+0x1fc>
    7d78:	2800      	cmp	r0, #0
    7d7a:	d046      	beq.n	7e0a <__sfvwrite_r+0x20a>
    7d7c:	9a00      	ldr	r2, [sp, #0]
    7d7e:	6820      	ldr	r0, [r4, #0]
    7d80:	68a1      	ldr	r1, [r4, #8]
    7d82:	e9d4 7304 	ldrd	r7, r3, [r4, #16]
    7d86:	42aa      	cmp	r2, r5
    7d88:	bf28      	it	cs
    7d8a:	462a      	movcs	r2, r5
    7d8c:	42b8      	cmp	r0, r7
    7d8e:	d904      	bls.n	7d9a <__sfvwrite_r+0x19a>
    7d90:	eb01 0a03 	add.w	sl, r1, r3
    7d94:	4552      	cmp	r2, sl
    7d96:	f300 8085 	bgt.w	7ea4 <__sfvwrite_r+0x2a4>
    7d9a:	4293      	cmp	r3, r2
    7d9c:	dc75      	bgt.n	7e8a <__sfvwrite_r+0x28a>
    7d9e:	69e1      	ldr	r1, [r4, #28]
    7da0:	6a67      	ldr	r7, [r4, #36]	@ 0x24
    7da2:	465a      	mov	r2, fp
    7da4:	4648      	mov	r0, r9
    7da6:	47b8      	blx	r7
    7da8:	f1b0 0a00 	subs.w	sl, r0, #0
    7dac:	dd1a      	ble.n	7de4 <__sfvwrite_r+0x1e4>
    7dae:	9b00      	ldr	r3, [sp, #0]
    7db0:	ebb3 030a 	subs.w	r3, r3, sl
    7db4:	9300      	str	r3, [sp, #0]
    7db6:	d00f      	beq.n	7dd8 <__sfvwrite_r+0x1d8>
    7db8:	2001      	movs	r0, #1
    7dba:	f8d8 3008 	ldr.w	r3, [r8, #8]
    7dbe:	eba3 030a 	sub.w	r3, r3, sl
    7dc2:	44d3      	add	fp, sl
    7dc4:	eba5 050a 	sub.w	r5, r5, sl
    7dc8:	f8c8 3008 	str.w	r3, [r8, #8]
    7dcc:	2b00      	cmp	r3, #0
    7dce:	d1d1      	bne.n	7d74 <__sfvwrite_r+0x174>
    7dd0:	2000      	movs	r0, #0
    7dd2:	b003      	add	sp, #12
    7dd4:	e8bd 8ff0 	ldmia.w	sp!, {r4, r5, r6, r7, r8, r9, sl, fp, pc}
    7dd8:	4621      	mov	r1, r4
    7dda:	4648      	mov	r0, r9
    7ddc:	f7fe ff50 	bl	6c80 <_fflush_r>
    7de0:	2800      	cmp	r0, #0
    7de2:	d0ea      	beq.n	7dba <__sfvwrite_r+0x1ba>
    7de4:	f9b4 300c 	ldrsh.w	r3, [r4, #12]
    7de8:	f043 0340 	orr.w	r3, r3, #64	@ 0x40
    7dec:	81a3      	strh	r3, [r4, #12]
    7dee:	f04f 30ff 	mov.w	r0, #4294967295	@ 0xffffffff
    7df2:	b003      	add	sp, #12
    7df4:	e8bd 8ff0 	ldmia.w	sp!, {r4, r5, r6, r7, r8, r9, sl, fp, pc}
    7df8:	2000      	movs	r0, #0
    7dfa:	4770      	bx	lr
    7dfc:	6875      	ldr	r5, [r6, #4]
    7dfe:	4633      	mov	r3, r6
    7e00:	3608      	adds	r6, #8
    7e02:	2d00      	cmp	r5, #0
    7e04:	d0fa      	beq.n	7dfc <__sfvwrite_r+0x1fc>
    7e06:	f8d3 b000 	ldr.w	fp, [r3]
    7e0a:	462a      	mov	r2, r5
    7e0c:	210a      	movs	r1, #10
    7e0e:	4658      	mov	r0, fp
    7e10:	f7fe f99e 	bl	6150 <memchr>
    7e14:	2800      	cmp	r0, #0
    7e16:	d067      	beq.n	7ee8 <__sfvwrite_r+0x2e8>
    7e18:	3001      	adds	r0, #1
    7e1a:	eba0 030b 	sub.w	r3, r0, fp
    7e1e:	9300      	str	r3, [sp, #0]
    7e20:	461a      	mov	r2, r3
    7e22:	e7ac      	b.n	7d7e <__sfvwrite_r+0x17e>
    7e24:	6922      	ldr	r2, [r4, #16]
    7e26:	429a      	cmp	r2, r3
    7e28:	d314      	bcc.n	7e54 <__sfvwrite_r+0x254>
    7e2a:	6962      	ldr	r2, [r4, #20]
    7e2c:	42ba      	cmp	r2, r7
    7e2e:	d811      	bhi.n	7e54 <__sfvwrite_r+0x254>
    7e30:	f06f 4300 	mvn.w	r3, #2147483648	@ 0x80000000
    7e34:	42bb      	cmp	r3, r7
    7e36:	bf28      	it	cs
    7e38:	463b      	movcs	r3, r7
    7e3a:	6a65      	ldr	r5, [r4, #36]	@ 0x24
    7e3c:	fb93 f3f2 	sdiv	r3, r3, r2
    7e40:	69e1      	ldr	r1, [r4, #28]
    7e42:	fb02 f303 	mul.w	r3, r2, r3
    7e46:	4648      	mov	r0, r9
    7e48:	4652      	mov	r2, sl
    7e4a:	47a8      	blx	r5
    7e4c:	1e05      	subs	r5, r0, #0
    7e4e:	ddc9      	ble.n	7de4 <__sfvwrite_r+0x1e4>
    7e50:	1b7f      	subs	r7, r7, r5
    7e52:	e777      	b.n	7d44 <__sfvwrite_r+0x144>
    7e54:	42b9      	cmp	r1, r7
    7e56:	bf28      	it	cs
    7e58:	4639      	movcs	r1, r7
    7e5a:	460d      	mov	r5, r1
    7e5c:	4618      	mov	r0, r3
    7e5e:	460a      	mov	r2, r1
    7e60:	4651      	mov	r1, sl
    7e62:	f7fe ff47 	bl	6cf4 <memmove>
    7e66:	68a1      	ldr	r1, [r4, #8]
    7e68:	6823      	ldr	r3, [r4, #0]
    7e6a:	1b49      	subs	r1, r1, r5
    7e6c:	442b      	add	r3, r5
    7e6e:	60a1      	str	r1, [r4, #8]
    7e70:	6023      	str	r3, [r4, #0]
    7e72:	2900      	cmp	r1, #0
    7e74:	d1ec      	bne.n	7e50 <__sfvwrite_r+0x250>
    7e76:	4621      	mov	r1, r4
    7e78:	4648      	mov	r0, r9
    7e7a:	f7fe ff01 	bl	6c80 <_fflush_r>
    7e7e:	2800      	cmp	r0, #0
    7e80:	d0e6      	beq.n	7e50 <__sfvwrite_r+0x250>
    7e82:	e7af      	b.n	7de4 <__sfvwrite_r+0x1e4>
    7e84:	46bb      	mov	fp, r7
    7e86:	463a      	mov	r2, r7
    7e88:	e74e      	b.n	7d28 <__sfvwrite_r+0x128>
    7e8a:	4659      	mov	r1, fp
    7e8c:	9201      	str	r2, [sp, #4]
    7e8e:	f7fe ff31 	bl	6cf4 <memmove>
    7e92:	9a01      	ldr	r2, [sp, #4]
    7e94:	68a3      	ldr	r3, [r4, #8]
    7e96:	1a9b      	subs	r3, r3, r2
    7e98:	60a3      	str	r3, [r4, #8]
    7e9a:	6823      	ldr	r3, [r4, #0]
    7e9c:	4413      	add	r3, r2
    7e9e:	6023      	str	r3, [r4, #0]
    7ea0:	4692      	mov	sl, r2
    7ea2:	e784      	b.n	7dae <__sfvwrite_r+0x1ae>
    7ea4:	4659      	mov	r1, fp
    7ea6:	4652      	mov	r2, sl
    7ea8:	f7fe ff24 	bl	6cf4 <memmove>
    7eac:	6823      	ldr	r3, [r4, #0]
    7eae:	4453      	add	r3, sl
    7eb0:	6023      	str	r3, [r4, #0]
    7eb2:	4621      	mov	r1, r4
    7eb4:	4648      	mov	r0, r9
    7eb6:	f7fe fee3 	bl	6c80 <_fflush_r>
    7eba:	2800      	cmp	r0, #0
    7ebc:	f43f af77 	beq.w	7dae <__sfvwrite_r+0x1ae>
    7ec0:	e790      	b.n	7de4 <__sfvwrite_r+0x1e4>
    7ec2:	4648      	mov	r0, r9
    7ec4:	f7fe fb1e 	bl	6504 <_realloc_r>
    7ec8:	4603      	mov	r3, r0
    7eca:	2800      	cmp	r0, #0
    7ecc:	f47f af22 	bne.w	7d14 <__sfvwrite_r+0x114>
    7ed0:	6921      	ldr	r1, [r4, #16]
    7ed2:	4648      	mov	r0, r9
    7ed4:	f7fc fef8 	bl	4cc8 <_free_r>
    7ed8:	f9b4 300c 	ldrsh.w	r3, [r4, #12]
    7edc:	220c      	movs	r2, #12
    7ede:	f8c9 2000 	str.w	r2, [r9]
    7ee2:	f023 0380 	bic.w	r3, r3, #128	@ 0x80
    7ee6:	e77f      	b.n	7de8 <__sfvwrite_r+0x1e8>
    7ee8:	1c6a      	adds	r2, r5, #1
    7eea:	9200      	str	r2, [sp, #0]
    7eec:	e747      	b.n	7d7e <__sfvwrite_r+0x17e>
    7eee:	220c      	movs	r2, #12
    7ef0:	f9b4 300c 	ldrsh.w	r3, [r4, #12]
    7ef4:	f8c9 2000 	str.w	r2, [r9]
    7ef8:	e776      	b.n	7de8 <__sfvwrite_r+0x1e8>
    7efa:	bf00      	nop
    7efc:	7ffffc00 	.word	0x7ffffc00

00007f00 <__aeabi_drsub>:
    7f00:	f081 4100 	eor.w	r1, r1, #2147483648	@ 0x80000000
    7f04:	e002      	b.n	7f0c <__adddf3>
    7f06:	bf00      	nop

00007f08 <__aeabi_dsub>:
    7f08:	f083 4300 	eor.w	r3, r3, #2147483648	@ 0x80000000

00007f0c <__adddf3>:
    7f0c:	b530      	push	{r4, r5, lr}
    7f0e:	ea4f 0441 	mov.w	r4, r1, lsl #1
    7f12:	ea4f 0543 	mov.w	r5, r3, lsl #1
    7f16:	ea94 0f05 	teq	r4, r5
    7f1a:	bf08      	it	eq
    7f1c:	ea90 0f02 	teqeq	r0, r2
    7f20:	bf1f      	itttt	ne
    7f22:	ea54 0c00 	orrsne.w	ip, r4, r0
    7f26:	ea55 0c02 	orrsne.w	ip, r5, r2
    7f2a:	ea7f 5c64 	mvnsne.w	ip, r4, asr #21
    7f2e:	ea7f 5c65 	mvnsne.w	ip, r5, asr #21
    7f32:	f000 80e2 	beq.w	80fa <__adddf3+0x1ee>
    7f36:	ea4f 5454 	mov.w	r4, r4, lsr #21
    7f3a:	ebd4 5555 	rsbs	r5, r4, r5, lsr #21
    7f3e:	bfb8      	it	lt
    7f40:	426d      	neglt	r5, r5
    7f42:	dd0c      	ble.n	7f5e <__adddf3+0x52>
    7f44:	442c      	add	r4, r5
    7f46:	ea80 0202 	eor.w	r2, r0, r2
    7f4a:	ea81 0303 	eor.w	r3, r1, r3
    7f4e:	ea82 0000 	eor.w	r0, r2, r0
    7f52:	ea83 0101 	eor.w	r1, r3, r1
    7f56:	ea80 0202 	eor.w	r2, r0, r2
    7f5a:	ea81 0303 	eor.w	r3, r1, r3
    7f5e:	2d36      	cmp	r5, #54	@ 0x36
    7f60:	bf88      	it	hi
    7f62:	bd30      	pophi	{r4, r5, pc}
    7f64:	f011 4f00 	tst.w	r1, #2147483648	@ 0x80000000
    7f68:	ea4f 3101 	mov.w	r1, r1, lsl #12
    7f6c:	f44f 1c80 	mov.w	ip, #1048576	@ 0x100000
    7f70:	ea4c 3111 	orr.w	r1, ip, r1, lsr #12
    7f74:	d002      	beq.n	7f7c <__adddf3+0x70>
    7f76:	4240      	negs	r0, r0
    7f78:	eb61 0141 	sbc.w	r1, r1, r1, lsl #1
    7f7c:	f013 4f00 	tst.w	r3, #2147483648	@ 0x80000000
    7f80:	ea4f 3303 	mov.w	r3, r3, lsl #12
    7f84:	ea4c 3313 	orr.w	r3, ip, r3, lsr #12
    7f88:	d002      	beq.n	7f90 <__adddf3+0x84>
    7f8a:	4252      	negs	r2, r2
    7f8c:	eb63 0343 	sbc.w	r3, r3, r3, lsl #1
    7f90:	ea94 0f05 	teq	r4, r5
    7f94:	f000 80a7 	beq.w	80e6 <__adddf3+0x1da>
    7f98:	f1a4 0401 	sub.w	r4, r4, #1
    7f9c:	f1d5 0e20 	rsbs	lr, r5, #32
    7fa0:	db0d      	blt.n	7fbe <__adddf3+0xb2>
    7fa2:	fa02 fc0e 	lsl.w	ip, r2, lr
    7fa6:	fa22 f205 	lsr.w	r2, r2, r5
    7faa:	1880      	adds	r0, r0, r2
    7fac:	f141 0100 	adc.w	r1, r1, #0
    7fb0:	fa03 f20e 	lsl.w	r2, r3, lr
    7fb4:	1880      	adds	r0, r0, r2
    7fb6:	fa43 f305 	asr.w	r3, r3, r5
    7fba:	4159      	adcs	r1, r3
    7fbc:	e00e      	b.n	7fdc <__adddf3+0xd0>
    7fbe:	f1a5 0520 	sub.w	r5, r5, #32
    7fc2:	f10e 0e20 	add.w	lr, lr, #32
    7fc6:	2a01      	cmp	r2, #1
    7fc8:	fa03 fc0e 	lsl.w	ip, r3, lr
    7fcc:	bf28      	it	cs
    7fce:	f04c 0c02 	orrcs.w	ip, ip, #2
    7fd2:	fa43 f305 	asr.w	r3, r3, r5
    7fd6:	18c0      	adds	r0, r0, r3
    7fd8:	eb51 71e3 	adcs.w	r1, r1, r3, asr #31
    7fdc:	f001 4500 	and.w	r5, r1, #2147483648	@ 0x80000000
    7fe0:	d507      	bpl.n	7ff2 <__adddf3+0xe6>
    7fe2:	f04f 0e00 	mov.w	lr, #0
    7fe6:	f1dc 0c00 	rsbs	ip, ip, #0
    7fea:	eb7e 0000 	sbcs.w	r0, lr, r0
    7fee:	eb6e 0101 	sbc.w	r1, lr, r1
    7ff2:	f5b1 1f80 	cmp.w	r1, #1048576	@ 0x100000
    7ff6:	d31b      	bcc.n	8030 <__adddf3+0x124>
    7ff8:	f5b1 1f00 	cmp.w	r1, #2097152	@ 0x200000
    7ffc:	d30c      	bcc.n	8018 <__adddf3+0x10c>
    7ffe:	0849      	lsrs	r1, r1, #1
    8000:	ea5f 0030 	movs.w	r0, r0, rrx
    8004:	ea4f 0c3c 	mov.w	ip, ip, rrx
    8008:	f104 0401 	add.w	r4, r4, #1
    800c:	ea4f 5244 	mov.w	r2, r4, lsl #21
    8010:	f512 0f80 	cmn.w	r2, #4194304	@ 0x400000
    8014:	f080 809a 	bcs.w	814c <__adddf3+0x240>
    8018:	f1bc 4f00 	cmp.w	ip, #2147483648	@ 0x80000000
    801c:	bf08      	it	eq
    801e:	ea5f 0c50 	movseq.w	ip, r0, lsr #1
    8022:	f150 0000 	adcs.w	r0, r0, #0
    8026:	eb41 5104 	adc.w	r1, r1, r4, lsl #20
    802a:	ea41 0105 	orr.w	r1, r1, r5
    802e:	bd30      	pop	{r4, r5, pc}
    8030:	ea5f 0c4c 	movs.w	ip, ip, lsl #1
    8034:	4140      	adcs	r0, r0
    8036:	eb41 0101 	adc.w	r1, r1, r1
    803a:	3c01      	subs	r4, #1
    803c:	bf28      	it	cs
    803e:	f5b1 1f80 	cmpcs.w	r1, #1048576	@ 0x100000
    8042:	d2e9      	bcs.n	8018 <__adddf3+0x10c>
    8044:	f091 0f00 	teq	r1, #0
    8048:	bf04      	itt	eq
    804a:	4601      	moveq	r1, r0
    804c:	2000      	moveq	r0, #0
    804e:	fab1 f381 	clz	r3, r1
    8052:	bf08      	it	eq
    8054:	3320      	addeq	r3, #32
    8056:	f1a3 030b 	sub.w	r3, r3, #11
    805a:	f1b3 0220 	subs.w	r2, r3, #32
    805e:	da0c      	bge.n	807a <__adddf3+0x16e>
    8060:	320c      	adds	r2, #12
    8062:	dd08      	ble.n	8076 <__adddf3+0x16a>
    8064:	f102 0c14 	add.w	ip, r2, #20
    8068:	f1c2 020c 	rsb	r2, r2, #12
    806c:	fa01 f00c 	lsl.w	r0, r1, ip
    8070:	fa21 f102 	lsr.w	r1, r1, r2
    8074:	e00c      	b.n	8090 <__adddf3+0x184>
    8076:	f102 0214 	add.w	r2, r2, #20
    807a:	bfd8      	it	le
    807c:	f1c2 0c20 	rsble	ip, r2, #32
    8080:	fa01 f102 	lsl.w	r1, r1, r2
    8084:	fa20 fc0c 	lsr.w	ip, r0, ip
    8088:	bfdc      	itt	le
    808a:	ea41 010c 	orrle.w	r1, r1, ip
    808e:	4090      	lslle	r0, r2
    8090:	1ae4      	subs	r4, r4, r3
    8092:	bfa2      	ittt	ge
    8094:	eb01 5104 	addge.w	r1, r1, r4, lsl #20
    8098:	4329      	orrge	r1, r5
    809a:	bd30      	popge	{r4, r5, pc}
    809c:	ea6f 0404 	mvn.w	r4, r4
    80a0:	3c1f      	subs	r4, #31
    80a2:	da1c      	bge.n	80de <__adddf3+0x1d2>
    80a4:	340c      	adds	r4, #12
    80a6:	dc0e      	bgt.n	80c6 <__adddf3+0x1ba>
    80a8:	f104 0414 	add.w	r4, r4, #20
    80ac:	f1c4 0220 	rsb	r2, r4, #32
    80b0:	fa20 f004 	lsr.w	r0, r0, r4
    80b4:	fa01 f302 	lsl.w	r3, r1, r2
    80b8:	ea40 0003 	orr.w	r0, r0, r3
    80bc:	fa21 f304 	lsr.w	r3, r1, r4
    80c0:	ea45 0103 	orr.w	r1, r5, r3
    80c4:	bd30      	pop	{r4, r5, pc}
    80c6:	f1c4 040c 	rsb	r4, r4, #12
    80ca:	f1c4 0220 	rsb	r2, r4, #32
    80ce:	fa20 f002 	lsr.w	r0, r0, r2
    80d2:	fa01 f304 	lsl.w	r3, r1, r4
    80d6:	ea40 0003 	orr.w	r0, r0, r3
    80da:	4629      	mov	r1, r5
    80dc:	bd30      	pop	{r4, r5, pc}
    80de:	fa21 f004 	lsr.w	r0, r1, r4
    80e2:	4629      	mov	r1, r5
    80e4:	bd30      	pop	{r4, r5, pc}
    80e6:	f094 0f00 	teq	r4, #0
    80ea:	f483 1380 	eor.w	r3, r3, #1048576	@ 0x100000
    80ee:	bf06      	itte	eq
    80f0:	f481 1180 	eoreq.w	r1, r1, #1048576	@ 0x100000
    80f4:	3401      	addeq	r4, #1
    80f6:	3d01      	subne	r5, #1
    80f8:	e74e      	b.n	7f98 <__adddf3+0x8c>
    80fa:	ea7f 5c64 	mvns.w	ip, r4, asr #21
    80fe:	bf18      	it	ne
    8100:	ea7f 5c65 	mvnsne.w	ip, r5, asr #21
    8104:	d029      	beq.n	815a <__adddf3+0x24e>
    8106:	ea94 0f05 	teq	r4, r5
    810a:	bf08      	it	eq
    810c:	ea90 0f02 	teqeq	r0, r2
    8110:	d005      	beq.n	811e <__adddf3+0x212>
    8112:	ea54 0c00 	orrs.w	ip, r4, r0
    8116:	bf04      	itt	eq
    8118:	4619      	moveq	r1, r3
    811a:	4610      	moveq	r0, r2
    811c:	bd30      	pop	{r4, r5, pc}
    811e:	ea91 0f03 	teq	r1, r3
    8122:	bf1e      	ittt	ne
    8124:	2100      	movne	r1, #0
    8126:	2000      	movne	r0, #0
    8128:	bd30      	popne	{r4, r5, pc}
    812a:	ea5f 5c54 	movs.w	ip, r4, lsr #21
    812e:	d105      	bne.n	813c <__adddf3+0x230>
    8130:	0040      	lsls	r0, r0, #1
    8132:	4149      	adcs	r1, r1
    8134:	bf28      	it	cs
    8136:	f041 4100 	orrcs.w	r1, r1, #2147483648	@ 0x80000000
    813a:	bd30      	pop	{r4, r5, pc}
    813c:	f514 0480 	adds.w	r4, r4, #4194304	@ 0x400000
    8140:	bf3c      	itt	cc
    8142:	f501 1180 	addcc.w	r1, r1, #1048576	@ 0x100000
    8146:	bd30      	popcc	{r4, r5, pc}
    8148:	f001 4500 	and.w	r5, r1, #2147483648	@ 0x80000000
    814c:	f045 41fe 	orr.w	r1, r5, #2130706432	@ 0x7f000000
    8150:	f441 0170 	orr.w	r1, r1, #15728640	@ 0xf00000
    8154:	f04f 0000 	mov.w	r0, #0
    8158:	bd30      	pop	{r4, r5, pc}
    815a:	ea7f 5c64 	mvns.w	ip, r4, asr #21
    815e:	bf1a      	itte	ne
    8160:	4619      	movne	r1, r3
    8162:	4610      	movne	r0, r2
    8164:	ea7f 5c65 	mvnseq.w	ip, r5, asr #21
    8168:	bf1c      	itt	ne
    816a:	460b      	movne	r3, r1
    816c:	4602      	movne	r2, r0
    816e:	ea50 3401 	orrs.w	r4, r0, r1, lsl #12
    8172:	bf06      	itte	eq
    8174:	ea52 3503 	orrseq.w	r5, r2, r3, lsl #12
    8178:	ea91 0f03 	teqeq	r1, r3
    817c:	f441 2100 	orrne.w	r1, r1, #524288	@ 0x80000
    8180:	bd30      	pop	{r4, r5, pc}
    8182:	bf00      	nop

00008184 <__aeabi_ui2d>:
    8184:	f090 0f00 	teq	r0, #0
    8188:	bf04      	itt	eq
    818a:	2100      	moveq	r1, #0
    818c:	4770      	bxeq	lr
    818e:	b530      	push	{r4, r5, lr}
    8190:	f44f 6480 	mov.w	r4, #1024	@ 0x400
    8194:	f104 0432 	add.w	r4, r4, #50	@ 0x32
    8198:	f04f 0500 	mov.w	r5, #0
    819c:	f04f 0100 	mov.w	r1, #0
    81a0:	e750      	b.n	8044 <__adddf3+0x138>
    81a2:	bf00      	nop

000081a4 <__aeabi_i2d>:
    81a4:	f090 0f00 	teq	r0, #0
    81a8:	bf04      	itt	eq
    81aa:	2100      	moveq	r1, #0
    81ac:	4770      	bxeq	lr
    81ae:	b530      	push	{r4, r5, lr}
    81b0:	f44f 6480 	mov.w	r4, #1024	@ 0x400
    81b4:	f104 0432 	add.w	r4, r4, #50	@ 0x32
    81b8:	f010 4500 	ands.w	r5, r0, #2147483648	@ 0x80000000
    81bc:	bf48      	it	mi
    81be:	4240      	negmi	r0, r0
    81c0:	f04f 0100 	mov.w	r1, #0
    81c4:	e73e      	b.n	8044 <__adddf3+0x138>
    81c6:	bf00      	nop

000081c8 <__aeabi_f2d>:
    81c8:	0042      	lsls	r2, r0, #1
    81ca:	ea4f 01e2 	mov.w	r1, r2, asr #3
    81ce:	ea4f 0131 	mov.w	r1, r1, rrx
    81d2:	ea4f 7002 	mov.w	r0, r2, lsl #28
    81d6:	bf1f      	itttt	ne
    81d8:	f012 437f 	andsne.w	r3, r2, #4278190080	@ 0xff000000
    81dc:	f093 4f7f 	teqne	r3, #4278190080	@ 0xff000000
    81e0:	f081 5160 	eorne.w	r1, r1, #939524096	@ 0x38000000
    81e4:	4770      	bxne	lr
    81e6:	f032 427f 	bics.w	r2, r2, #4278190080	@ 0xff000000
    81ea:	bf08      	it	eq
    81ec:	4770      	bxeq	lr
    81ee:	f093 4f7f 	teq	r3, #4278190080	@ 0xff000000
    81f2:	bf04      	itt	eq
    81f4:	f441 2100 	orreq.w	r1, r1, #524288	@ 0x80000
    81f8:	4770      	bxeq	lr
    81fa:	b530      	push	{r4, r5, lr}
    81fc:	f44f 7460 	mov.w	r4, #896	@ 0x380
    8200:	f001 4500 	and.w	r5, r1, #2147483648	@ 0x80000000
    8204:	f021 4100 	bic.w	r1, r1, #2147483648	@ 0x80000000
    8208:	e71c      	b.n	8044 <__adddf3+0x138>
    820a:	bf00      	nop

0000820c <__aeabi_ul2d>:
    820c:	ea50 0201 	orrs.w	r2, r0, r1
    8210:	bf08      	it	eq
    8212:	4770      	bxeq	lr
    8214:	b530      	push	{r4, r5, lr}
    8216:	f04f 0500 	mov.w	r5, #0
    821a:	e00a      	b.n	8232 <__aeabi_l2d+0x16>

0000821c <__aeabi_l2d>:
    821c:	ea50 0201 	orrs.w	r2, r0, r1
    8220:	bf08      	it	eq
    8222:	4770      	bxeq	lr
    8224:	b530      	push	{r4, r5, lr}
    8226:	f011 4500 	ands.w	r5, r1, #2147483648	@ 0x80000000
    822a:	d502      	bpl.n	8232 <__aeabi_l2d+0x16>
    822c:	4240      	negs	r0, r0
    822e:	eb61 0141 	sbc.w	r1, r1, r1, lsl #1
    8232:	f44f 6480 	mov.w	r4, #1024	@ 0x400
    8236:	f104 0432 	add.w	r4, r4, #50	@ 0x32
    823a:	ea5f 5c91 	movs.w	ip, r1, lsr #22
    823e:	f43f aed8 	beq.w	7ff2 <__adddf3+0xe6>
    8242:	f04f 0203 	mov.w	r2, #3
    8246:	ea5f 0cdc 	movs.w	ip, ip, lsr #3
    824a:	bf18      	it	ne
    824c:	3203      	addne	r2, #3
    824e:	ea5f 0cdc 	movs.w	ip, ip, lsr #3
    8252:	bf18      	it	ne
    8254:	3203      	addne	r2, #3
    8256:	eb02 02dc 	add.w	r2, r2, ip, lsr #3
    825a:	f1c2 0320 	rsb	r3, r2, #32
    825e:	fa00 fc03 	lsl.w	ip, r0, r3
    8262:	fa20 f002 	lsr.w	r0, r0, r2
    8266:	fa01 fe03 	lsl.w	lr, r1, r3
    826a:	ea40 000e 	orr.w	r0, r0, lr
    826e:	fa21 f102 	lsr.w	r1, r1, r2
    8272:	4414      	add	r4, r2
    8274:	e6bd      	b.n	7ff2 <__adddf3+0xe6>
    8276:	bf00      	nop

00008278 <__aeabi_dmul>:
    8278:	b570      	push	{r4, r5, r6, lr}
    827a:	f04f 0cff 	mov.w	ip, #255	@ 0xff
    827e:	f44c 6ce0 	orr.w	ip, ip, #1792	@ 0x700
    8282:	ea1c 5411 	ands.w	r4, ip, r1, lsr #20
    8286:	bf1d      	ittte	ne
    8288:	ea1c 5513 	andsne.w	r5, ip, r3, lsr #20
    828c:	ea94 0f0c 	teqne	r4, ip
    8290:	ea95 0f0c 	teqne	r5, ip
    8294:	f000 f8de 	bleq	8454 <__aeabi_dmul+0x1dc>
    8298:	442c      	add	r4, r5
    829a:	ea81 0603 	eor.w	r6, r1, r3
    829e:	ea21 514c 	bic.w	r1, r1, ip, lsl #21
    82a2:	ea23 534c 	bic.w	r3, r3, ip, lsl #21
    82a6:	ea50 3501 	orrs.w	r5, r0, r1, lsl #12
    82aa:	bf18      	it	ne
    82ac:	ea52 3503 	orrsne.w	r5, r2, r3, lsl #12
    82b0:	f441 1180 	orr.w	r1, r1, #1048576	@ 0x100000
    82b4:	f443 1380 	orr.w	r3, r3, #1048576	@ 0x100000
    82b8:	d038      	beq.n	832c <__aeabi_dmul+0xb4>
    82ba:	fba0 ce02 	umull	ip, lr, r0, r2
    82be:	f04f 0500 	mov.w	r5, #0
    82c2:	fbe1 e502 	umlal	lr, r5, r1, r2
    82c6:	f006 4200 	and.w	r2, r6, #2147483648	@ 0x80000000
    82ca:	fbe0 e503 	umlal	lr, r5, r0, r3
    82ce:	f04f 0600 	mov.w	r6, #0
    82d2:	fbe1 5603 	umlal	r5, r6, r1, r3
    82d6:	f09c 0f00 	teq	ip, #0
    82da:	bf18      	it	ne
    82dc:	f04e 0e01 	orrne.w	lr, lr, #1
    82e0:	f1a4 04ff 	sub.w	r4, r4, #255	@ 0xff
    82e4:	f5b6 7f00 	cmp.w	r6, #512	@ 0x200
    82e8:	f564 7440 	sbc.w	r4, r4, #768	@ 0x300
    82ec:	d204      	bcs.n	82f8 <__aeabi_dmul+0x80>
    82ee:	ea5f 0e4e 	movs.w	lr, lr, lsl #1
    82f2:	416d      	adcs	r5, r5
    82f4:	eb46 0606 	adc.w	r6, r6, r6
    82f8:	ea42 21c6 	orr.w	r1, r2, r6, lsl #11
    82fc:	ea41 5155 	orr.w	r1, r1, r5, lsr #21
    8300:	ea4f 20c5 	mov.w	r0, r5, lsl #11
    8304:	ea40 505e 	orr.w	r0, r0, lr, lsr #21
    8308:	ea4f 2ece 	mov.w	lr, lr, lsl #11
    830c:	f1b4 0cfd 	subs.w	ip, r4, #253	@ 0xfd
    8310:	bf88      	it	hi
    8312:	f5bc 6fe0 	cmphi.w	ip, #1792	@ 0x700
    8316:	d81e      	bhi.n	8356 <__aeabi_dmul+0xde>
    8318:	f1be 4f00 	cmp.w	lr, #2147483648	@ 0x80000000
    831c:	bf08      	it	eq
    831e:	ea5f 0e50 	movseq.w	lr, r0, lsr #1
    8322:	f150 0000 	adcs.w	r0, r0, #0
    8326:	eb41 5104 	adc.w	r1, r1, r4, lsl #20
    832a:	bd70      	pop	{r4, r5, r6, pc}
    832c:	f006 4600 	and.w	r6, r6, #2147483648	@ 0x80000000
    8330:	ea46 0101 	orr.w	r1, r6, r1
    8334:	ea40 0002 	orr.w	r0, r0, r2
    8338:	ea81 0103 	eor.w	r1, r1, r3
    833c:	ebb4 045c 	subs.w	r4, r4, ip, lsr #1
    8340:	bfc2      	ittt	gt
    8342:	ebd4 050c 	rsbsgt	r5, r4, ip
    8346:	ea41 5104 	orrgt.w	r1, r1, r4, lsl #20
    834a:	bd70      	popgt	{r4, r5, r6, pc}
    834c:	f441 1180 	orr.w	r1, r1, #1048576	@ 0x100000
    8350:	f04f 0e00 	mov.w	lr, #0
    8354:	3c01      	subs	r4, #1
    8356:	f300 80ab 	bgt.w	84b0 <__aeabi_dmul+0x238>
    835a:	f114 0f36 	cmn.w	r4, #54	@ 0x36
    835e:	bfde      	ittt	le
    8360:	2000      	movle	r0, #0
    8362:	f001 4100 	andle.w	r1, r1, #2147483648	@ 0x80000000
    8366:	bd70      	pople	{r4, r5, r6, pc}
    8368:	f1c4 0400 	rsb	r4, r4, #0
    836c:	3c20      	subs	r4, #32
    836e:	da35      	bge.n	83dc <__aeabi_dmul+0x164>
    8370:	340c      	adds	r4, #12
    8372:	dc1b      	bgt.n	83ac <__aeabi_dmul+0x134>
    8374:	f104 0414 	add.w	r4, r4, #20
    8378:	f1c4 0520 	rsb	r5, r4, #32
    837c:	fa00 f305 	lsl.w	r3, r0, r5
    8380:	fa20 f004 	lsr.w	r0, r0, r4
    8384:	fa01 f205 	lsl.w	r2, r1, r5
    8388:	ea40 0002 	orr.w	r0, r0, r2
    838c:	f001 4200 	and.w	r2, r1, #2147483648	@ 0x80000000
    8390:	f021 4100 	bic.w	r1, r1, #2147483648	@ 0x80000000
    8394:	eb10 70d3 	adds.w	r0, r0, r3, lsr #31
    8398:	fa21 f604 	lsr.w	r6, r1, r4
    839c:	eb42 0106 	adc.w	r1, r2, r6
    83a0:	ea5e 0e43 	orrs.w	lr, lr, r3, lsl #1
    83a4:	bf08      	it	eq
    83a6:	ea20 70d3 	biceq.w	r0, r0, r3, lsr #31
    83aa:	bd70      	pop	{r4, r5, r6, pc}
    83ac:	f1c4 040c 	rsb	r4, r4, #12
    83b0:	f1c4 0520 	rsb	r5, r4, #32
    83b4:	fa00 f304 	lsl.w	r3, r0, r4
    83b8:	fa20 f005 	lsr.w	r0, r0, r5
    83bc:	fa01 f204 	lsl.w	r2, r1, r4
    83c0:	ea40 0002 	orr.w	r0, r0, r2
    83c4:	f001 4100 	and.w	r1, r1, #2147483648	@ 0x80000000
    83c8:	eb10 70d3 	adds.w	r0, r0, r3, lsr #31
    83cc:	f141 0100 	adc.w	r1, r1, #0
    83d0:	ea5e 0e43 	orrs.w	lr, lr, r3, lsl #1
    83d4:	bf08      	it	eq
    83d6:	ea20 70d3 	biceq.w	r0, r0, r3, lsr #31
    83da:	bd70      	pop	{r4, r5, r6, pc}
    83dc:	f1c4 0520 	rsb	r5, r4, #32
    83e0:	fa00 f205 	lsl.w	r2, r0, r5
    83e4:	ea4e 0e02 	orr.w	lr, lr, r2
    83e8:	fa20 f304 	lsr.w	r3, r0, r4
    83ec:	fa01 f205 	lsl.w	r2, r1, r5
    83f0:	ea43 0302 	orr.w	r3, r3, r2
    83f4:	fa21 f004 	lsr.w	r0, r1, r4
    83f8:	f001 4100 	and.w	r1, r1, #2147483648	@ 0x80000000
    83fc:	fa21 f204 	lsr.w	r2, r1, r4
    8400:	ea20 0002 	bic.w	r0, r0, r2
    8404:	eb00 70d3 	add.w	r0, r0, r3, lsr #31
    8408:	ea5e 0e43 	orrs.w	lr, lr, r3, lsl #1
    840c:	bf08      	it	eq
    840e:	ea20 70d3 	biceq.w	r0, r0, r3, lsr #31
    8412:	bd70      	pop	{r4, r5, r6, pc}
    8414:	f094 0f00 	teq	r4, #0
    8418:	d10f      	bne.n	843a <__aeabi_dmul+0x1c2>
    841a:	f001 4600 	and.w	r6, r1, #2147483648	@ 0x80000000
    841e:	0040      	lsls	r0, r0, #1
    8420:	eb41 0101 	adc.w	r1, r1, r1
    8424:	f411 1f80 	tst.w	r1, #1048576	@ 0x100000
    8428:	bf08      	it	eq
    842a:	3c01      	subeq	r4, #1
    842c:	d0f7      	beq.n	841e <__aeabi_dmul+0x1a6>
    842e:	ea41 0106 	orr.w	r1, r1, r6
    8432:	f095 0f00 	teq	r5, #0
    8436:	bf18      	it	ne
    8438:	4770      	bxne	lr
    843a:	f003 4600 	and.w	r6, r3, #2147483648	@ 0x80000000
    843e:	0052      	lsls	r2, r2, #1
    8440:	eb43 0303 	adc.w	r3, r3, r3
    8444:	f413 1f80 	tst.w	r3, #1048576	@ 0x100000
    8448:	bf08      	it	eq
    844a:	3d01      	subeq	r5, #1
    844c:	d0f7      	beq.n	843e <__aeabi_dmul+0x1c6>
    844e:	ea43 0306 	orr.w	r3, r3, r6
    8452:	4770      	bx	lr
    8454:	ea94 0f0c 	teq	r4, ip
    8458:	ea0c 5513 	and.w	r5, ip, r3, lsr #20
    845c:	bf18      	it	ne
    845e:	ea95 0f0c 	teqne	r5, ip
    8462:	d00c      	beq.n	847e <__aeabi_dmul+0x206>
    8464:	ea50 0641 	orrs.w	r6, r0, r1, lsl #1
    8468:	bf18      	it	ne
    846a:	ea52 0643 	orrsne.w	r6, r2, r3, lsl #1
    846e:	d1d1      	bne.n	8414 <__aeabi_dmul+0x19c>
    8470:	ea81 0103 	eor.w	r1, r1, r3
    8474:	f001 4100 	and.w	r1, r1, #2147483648	@ 0x80000000
    8478:	f04f 0000 	mov.w	r0, #0
    847c:	bd70      	pop	{r4, r5, r6, pc}
    847e:	ea50 0641 	orrs.w	r6, r0, r1, lsl #1
    8482:	bf06      	itte	eq
    8484:	4610      	moveq	r0, r2
    8486:	4619      	moveq	r1, r3
    8488:	ea52 0643 	orrsne.w	r6, r2, r3, lsl #1
    848c:	d019      	beq.n	84c2 <__aeabi_dmul+0x24a>
    848e:	ea94 0f0c 	teq	r4, ip
    8492:	d102      	bne.n	849a <__aeabi_dmul+0x222>
    8494:	ea50 3601 	orrs.w	r6, r0, r1, lsl #12
    8498:	d113      	bne.n	84c2 <__aeabi_dmul+0x24a>
    849a:	ea95 0f0c 	teq	r5, ip
    849e:	d105      	bne.n	84ac <__aeabi_dmul+0x234>
    84a0:	ea52 3603 	orrs.w	r6, r2, r3, lsl #12
    84a4:	bf1c      	itt	ne
    84a6:	4610      	movne	r0, r2
    84a8:	4619      	movne	r1, r3
    84aa:	d10a      	bne.n	84c2 <__aeabi_dmul+0x24a>
    84ac:	ea81 0103 	eor.w	r1, r1, r3
    84b0:	f001 4100 	and.w	r1, r1, #2147483648	@ 0x80000000
    84b4:	f041 41fe 	orr.w	r1, r1, #2130706432	@ 0x7f000000
    84b8:	f441 0170 	orr.w	r1, r1, #15728640	@ 0xf00000
    84bc:	f04f 0000 	mov.w	r0, #0
    84c0:	bd70      	pop	{r4, r5, r6, pc}
    84c2:	f041 41fe 	orr.w	r1, r1, #2130706432	@ 0x7f000000
    84c6:	f441 0178 	orr.w	r1, r1, #16252928	@ 0xf80000
    84ca:	bd70      	pop	{r4, r5, r6, pc}

000084cc <__aeabi_ddiv>:
    84cc:	b570      	push	{r4, r5, r6, lr}
    84ce:	f04f 0cff 	mov.w	ip, #255	@ 0xff
    84d2:	f44c 6ce0 	orr.w	ip, ip, #1792	@ 0x700
    84d6:	ea1c 5411 	ands.w	r4, ip, r1, lsr #20
    84da:	bf1d      	ittte	ne
    84dc:	ea1c 5513 	andsne.w	r5, ip, r3, lsr #20
    84e0:	ea94 0f0c 	teqne	r4, ip
    84e4:	ea95 0f0c 	teqne	r5, ip
    84e8:	f000 f8a7 	bleq	863a <__aeabi_ddiv+0x16e>
    84ec:	eba4 0405 	sub.w	r4, r4, r5
    84f0:	ea81 0e03 	eor.w	lr, r1, r3
    84f4:	ea52 3503 	orrs.w	r5, r2, r3, lsl #12
    84f8:	ea4f 3101 	mov.w	r1, r1, lsl #12
    84fc:	f000 8088 	beq.w	8610 <__aeabi_ddiv+0x144>
    8500:	ea4f 3303 	mov.w	r3, r3, lsl #12
    8504:	f04f 5580 	mov.w	r5, #268435456	@ 0x10000000
    8508:	ea45 1313 	orr.w	r3, r5, r3, lsr #4
    850c:	ea43 6312 	orr.w	r3, r3, r2, lsr #24
    8510:	ea4f 2202 	mov.w	r2, r2, lsl #8
    8514:	ea45 1511 	orr.w	r5, r5, r1, lsr #4
    8518:	ea45 6510 	orr.w	r5, r5, r0, lsr #24
    851c:	ea4f 2600 	mov.w	r6, r0, lsl #8
    8520:	f00e 4100 	and.w	r1, lr, #2147483648	@ 0x80000000
    8524:	429d      	cmp	r5, r3
    8526:	bf08      	it	eq
    8528:	4296      	cmpeq	r6, r2
    852a:	f144 04fd 	adc.w	r4, r4, #253	@ 0xfd
    852e:	f504 7440 	add.w	r4, r4, #768	@ 0x300
    8532:	d202      	bcs.n	853a <__aeabi_ddiv+0x6e>
    8534:	085b      	lsrs	r3, r3, #1
    8536:	ea4f 0232 	mov.w	r2, r2, rrx
    853a:	1ab6      	subs	r6, r6, r2
    853c:	eb65 0503 	sbc.w	r5, r5, r3
    8540:	085b      	lsrs	r3, r3, #1
    8542:	ea4f 0232 	mov.w	r2, r2, rrx
    8546:	f44f 1080 	mov.w	r0, #1048576	@ 0x100000
    854a:	f44f 2c00 	mov.w	ip, #524288	@ 0x80000
    854e:	ebb6 0e02 	subs.w	lr, r6, r2
    8552:	eb75 0e03 	sbcs.w	lr, r5, r3
    8556:	bf22      	ittt	cs
    8558:	1ab6      	subcs	r6, r6, r2
    855a:	4675      	movcs	r5, lr
    855c:	ea40 000c 	orrcs.w	r0, r0, ip
    8560:	085b      	lsrs	r3, r3, #1
    8562:	ea4f 0232 	mov.w	r2, r2, rrx
    8566:	ebb6 0e02 	subs.w	lr, r6, r2
    856a:	eb75 0e03 	sbcs.w	lr, r5, r3
    856e:	bf22      	ittt	cs
    8570:	1ab6      	subcs	r6, r6, r2
    8572:	4675      	movcs	r5, lr
    8574:	ea40 005c 	orrcs.w	r0, r0, ip, lsr #1
    8578:	085b      	lsrs	r3, r3, #1
    857a:	ea4f 0232 	mov.w	r2, r2, rrx
    857e:	ebb6 0e02 	subs.w	lr, r6, r2
    8582:	eb75 0e03 	sbcs.w	lr, r5, r3
    8586:	bf22      	ittt	cs
    8588:	1ab6      	subcs	r6, r6, r2
    858a:	4675      	movcs	r5, lr
    858c:	ea40 009c 	orrcs.w	r0, r0, ip, lsr #2
    8590:	085b      	lsrs	r3, r3, #1
    8592:	ea4f 0232 	mov.w	r2, r2, rrx
    8596:	ebb6 0e02 	subs.w	lr, r6, r2
    859a:	eb75 0e03 	sbcs.w	lr, r5, r3
    859e:	bf22      	ittt	cs
    85a0:	1ab6      	subcs	r6, r6, r2
    85a2:	4675      	movcs	r5, lr
    85a4:	ea40 00dc 	orrcs.w	r0, r0, ip, lsr #3
    85a8:	ea55 0e06 	orrs.w	lr, r5, r6
    85ac:	d018      	beq.n	85e0 <__aeabi_ddiv+0x114>
    85ae:	ea4f 1505 	mov.w	r5, r5, lsl #4
    85b2:	ea45 7516 	orr.w	r5, r5, r6, lsr #28
    85b6:	ea4f 1606 	mov.w	r6, r6, lsl #4
    85ba:	ea4f 03c3 	mov.w	r3, r3, lsl #3
    85be:	ea43 7352 	orr.w	r3, r3, r2, lsr #29
    85c2:	ea4f 02c2 	mov.w	r2, r2, lsl #3
    85c6:	ea5f 1c1c 	movs.w	ip, ip, lsr #4
    85ca:	d1c0      	bne.n	854e <__aeabi_ddiv+0x82>
    85cc:	f411 1f80 	tst.w	r1, #1048576	@ 0x100000
    85d0:	d10b      	bne.n	85ea <__aeabi_ddiv+0x11e>
    85d2:	ea41 0100 	orr.w	r1, r1, r0
    85d6:	f04f 0000 	mov.w	r0, #0
    85da:	f04f 4c00 	mov.w	ip, #2147483648	@ 0x80000000
    85de:	e7b6      	b.n	854e <__aeabi_ddiv+0x82>
    85e0:	f411 1f80 	tst.w	r1, #1048576	@ 0x100000
    85e4:	bf04      	itt	eq
    85e6:	4301      	orreq	r1, r0
    85e8:	2000      	moveq	r0, #0
    85ea:	f1b4 0cfd 	subs.w	ip, r4, #253	@ 0xfd
    85ee:	bf88      	it	hi
    85f0:	f5bc 6fe0 	cmphi.w	ip, #1792	@ 0x700
    85f4:	f63f aeaf 	bhi.w	8356 <__aeabi_dmul+0xde>
    85f8:	ebb5 0c03 	subs.w	ip, r5, r3
    85fc:	bf04      	itt	eq
    85fe:	ebb6 0c02 	subseq.w	ip, r6, r2
    8602:	ea5f 0c50 	movseq.w	ip, r0, lsr #1
    8606:	f150 0000 	adcs.w	r0, r0, #0
    860a:	eb41 5104 	adc.w	r1, r1, r4, lsl #20
    860e:	bd70      	pop	{r4, r5, r6, pc}
    8610:	f00e 4e00 	and.w	lr, lr, #2147483648	@ 0x80000000
    8614:	ea4e 3111 	orr.w	r1, lr, r1, lsr #12
    8618:	eb14 045c 	adds.w	r4, r4, ip, lsr #1
    861c:	bfc2      	ittt	gt
    861e:	ebd4 050c 	rsbsgt	r5, r4, ip
    8622:	ea41 5104 	orrgt.w	r1, r1, r4, lsl #20
    8626:	bd70      	popgt	{r4, r5, r6, pc}
    8628:	f441 1180 	orr.w	r1, r1, #1048576	@ 0x100000
    862c:	f04f 0e00 	mov.w	lr, #0
    8630:	3c01      	subs	r4, #1
    8632:	e690      	b.n	8356 <__aeabi_dmul+0xde>
    8634:	ea45 0e06 	orr.w	lr, r5, r6
    8638:	e68d      	b.n	8356 <__aeabi_dmul+0xde>
    863a:	ea0c 5513 	and.w	r5, ip, r3, lsr #20
    863e:	ea94 0f0c 	teq	r4, ip
    8642:	bf08      	it	eq
    8644:	ea95 0f0c 	teqeq	r5, ip
    8648:	f43f af3b 	beq.w	84c2 <__aeabi_dmul+0x24a>
    864c:	ea94 0f0c 	teq	r4, ip
    8650:	d10a      	bne.n	8668 <__aeabi_ddiv+0x19c>
    8652:	ea50 3401 	orrs.w	r4, r0, r1, lsl #12
    8656:	f47f af34 	bne.w	84c2 <__aeabi_dmul+0x24a>
    865a:	ea95 0f0c 	teq	r5, ip
    865e:	f47f af25 	bne.w	84ac <__aeabi_dmul+0x234>
    8662:	4610      	mov	r0, r2
    8664:	4619      	mov	r1, r3
    8666:	e72c      	b.n	84c2 <__aeabi_dmul+0x24a>
    8668:	ea95 0f0c 	teq	r5, ip
    866c:	d106      	bne.n	867c <__aeabi_ddiv+0x1b0>
    866e:	ea52 3503 	orrs.w	r5, r2, r3, lsl #12
    8672:	f43f aefd 	beq.w	8470 <__aeabi_dmul+0x1f8>
    8676:	4610      	mov	r0, r2
    8678:	4619      	mov	r1, r3
    867a:	e722      	b.n	84c2 <__aeabi_dmul+0x24a>
    867c:	ea50 0641 	orrs.w	r6, r0, r1, lsl #1
    8680:	bf18      	it	ne
    8682:	ea52 0643 	orrsne.w	r6, r2, r3, lsl #1
    8686:	f47f aec5 	bne.w	8414 <__aeabi_dmul+0x19c>
    868a:	ea50 0441 	orrs.w	r4, r0, r1, lsl #1
    868e:	f47f af0d 	bne.w	84ac <__aeabi_dmul+0x234>
    8692:	ea52 0543 	orrs.w	r5, r2, r3, lsl #1
    8696:	f47f aeeb 	bne.w	8470 <__aeabi_dmul+0x1f8>
    869a:	e712      	b.n	84c2 <__aeabi_dmul+0x24a>

0000869c <__gedf2>:
    869c:	f04f 3cff 	mov.w	ip, #4294967295	@ 0xffffffff
    86a0:	e006      	b.n	86b0 <__cmpdf2+0x4>
    86a2:	bf00      	nop

000086a4 <__ledf2>:
    86a4:	f04f 0c01 	mov.w	ip, #1
    86a8:	e002      	b.n	86b0 <__cmpdf2+0x4>
    86aa:	bf00      	nop

000086ac <__cmpdf2>:
    86ac:	f04f 0c01 	mov.w	ip, #1
    86b0:	f84d cd04 	str.w	ip, [sp, #-4]!
    86b4:	ea4f 0c41 	mov.w	ip, r1, lsl #1
    86b8:	ea7f 5c6c 	mvns.w	ip, ip, asr #21
    86bc:	ea4f 0c43 	mov.w	ip, r3, lsl #1
    86c0:	bf18      	it	ne
    86c2:	ea7f 5c6c 	mvnsne.w	ip, ip, asr #21
    86c6:	d01b      	beq.n	8700 <__cmpdf2+0x54>
    86c8:	b001      	add	sp, #4
    86ca:	ea50 0c41 	orrs.w	ip, r0, r1, lsl #1
    86ce:	bf0c      	ite	eq
    86d0:	ea52 0c43 	orrseq.w	ip, r2, r3, lsl #1
    86d4:	ea91 0f03 	teqne	r1, r3
    86d8:	bf02      	ittt	eq
    86da:	ea90 0f02 	teqeq	r0, r2
    86de:	2000      	moveq	r0, #0
    86e0:	4770      	bxeq	lr
    86e2:	f110 0f00 	cmn.w	r0, #0
    86e6:	ea91 0f03 	teq	r1, r3
    86ea:	bf58      	it	pl
    86ec:	4299      	cmppl	r1, r3
    86ee:	bf08      	it	eq
    86f0:	4290      	cmpeq	r0, r2
    86f2:	bf2c      	ite	cs
    86f4:	17d8      	asrcs	r0, r3, #31
    86f6:	ea6f 70e3 	mvncc.w	r0, r3, asr #31
    86fa:	f040 0001 	orr.w	r0, r0, #1
    86fe:	4770      	bx	lr
    8700:	ea4f 0c41 	mov.w	ip, r1, lsl #1
    8704:	ea7f 5c6c 	mvns.w	ip, ip, asr #21
    8708:	d102      	bne.n	8710 <__cmpdf2+0x64>
    870a:	ea50 3c01 	orrs.w	ip, r0, r1, lsl #12
    870e:	d107      	bne.n	8720 <__cmpdf2+0x74>
    8710:	ea4f 0c43 	mov.w	ip, r3, lsl #1
    8714:	ea7f 5c6c 	mvns.w	ip, ip, asr #21
    8718:	d1d6      	bne.n	86c8 <__cmpdf2+0x1c>
    871a:	ea52 3c03 	orrs.w	ip, r2, r3, lsl #12
    871e:	d0d3      	beq.n	86c8 <__cmpdf2+0x1c>
    8720:	f85d 0b04 	ldr.w	r0, [sp], #4
    8724:	4770      	bx	lr
    8726:	bf00      	nop

00008728 <__aeabi_cdrcmple>:
    8728:	4684      	mov	ip, r0
    872a:	4610      	mov	r0, r2
    872c:	4662      	mov	r2, ip
    872e:	468c      	mov	ip, r1
    8730:	4619      	mov	r1, r3
    8732:	4663      	mov	r3, ip
    8734:	e000      	b.n	8738 <__aeabi_cdcmpeq>
    8736:	bf00      	nop

00008738 <__aeabi_cdcmpeq>:
    8738:	b501      	push	{r0, lr}
    873a:	f7ff ffb7 	bl	86ac <__cmpdf2>
    873e:	2800      	cmp	r0, #0
    8740:	bf48      	it	mi
    8742:	f110 0f00 	cmnmi.w	r0, #0
    8746:	bd01      	pop	{r0, pc}

00008748 <__aeabi_dcmpeq>:
    8748:	f84d ed08 	str.w	lr, [sp, #-8]!
    874c:	f7ff fff4 	bl	8738 <__aeabi_cdcmpeq>
    8750:	bf0c      	ite	eq
    8752:	2001      	moveq	r0, #1
    8754:	2000      	movne	r0, #0
    8756:	f85d fb08 	ldr.w	pc, [sp], #8
    875a:	bf00      	nop

0000875c <__aeabi_dcmplt>:
    875c:	f84d ed08 	str.w	lr, [sp, #-8]!
    8760:	f7ff ffea 	bl	8738 <__aeabi_cdcmpeq>
    8764:	bf34      	ite	cc
    8766:	2001      	movcc	r0, #1
    8768:	2000      	movcs	r0, #0
    876a:	f85d fb08 	ldr.w	pc, [sp], #8
    876e:	bf00      	nop

00008770 <__aeabi_dcmple>:
    8770:	f84d ed08 	str.w	lr, [sp, #-8]!
    8774:	f7ff ffe0 	bl	8738 <__aeabi_cdcmpeq>
    8778:	bf94      	ite	ls
    877a:	2001      	movls	r0, #1
    877c:	2000      	movhi	r0, #0
    877e:	f85d fb08 	ldr.w	pc, [sp], #8
    8782:	bf00      	nop

00008784 <__aeabi_dcmpge>:
    8784:	f84d ed08 	str.w	lr, [sp, #-8]!
    8788:	f7ff ffce 	bl	8728 <__aeabi_cdrcmple>
    878c:	bf94      	ite	ls
    878e:	2001      	movls	r0, #1
    8790:	2000      	movhi	r0, #0
    8792:	f85d fb08 	ldr.w	pc, [sp], #8
    8796:	bf00      	nop

00008798 <__aeabi_dcmpgt>:
    8798:	f84d ed08 	str.w	lr, [sp, #-8]!
    879c:	f7ff ffc4 	bl	8728 <__aeabi_cdrcmple>
    87a0:	bf34      	ite	cc
    87a2:	2001      	movcc	r0, #1
    87a4:	2000      	movcs	r0, #0
    87a6:	f85d fb08 	ldr.w	pc, [sp], #8
    87aa:	bf00      	nop

000087ac <__aeabi_dcmpun>:
    87ac:	ea4f 0c41 	mov.w	ip, r1, lsl #1
    87b0:	ea7f 5c6c 	mvns.w	ip, ip, asr #21
    87b4:	d102      	bne.n	87bc <__aeabi_dcmpun+0x10>
    87b6:	ea50 3c01 	orrs.w	ip, r0, r1, lsl #12
    87ba:	d10a      	bne.n	87d2 <__aeabi_dcmpun+0x26>
    87bc:	ea4f 0c43 	mov.w	ip, r3, lsl #1
    87c0:	ea7f 5c6c 	mvns.w	ip, ip, asr #21
    87c4:	d102      	bne.n	87cc <__aeabi_dcmpun+0x20>
    87c6:	ea52 3c03 	orrs.w	ip, r2, r3, lsl #12
    87ca:	d102      	bne.n	87d2 <__aeabi_dcmpun+0x26>
    87cc:	f04f 0000 	mov.w	r0, #0
    87d0:	4770      	bx	lr
    87d2:	f04f 0001 	mov.w	r0, #1
    87d6:	4770      	bx	lr

000087d8 <__aeabi_d2iz>:
    87d8:	ea4f 0241 	mov.w	r2, r1, lsl #1
    87dc:	f512 1200 	adds.w	r2, r2, #2097152	@ 0x200000
    87e0:	d215      	bcs.n	880e <__aeabi_d2iz+0x36>
    87e2:	d511      	bpl.n	8808 <__aeabi_d2iz+0x30>
    87e4:	f46f 7378 	mvn.w	r3, #992	@ 0x3e0
    87e8:	ebb3 5262 	subs.w	r2, r3, r2, asr #21
    87ec:	d912      	bls.n	8814 <__aeabi_d2iz+0x3c>
    87ee:	ea4f 23c1 	mov.w	r3, r1, lsl #11
    87f2:	f043 4300 	orr.w	r3, r3, #2147483648	@ 0x80000000
    87f6:	ea43 5350 	orr.w	r3, r3, r0, lsr #21
    87fa:	f011 4f00 	tst.w	r1, #2147483648	@ 0x80000000
    87fe:	fa23 f002 	lsr.w	r0, r3, r2
    8802:	bf18      	it	ne
    8804:	4240      	negne	r0, r0
    8806:	4770      	bx	lr
    8808:	f04f 0000 	mov.w	r0, #0
    880c:	4770      	bx	lr
    880e:	ea50 3001 	orrs.w	r0, r0, r1, lsl #12
    8812:	d105      	bne.n	8820 <__aeabi_d2iz+0x48>
    8814:	f011 4000 	ands.w	r0, r1, #2147483648	@ 0x80000000
    8818:	bf08      	it	eq
    881a:	f06f 4000 	mvneq.w	r0, #2147483648	@ 0x80000000
    881e:	4770      	bx	lr
    8820:	f04f 0000 	mov.w	r0, #0
    8824:	4770      	bx	lr
    8826:	bf00      	nop

00008828 <__aeabi_uldivmod>:
    8828:	b953      	cbnz	r3, 8840 <__aeabi_uldivmod+0x18>
    882a:	b94a      	cbnz	r2, 8840 <__aeabi_uldivmod+0x18>
    882c:	2900      	cmp	r1, #0
    882e:	bf08      	it	eq
    8830:	2800      	cmpeq	r0, #0
    8832:	bf1c      	itt	ne
    8834:	f04f 31ff 	movne.w	r1, #4294967295	@ 0xffffffff
    8838:	f04f 30ff 	movne.w	r0, #4294967295	@ 0xffffffff
    883c:	f000 b96a 	b.w	8b14 <__aeabi_idiv0>
    8840:	f1ad 0c08 	sub.w	ip, sp, #8
    8844:	e96d ce04 	strd	ip, lr, [sp, #-16]!
    8848:	f000 f806 	bl	8858 <__udivmoddi4>
    884c:	f8dd e004 	ldr.w	lr, [sp, #4]
    8850:	e9dd 2302 	ldrd	r2, r3, [sp, #8]
    8854:	b004      	add	sp, #16
    8856:	4770      	bx	lr

00008858 <__udivmoddi4>:
    8858:	e92d 47f0 	stmdb	sp!, {r4, r5, r6, r7, r8, r9, sl, lr}
    885c:	9d08      	ldr	r5, [sp, #32]
    885e:	460e      	mov	r6, r1
    8860:	4604      	mov	r4, r0
    8862:	460f      	mov	r7, r1
    8864:	2b00      	cmp	r3, #0
    8866:	d14a      	bne.n	88fe <__udivmoddi4+0xa6>
    8868:	4694      	mov	ip, r2
    886a:	458c      	cmp	ip, r1
    886c:	fab2 f282 	clz	r2, r2
    8870:	d960      	bls.n	8934 <__udivmoddi4+0xdc>
    8872:	b142      	cbz	r2, 8886 <__udivmoddi4+0x2e>
    8874:	f1c2 0320 	rsb	r3, r2, #32
    8878:	4097      	lsls	r7, r2
    887a:	fa20 f303 	lsr.w	r3, r0, r3
    887e:	fa0c fc02 	lsl.w	ip, ip, r2
    8882:	431f      	orrs	r7, r3
    8884:	4094      	lsls	r4, r2
    8886:	ea4f 4e1c 	mov.w	lr, ip, lsr #16
    888a:	fa1f f68c 	uxth.w	r6, ip
    888e:	fbb7 f1fe 	udiv	r1, r7, lr
    8892:	0c23      	lsrs	r3, r4, #16
    8894:	fb0e 7711 	mls	r7, lr, r1, r7
    8898:	ea43 4307 	orr.w	r3, r3, r7, lsl #16
    889c:	fb01 f006 	mul.w	r0, r1, r6
    88a0:	4298      	cmp	r0, r3
    88a2:	d90a      	bls.n	88ba <__udivmoddi4+0x62>
    88a4:	eb1c 0303 	adds.w	r3, ip, r3
    88a8:	f101 37ff 	add.w	r7, r1, #4294967295	@ 0xffffffff
    88ac:	f080 8115 	bcs.w	8ada <__udivmoddi4+0x282>
    88b0:	4298      	cmp	r0, r3
    88b2:	f240 8112 	bls.w	8ada <__udivmoddi4+0x282>
    88b6:	3902      	subs	r1, #2
    88b8:	4463      	add	r3, ip
    88ba:	1a1b      	subs	r3, r3, r0
    88bc:	b2a4      	uxth	r4, r4
    88be:	fbb3 f0fe 	udiv	r0, r3, lr
    88c2:	fb0e 3310 	mls	r3, lr, r0, r3
    88c6:	ea44 4403 	orr.w	r4, r4, r3, lsl #16
    88ca:	fb00 f606 	mul.w	r6, r0, r6
    88ce:	42a6      	cmp	r6, r4
    88d0:	d90a      	bls.n	88e8 <__udivmoddi4+0x90>
    88d2:	eb1c 0404 	adds.w	r4, ip, r4
    88d6:	f100 33ff 	add.w	r3, r0, #4294967295	@ 0xffffffff
    88da:	f080 8100 	bcs.w	8ade <__udivmoddi4+0x286>
    88de:	42a6      	cmp	r6, r4
    88e0:	f240 80fd 	bls.w	8ade <__udivmoddi4+0x286>
    88e4:	4464      	add	r4, ip
    88e6:	3802      	subs	r0, #2
    88e8:	ea40 4001 	orr.w	r0, r0, r1, lsl #16
    88ec:	1ba4      	subs	r4, r4, r6
    88ee:	2100      	movs	r1, #0
    88f0:	b11d      	cbz	r5, 88fa <__udivmoddi4+0xa2>
    88f2:	40d4      	lsrs	r4, r2
    88f4:	2300      	movs	r3, #0
    88f6:	e9c5 4300 	strd	r4, r3, [r5]
    88fa:	e8bd 87f0 	ldmia.w	sp!, {r4, r5, r6, r7, r8, r9, sl, pc}
    88fe:	428b      	cmp	r3, r1
    8900:	d905      	bls.n	890e <__udivmoddi4+0xb6>
    8902:	b10d      	cbz	r5, 8908 <__udivmoddi4+0xb0>
    8904:	e9c5 0100 	strd	r0, r1, [r5]
    8908:	2100      	movs	r1, #0
    890a:	4608      	mov	r0, r1
    890c:	e7f5      	b.n	88fa <__udivmoddi4+0xa2>
    890e:	fab3 f183 	clz	r1, r3
    8912:	2900      	cmp	r1, #0
    8914:	d146      	bne.n	89a4 <__udivmoddi4+0x14c>
    8916:	42b3      	cmp	r3, r6
    8918:	d302      	bcc.n	8920 <__udivmoddi4+0xc8>
    891a:	4282      	cmp	r2, r0
    891c:	f200 80f5 	bhi.w	8b0a <__udivmoddi4+0x2b2>
    8920:	1a84      	subs	r4, r0, r2
    8922:	eb66 0203 	sbc.w	r2, r6, r3
    8926:	2001      	movs	r0, #1
    8928:	4617      	mov	r7, r2
    892a:	2d00      	cmp	r5, #0
    892c:	d0e5      	beq.n	88fa <__udivmoddi4+0xa2>
    892e:	e9c5 4700 	strd	r4, r7, [r5]
    8932:	e7e2      	b.n	88fa <__udivmoddi4+0xa2>
    8934:	2a00      	cmp	r2, #0
    8936:	f040 8093 	bne.w	8a60 <__udivmoddi4+0x208>
    893a:	eba1 030c 	sub.w	r3, r1, ip
    893e:	ea4f 471c 	mov.w	r7, ip, lsr #16
    8942:	fa1f fe8c 	uxth.w	lr, ip
    8946:	2101      	movs	r1, #1
    8948:	fbb3 f6f7 	udiv	r6, r3, r7
    894c:	fb07 3016 	mls	r0, r7, r6, r3
    8950:	0c23      	lsrs	r3, r4, #16
    8952:	ea43 4300 	orr.w	r3, r3, r0, lsl #16
    8956:	fb0e f006 	mul.w	r0, lr, r6
    895a:	4298      	cmp	r0, r3
    895c:	d908      	bls.n	8970 <__udivmoddi4+0x118>
    895e:	eb1c 0303 	adds.w	r3, ip, r3
    8962:	f106 38ff 	add.w	r8, r6, #4294967295	@ 0xffffffff
    8966:	d202      	bcs.n	896e <__udivmoddi4+0x116>
    8968:	4298      	cmp	r0, r3
    896a:	f200 80d0 	bhi.w	8b0e <__udivmoddi4+0x2b6>
    896e:	4646      	mov	r6, r8
    8970:	1a1b      	subs	r3, r3, r0
    8972:	b2a4      	uxth	r4, r4
    8974:	fbb3 f0f7 	udiv	r0, r3, r7
    8978:	fb07 3310 	mls	r3, r7, r0, r3
    897c:	ea44 4403 	orr.w	r4, r4, r3, lsl #16
    8980:	fb0e fe00 	mul.w	lr, lr, r0
    8984:	45a6      	cmp	lr, r4
    8986:	d908      	bls.n	899a <__udivmoddi4+0x142>
    8988:	eb1c 0404 	adds.w	r4, ip, r4
    898c:	f100 33ff 	add.w	r3, r0, #4294967295	@ 0xffffffff
    8990:	d202      	bcs.n	8998 <__udivmoddi4+0x140>
    8992:	45a6      	cmp	lr, r4
    8994:	f200 80b6 	bhi.w	8b04 <__udivmoddi4+0x2ac>
    8998:	4618      	mov	r0, r3
    899a:	eba4 040e 	sub.w	r4, r4, lr
    899e:	ea40 4006 	orr.w	r0, r0, r6, lsl #16
    89a2:	e7a5      	b.n	88f0 <__udivmoddi4+0x98>
    89a4:	f1c1 0720 	rsb	r7, r1, #32
    89a8:	408b      	lsls	r3, r1
    89aa:	fa22 fc07 	lsr.w	ip, r2, r7
    89ae:	ea4c 0c03 	orr.w	ip, ip, r3
    89b2:	fa06 fe01 	lsl.w	lr, r6, r1
    89b6:	fa20 f407 	lsr.w	r4, r0, r7
    89ba:	fa26 f307 	lsr.w	r3, r6, r7
    89be:	ea44 040e 	orr.w	r4, r4, lr
    89c2:	fa00 f801 	lsl.w	r8, r0, r1
    89c6:	ea4f 401c 	mov.w	r0, ip, lsr #16
    89ca:	ea4f 4914 	mov.w	r9, r4, lsr #16
    89ce:	fbb3 fef0 	udiv	lr, r3, r0
    89d2:	fa1f f68c 	uxth.w	r6, ip
    89d6:	fb00 331e 	mls	r3, r0, lr, r3
    89da:	ea49 4303 	orr.w	r3, r9, r3, lsl #16
    89de:	fb0e f906 	mul.w	r9, lr, r6
    89e2:	4599      	cmp	r9, r3
    89e4:	fa02 f201 	lsl.w	r2, r2, r1
    89e8:	d90b      	bls.n	8a02 <__udivmoddi4+0x1aa>
    89ea:	eb1c 0303 	adds.w	r3, ip, r3
    89ee:	f10e 3aff 	add.w	sl, lr, #4294967295	@ 0xffffffff
    89f2:	f080 8085 	bcs.w	8b00 <__udivmoddi4+0x2a8>
    89f6:	4599      	cmp	r9, r3
    89f8:	f240 8082 	bls.w	8b00 <__udivmoddi4+0x2a8>
    89fc:	f1ae 0e02 	sub.w	lr, lr, #2
    8a00:	4463      	add	r3, ip
    8a02:	eba3 0909 	sub.w	r9, r3, r9
    8a06:	b2a4      	uxth	r4, r4
    8a08:	fbb9 f3f0 	udiv	r3, r9, r0
    8a0c:	fb00 9913 	mls	r9, r0, r3, r9
    8a10:	ea44 4409 	orr.w	r4, r4, r9, lsl #16
    8a14:	fb03 f606 	mul.w	r6, r3, r6
    8a18:	42a6      	cmp	r6, r4
    8a1a:	d908      	bls.n	8a2e <__udivmoddi4+0x1d6>
    8a1c:	eb1c 0404 	adds.w	r4, ip, r4
    8a20:	f103 30ff 	add.w	r0, r3, #4294967295	@ 0xffffffff
    8a24:	d268      	bcs.n	8af8 <__udivmoddi4+0x2a0>
    8a26:	42a6      	cmp	r6, r4
    8a28:	d966      	bls.n	8af8 <__udivmoddi4+0x2a0>
    8a2a:	3b02      	subs	r3, #2
    8a2c:	4464      	add	r4, ip
    8a2e:	ea43 400e 	orr.w	r0, r3, lr, lsl #16
    8a32:	1ba4      	subs	r4, r4, r6
    8a34:	fba0 e602 	umull	lr, r6, r0, r2
    8a38:	42b4      	cmp	r4, r6
    8a3a:	4673      	mov	r3, lr
    8a3c:	46b1      	mov	r9, r6
    8a3e:	d352      	bcc.n	8ae6 <__udivmoddi4+0x28e>
    8a40:	d04f      	beq.n	8ae2 <__udivmoddi4+0x28a>
    8a42:	b15d      	cbz	r5, 8a5c <__udivmoddi4+0x204>
    8a44:	ebb8 0203 	subs.w	r2, r8, r3
    8a48:	eb64 0409 	sbc.w	r4, r4, r9
    8a4c:	fa04 f707 	lsl.w	r7, r4, r7
    8a50:	fa22 f301 	lsr.w	r3, r2, r1
    8a54:	431f      	orrs	r7, r3
    8a56:	40cc      	lsrs	r4, r1
    8a58:	e9c5 7400 	strd	r7, r4, [r5]
    8a5c:	2100      	movs	r1, #0
    8a5e:	e74c      	b.n	88fa <__udivmoddi4+0xa2>
    8a60:	f1c2 0120 	rsb	r1, r2, #32
    8a64:	fa20 f301 	lsr.w	r3, r0, r1
    8a68:	fa0c fc02 	lsl.w	ip, ip, r2
    8a6c:	fa26 f101 	lsr.w	r1, r6, r1
    8a70:	4096      	lsls	r6, r2
    8a72:	4333      	orrs	r3, r6
    8a74:	ea4f 471c 	mov.w	r7, ip, lsr #16
    8a78:	fa1f fe8c 	uxth.w	lr, ip
    8a7c:	fbb1 f0f7 	udiv	r0, r1, r7
    8a80:	fb07 1610 	mls	r6, r7, r0, r1
    8a84:	0c19      	lsrs	r1, r3, #16
    8a86:	ea41 4106 	orr.w	r1, r1, r6, lsl #16
    8a8a:	fb00 f60e 	mul.w	r6, r0, lr
    8a8e:	428e      	cmp	r6, r1
    8a90:	fa04 f402 	lsl.w	r4, r4, r2
    8a94:	d908      	bls.n	8aa8 <__udivmoddi4+0x250>
    8a96:	eb1c 0101 	adds.w	r1, ip, r1
    8a9a:	f100 38ff 	add.w	r8, r0, #4294967295	@ 0xffffffff
    8a9e:	d22d      	bcs.n	8afc <__udivmoddi4+0x2a4>
    8aa0:	428e      	cmp	r6, r1
    8aa2:	d92b      	bls.n	8afc <__udivmoddi4+0x2a4>
    8aa4:	3802      	subs	r0, #2
    8aa6:	4461      	add	r1, ip
    8aa8:	1b89      	subs	r1, r1, r6
    8aaa:	b29b      	uxth	r3, r3
    8aac:	fbb1 f6f7 	udiv	r6, r1, r7
    8ab0:	fb07 1116 	mls	r1, r7, r6, r1
    8ab4:	ea43 4301 	orr.w	r3, r3, r1, lsl #16
    8ab8:	fb06 f10e 	mul.w	r1, r6, lr
    8abc:	4299      	cmp	r1, r3
    8abe:	d908      	bls.n	8ad2 <__udivmoddi4+0x27a>
    8ac0:	eb1c 0303 	adds.w	r3, ip, r3
    8ac4:	f106 38ff 	add.w	r8, r6, #4294967295	@ 0xffffffff
    8ac8:	d214      	bcs.n	8af4 <__udivmoddi4+0x29c>
    8aca:	4299      	cmp	r1, r3
    8acc:	d912      	bls.n	8af4 <__udivmoddi4+0x29c>
    8ace:	3e02      	subs	r6, #2
    8ad0:	4463      	add	r3, ip
    8ad2:	1a5b      	subs	r3, r3, r1
    8ad4:	ea46 4100 	orr.w	r1, r6, r0, lsl #16
    8ad8:	e736      	b.n	8948 <__udivmoddi4+0xf0>
    8ada:	4639      	mov	r1, r7
    8adc:	e6ed      	b.n	88ba <__udivmoddi4+0x62>
    8ade:	4618      	mov	r0, r3
    8ae0:	e702      	b.n	88e8 <__udivmoddi4+0x90>
    8ae2:	45f0      	cmp	r8, lr
    8ae4:	d2ad      	bcs.n	8a42 <__udivmoddi4+0x1ea>
    8ae6:	ebbe 0302 	subs.w	r3, lr, r2
    8aea:	eb66 060c 	sbc.w	r6, r6, ip
    8aee:	3801      	subs	r0, #1
    8af0:	46b1      	mov	r9, r6
    8af2:	e7a6      	b.n	8a42 <__udivmoddi4+0x1ea>
    8af4:	4646      	mov	r6, r8
    8af6:	e7ec      	b.n	8ad2 <__udivmoddi4+0x27a>
    8af8:	4603      	mov	r3, r0
    8afa:	e798      	b.n	8a2e <__udivmoddi4+0x1d6>
    8afc:	4640      	mov	r0, r8
    8afe:	e7d3      	b.n	8aa8 <__udivmoddi4+0x250>
    8b00:	46d6      	mov	lr, sl
    8b02:	e77e      	b.n	8a02 <__udivmoddi4+0x1aa>
    8b04:	4464      	add	r4, ip
    8b06:	3802      	subs	r0, #2
    8b08:	e747      	b.n	899a <__udivmoddi4+0x142>
    8b0a:	4608      	mov	r0, r1
    8b0c:	e70d      	b.n	892a <__udivmoddi4+0xd2>
    8b0e:	3e02      	subs	r6, #2
    8b10:	4463      	add	r3, ip
    8b12:	e72d      	b.n	8970 <__udivmoddi4+0x118>

00008b14 <__aeabi_idiv0>:
    8b14:	4770      	bx	lr
    8b16:	bf00      	nop
    8b18:	00007830 	.word	0x00007830
    8b1c:	33323130 	.word	0x33323130
    8b20:	37363534 	.word	0x37363534
    8b24:	42413938 	.word	0x42413938
    8b28:	46454443 	.word	0x46454443
    8b2c:	00000000 	.word	0x00000000
    8b30:	2d2d0a0d 	.word	0x2d2d0a0d
    8b34:	4253202d 	.word	0x4253202d
    8b38:	50204b52 	.word	0x50204b52
    8b3c:	45424f52 	.word	0x45424f52
    8b40:	2d2d2d20 	.word	0x2d2d2d20
    8b44:	00000a0d 	.word	0x00000a0d
    8b48:	6165685f 	.word	0x6165685f
    8b4c:	74735f70 	.word	0x74735f70
    8b50:	3d747261 	.word	0x3d747261
    8b54:	00000020 	.word	0x00000020
    8b58:	00000a0d 	.word	0x00000a0d
    8b5c:	6165685f 	.word	0x6165685f
    8b60:	6e655f70 	.word	0x6e655f70
    8b64:	3d202064 	.word	0x3d202064
    8b68:	00000020 	.word	0x00000020
    8b6c:	6b726273 	.word	0x6b726273
    8b70:	20293028 	.word	0x20293028
    8b74:	203d2020 	.word	0x203d2020
    8b78:	00000000 	.word	0x00000000
    8b7c:	6b726273 	.word	0x6b726273
    8b80:	29343628 	.word	0x29343628
    8b84:	69616620 	.word	0x69616620
    8b88:	0d64656c 	.word	0x0d64656c
    8b8c:	0000000a 	.word	0x0000000a
    8b90:	6b726273 	.word	0x6b726273
    8b94:	29343628 	.word	0x29343628
    8b98:	203e2d20 	.word	0x203e2d20
    8b9c:	00000000 	.word	0x00000000
    8ba0:	6b726273 	.word	0x6b726273
    8ba4:	20293028 	.word	0x20293028
    8ba8:	65746661 	.word	0x65746661
    8bac:	203d2072 	.word	0x203d2072
    8bb0:	00000000 	.word	0x00000000
    8bb4:	202d2d2d 	.word	0x202d2d2d
    8bb8:	4b524253 	.word	0x4b524253
    8bbc:	4f525020 	.word	0x4f525020
    8bc0:	45204542 	.word	0x45204542
    8bc4:	2d20444e 	.word	0x2d20444e
    8bc8:	0a0d2d2d 	.word	0x0a0d2d2d
    8bcc:	00000000 	.word	0x00000000
    8bd0:	2d2d0a0d 	.word	0x2d2d0a0d
    8bd4:	414d202d 	.word	0x414d202d
    8bd8:	434f4c4c 	.word	0x434f4c4c
    8bdc:	4950472b 	.word	0x4950472b
    8be0:	4554204f 	.word	0x4554204f
    8be4:	2d205453 	.word	0x2d205453
    8be8:	0a0d2d2d 	.word	0x0a0d2d2d
    8bec:	00000000 	.word	0x00000000
    8bf0:	6c616572 	.word	0x6c616572
    8bf4:	20636f6c 	.word	0x20636f6c
    8bf8:	6c696166 	.word	0x6c696166
    8bfc:	73206465 	.word	0x73206465
    8c00:	3d657a69 	.word	0x3d657a69
    8c04:	00000000 	.word	0x00000000
    8c08:	6c616572 	.word	0x6c616572
    8c0c:	20636f6c 	.word	0x20636f6c
    8c10:	73204b4f 	.word	0x73204b4f
    8c14:	3d657a69 	.word	0x3d657a69
    8c18:	00000000 	.word	0x00000000
    8c1c:	72747020 	.word	0x72747020
    8c20:	0000003d 	.word	0x0000003d
    8c24:	72627320 	.word	0x72627320
    8c28:	2930286b 	.word	0x2930286b
    8c2c:	0000003d 	.word	0x0000003d
    8c30:	72627320 	.word	0x72627320
    8c34:	61635f6b 	.word	0x61635f6b
    8c38:	3d736c6c 	.word	0x3d736c6c
    8c3c:	00000000 	.word	0x00000000
    8c40:	202d2d2d 	.word	0x202d2d2d
    8c44:	4c4c414d 	.word	0x4c4c414d
    8c48:	472b434f 	.word	0x472b434f
    8c4c:	204f4950 	.word	0x204f4950
    8c50:	54534554 	.word	0x54534554
    8c54:	444e4520 	.word	0x444e4520
    8c58:	2d2d2d20 	.word	0x2d2d2d20
    8c5c:	00000a0d 	.word	0x00000a0d
    8c60:	2d2d0a0d 	.word	0x2d2d0a0d
    8c64:	454d202d 	.word	0x454d202d
    8c68:	59524f4d 	.word	0x59524f4d
    8c6c:	59414c20 	.word	0x59414c20
    8c70:	2054554f 	.word	0x2054554f
    8c74:	0d2d2d2d 	.word	0x0d2d2d2d
    8c78:	0000000a 	.word	0x0000000a
    8c7c:	646e655f 	.word	0x646e655f
    8c80:	7373625f 	.word	0x7373625f
    8c84:	3d202020 	.word	0x3d202020
    8c88:	00000020 	.word	0x00000020
    8c8c:	6174735f 	.word	0x6174735f
    8c90:	745f6b63 	.word	0x745f6b63
    8c94:	3d20706f 	.word	0x3d20706f
    8c98:	00000020 	.word	0x00000020
    8c9c:	6b726273 	.word	0x6b726273
    8ca0:	20293028 	.word	0x20293028
    8ca4:	3d202020 	.word	0x3d202020
    8ca8:	00000020 	.word	0x00000020
    8cac:	20205053 	.word	0x20205053
    8cb0:	20202020 	.word	0x20202020
    8cb4:	3d202020 	.word	0x3d202020
    8cb8:	00000020 	.word	0x00000020
    8cbc:	6b726273 	.word	0x6b726273
    8cc0:	6c61635f 	.word	0x6c61635f
    8cc4:	3d20736c 	.word	0x3d20736c
    8cc8:	00000020 	.word	0x00000020
    8ccc:	6b726273 	.word	0x6b726273
    8cd0:	20293028 	.word	0x20293028
    8cd4:	0000203d 	.word	0x0000203d
    8cd8:	2d2d0a0d 	.word	0x2d2d0a0d
    8cdc:	414d202d 	.word	0x414d202d
    8ce0:	434f4c4c 	.word	0x434f4c4c
    8ce4:	53455420 	.word	0x53455420
    8ce8:	2d2d2054 	.word	0x2d2d2054
    8cec:	000a0d2d 	.word	0x000a0d2d
    8cf0:	6c616572 	.word	0x6c616572
    8cf4:	20636f6c 	.word	0x20636f6c
    8cf8:	6c696166 	.word	0x6c696166
    8cfc:	61206465 	.word	0x61206465
    8d00:	69732074 	.word	0x69732074
    8d04:	003d657a 	.word	0x003d657a
    8d08:	6f6c6c61 	.word	0x6f6c6c61
    8d0c:	65746163 	.word	0x65746163
    8d10:	69732064 	.word	0x69732064
    8d14:	003d657a 	.word	0x003d657a
    8d18:	202d2d2d 	.word	0x202d2d2d
    8d1c:	4c4c414d 	.word	0x4c4c414d
    8d20:	5420434f 	.word	0x5420434f
    8d24:	20545345 	.word	0x20545345
    8d28:	20444e45 	.word	0x20444e45
    8d2c:	0d2d2d2d 	.word	0x0d2d2d2d
    8d30:	0000000a 	.word	0x0000000a
    8d34:	4c554e3c 	.word	0x4c554e3c
    8d38:	0a0d3e4c 	.word	0x0a0d3e4c
    8d3c:	00000000 	.word	0x00000000
    8d40:	0000203a 	.word	0x0000203a
    8d44:	00000020 	.word	0x00000020
    8d48:	3d3d0a0d 	.word	0x3d3d0a0d
    8d4c:	5546203d 	.word	0x5546203d
    8d50:	4d204c4c 	.word	0x4d204c4c
    8d54:	53204d45 	.word	0x53204d45
    8d58:	45544154 	.word	0x45544154
    8d5c:	3d3d3d20 	.word	0x3d3d3d20
    8d60:	00000a0d 	.word	0x00000a0d
    8d64:	646e655f 	.word	0x646e655f
    8d68:	7373625f 	.word	0x7373625f
    8d6c:	20202020 	.word	0x20202020
    8d70:	0000203d 	.word	0x0000203d
    8d74:	6165685f 	.word	0x6165685f
    8d78:	74735f70 	.word	0x74735f70
    8d7c:	20747261 	.word	0x20747261
    8d80:	0000203d 	.word	0x0000203d
    8d84:	6165685f 	.word	0x6165685f
    8d88:	6e655f70 	.word	0x6e655f70
    8d8c:	20202064 	.word	0x20202064
    8d90:	0000203d 	.word	0x0000203d
    8d94:	6174735f 	.word	0x6174735f
    8d98:	745f6b63 	.word	0x745f6b63
    8d9c:	2020706f 	.word	0x2020706f
    8da0:	0000203d 	.word	0x0000203d
    8da4:	6b726273 	.word	0x6b726273
    8da8:	20293028 	.word	0x20293028
    8dac:	20202020 	.word	0x20202020
    8db0:	0000203d 	.word	0x0000203d
    8db4:	6b726273 	.word	0x6b726273
    8db8:	6c61635f 	.word	0x6c61635f
    8dbc:	2020736c 	.word	0x2020736c
    8dc0:	0000203d 	.word	0x0000203d
    8dc4:	28205053 	.word	0x28205053
    8dc8:	74736e69 	.word	0x74736e69
    8dcc:	20202029 	.word	0x20202029
    8dd0:	0000203d 	.word	0x0000203d
    8dd4:	65657266 	.word	0x65657266
    8dd8:	61656820 	.word	0x61656820
    8ddc:	20202070 	.word	0x20202070
    8de0:	0000203d 	.word	0x0000203d
    8de4:	74796220 	.word	0x74796220
    8de8:	0a0d7365 	.word	0x0a0d7365
    8dec:	00000000 	.word	0x00000000
    8df0:	65657266 	.word	0x65657266
    8df4:	61656820 	.word	0x61656820
    8df8:	20202070 	.word	0x20202070
    8dfc:	693c203d 	.word	0x693c203d
    8e00:	6c61766e 	.word	0x6c61766e
    8e04:	203a6469 	.word	0x203a6469
    8e08:	206b7262 	.word	0x206b7262
    8e0c:	6568203e 	.word	0x6568203e
    8e10:	655f7061 	.word	0x655f7061
    8e14:	0d3e646e 	.word	0x0d3e646e
    8e18:	0000000a 	.word	0x0000000a
    8e1c:	2d2d0a0d 	.word	0x2d2d0a0d
    8e20:	6d654d20 	.word	0x6d654d20
    8e24:	2079726f 	.word	0x2079726f
    8e28:	76657270 	.word	0x76657270
    8e2c:	73776569 	.word	0x73776569
    8e30:	0d2d2d20 	.word	0x0d2d2d20
    8e34:	0000000a 	.word	0x0000000a
    8e38:	70616568 	.word	0x70616568
    8e3c:	6174735f 	.word	0x6174735f
    8e40:	70207472 	.word	0x70207472
    8e44:	69766572 	.word	0x69766572
    8e48:	003a7765 	.word	0x003a7765
    8e4c:	6b726273 	.word	0x6b726273
    8e50:	20293028 	.word	0x20293028
    8e54:	76657270 	.word	0x76657270
    8e58:	3a776569 	.word	0x3a776569
    8e5c:	00000000 	.word	0x00000000
    8e60:	63617473 	.word	0x63617473
    8e64:	6e28206b 	.word	0x6e28206b
    8e68:	20726165 	.word	0x20726165
    8e6c:	20295053 	.word	0x20295053
    8e70:	76657270 	.word	0x76657270
    8e74:	3a776569 	.word	0x3a776569
    8e78:	00000000 	.word	0x00000000
    8e7c:	203d3d3d 	.word	0x203d3d3d
    8e80:	20444e45 	.word	0x20444e45
    8e84:	4c4c5546 	.word	0x4c4c5546
    8e88:	4d454d20 	.word	0x4d454d20
    8e8c:	41545320 	.word	0x41545320
    8e90:	3d204554 	.word	0x3d204554
    8e94:	0a0d3d3d 	.word	0x0a0d3d3d
    8e98:	00000000 	.word	0x00000000
    8e9c:	70616568 	.word	0x70616568
    8ea0:	00000000 	.word	0x00000000
    8ea4:	2f737362 	.word	0x2f737362
    8ea8:	61746164 	.word	0x61746164
    8eac:	00000000 	.word	0x00000000
    8eb0:	63617473 	.word	0x63617473
    8eb4:	0000006b 	.word	0x0000006b
    8eb8:	6e6b6e75 	.word	0x6e6b6e75
    8ebc:	006e776f 	.word	0x006e776f
    8ec0:	00203d20 	.word	0x00203d20
    8ec4:	005b2020 	.word	0x005b2020
    8ec8:	7320205d 	.word	0x7320205d
    8ecc:	3d657a69 	.word	0x3d657a69
    8ed0:	00000000 	.word	0x00000000
    8ed4:	00002020 	.word	0x00002020
    8ed8:	3d6c6176 	.word	0x3d6c6176
    8edc:	00000000 	.word	0x00000000
    8ee0:	00002820 	.word	0x00002820
    8ee4:	00000029 	.word	0x00000029
    8ee8:	3d6c6176 	.word	0x3d6c6176
    8eec:	00007830 	.word	0x00007830
    8ef0:	6c6c7566 	.word	0x6c6c7566
    8ef4:	65697620 	.word	0x65697620
    8ef8:	70282077 	.word	0x70282077
    8efc:	746e6972 	.word	0x746e6972
    8f00:	20676e69 	.word	0x20676e69
    8f04:	69746e65 	.word	0x69746e65
    8f08:	72206572 	.word	0x72206572
    8f0c:	6f696765 	.word	0x6f696765
    8f10:	003a296e 	.word	0x003a296e
    8f14:	76657270 	.word	0x76657270
    8f18:	3a776569 	.word	0x3a776569
    8f1c:	00000000 	.word	0x00000000
    8f20:	7572745b 	.word	0x7572745b
    8f24:	7461636e 	.word	0x7461636e
    8f28:	005d6465 	.word	0x005d6465
    8f2c:	3d3d0a0d 	.word	0x3d3d0a0d
    8f30:	4156203d 	.word	0x4156203d
    8f34:	42414952 	.word	0x42414952
    8f38:	2053454c 	.word	0x2053454c
    8f3c:	4d4d5553 	.word	0x4d4d5553
    8f40:	20595241 	.word	0x20595241
    8f44:	6e656728 	.word	0x6e656728
    8f48:	63697265 	.word	0x63697265
    8f4c:	3d3d2029 	.word	0x3d3d2029
    8f50:	000a0d3d 	.word	0x000a0d3d
    8f54:	65657266 	.word	0x65657266
    8f58:	61656820 	.word	0x61656820
    8f5c:	20202070 	.word	0x20202070
    8f60:	693c203d 	.word	0x693c203d
    8f64:	6c61766e 	.word	0x6c61766e
    8f68:	0d3e6469 	.word	0x0d3e6469
    8f6c:	0000000a 	.word	0x0000000a
    8f70:	203d3d3d 	.word	0x203d3d3d
    8f74:	20444e45 	.word	0x20444e45
    8f78:	49524156 	.word	0x49524156
    8f7c:	454c4241 	.word	0x454c4241
    8f80:	55532053 	.word	0x55532053
    8f84:	52414d4d 	.word	0x52414d4d
    8f88:	3d3d2059 	.word	0x3d3d2059
    8f8c:	000a0d3d 	.word	0x000a0d3d
    8f90:	203e0a0d 	.word	0x203e0a0d
    8f94:	00000000 	.word	0x00000000
    8f98:	52450a0d 	.word	0x52450a0d
    8f9c:	3a524f52 	.word	0x3a524f52
    8fa0:	6e696c20 	.word	0x6e696c20
    8fa4:	6f742065 	.word	0x6f742065
    8fa8:	6f6c206f 	.word	0x6f6c206f
    8fac:	0a0d676e 	.word	0x0a0d676e
    8fb0:	0000203e 	.word	0x0000203e
    8fb4:	00000920 	.word	0x00000920
    8fb8:	4e595350 	.word	0x4e595350
    8fbc:	00000000 	.word	0x00000000
    8fc0:	52450a0d 	.word	0x52450a0d
    8fc4:	3a524f52 	.word	0x3a524f52
    8fc8:	73696d20 	.word	0x73696d20
    8fcc:	676e6973 	.word	0x676e6973
    8fd0:	6c617620 	.word	0x6c617620
    8fd4:	202e6575 	.word	0x202e6575
    8fd8:	3a657355 	.word	0x3a657355
    8fdc:	59535020 	.word	0x59535020
    8fe0:	206e204e 	.word	0x206e204e
    8fe4:	3d6e2820 	.word	0x3d6e2820
    8fe8:	392e2e35 	.word	0x392e2e35
    8fec:	0a0d2936 	.word	0x0a0d2936
    8ff0:	0000203e 	.word	0x0000203e
    8ff4:	52450a0d 	.word	0x52450a0d
    8ff8:	3a524f52 	.word	0x3a524f52
    8ffc:	766e6920 	.word	0x766e6920
    9000:	64696c61 	.word	0x64696c61
    9004:	6d756e20 	.word	0x6d756e20
    9008:	2e726562 	.word	0x2e726562
    900c:	65735520 	.word	0x65735520
    9010:	5350203a 	.word	0x5350203a
    9014:	6e204e59 	.word	0x6e204e59
    9018:	203e0a0d 	.word	0x203e0a0d
    901c:	00000000 	.word	0x00000000
    9020:	52450a0d 	.word	0x52450a0d
    9024:	3a524f52 	.word	0x3a524f52
    9028:	6c617620 	.word	0x6c617620
    902c:	6f206575 	.word	0x6f206575
    9030:	6f207475 	.word	0x6f207475
    9034:	61722066 	.word	0x61722066
    9038:	2065676e 	.word	0x2065676e
    903c:	2e2e3528 	.word	0x2e2e3528
    9040:	0d293639 	.word	0x0d293639
    9044:	00203e0a 	.word	0x00203e0a
    9048:	52450a0d 	.word	0x52450a0d
    904c:	3a524f52 	.word	0x3a524f52
    9050:	6b6e7520 	.word	0x6b6e7520
    9054:	6e776f6e 	.word	0x6e776f6e
    9058:	6d6f6320 	.word	0x6d6f6320
    905c:	646e616d 	.word	0x646e616d
    9060:	7355202e 	.word	0x7355202e
    9064:	50203a65 	.word	0x50203a65
    9068:	204e5953 	.word	0x204e5953
    906c:	3e0a0d6e 	.word	0x3e0a0d6e
    9070:	00000020 	.word	0x00000020
    9074:	4f525245 	.word	0x4f525245
    9078:	6d203a52 	.word	0x6d203a52
    907c:	6f6c6c61 	.word	0x6f6c6c61
    9080:	6f662063 	.word	0x6f662063
    9084:	6d632072 	.word	0x6d632072
    9088:	6f6c5f64 	.word	0x6f6c5f64
    908c:	206c6163 	.word	0x206c6163
    9090:	6c696166 	.word	0x6c696166
    9094:	0a0d6465 	.word	0x0a0d6465
    9098:	00000000 	.word	0x00000000
    909c:	5f646d63 	.word	0x5f646d63
    90a0:	61636f6c 	.word	0x61636f6c
    90a4:	7470206c 	.word	0x7470206c
    90a8:	203d2072 	.word	0x203d2072
    90ac:	00000000 	.word	0x00000000
    90b0:	6c203b20 	.word	0x6c203b20
    90b4:	3d206e65 	.word	0x3d206e65
    90b8:	00000020 	.word	0x00000020
    90bc:	0000000a 	.word	0x0000000a
    90c0:	77705f67 	.word	0x77705f67
    90c4:	7265506d 	.word	0x7265506d
    90c8:	00646f69 	.word	0x00646f69
    90cc:	77705f67 	.word	0x77705f67
    90d0:	6c75506d 	.word	0x6c75506d
    90d4:	00006573 	.word	0x00006573
    90d8:	55424544 	.word	0x55424544
    90dc:	41203a47 	.word	0x41203a47
    90e0:	72657466 	.word	0x72657466
    90e4:	4d575020 	.word	0x4d575020
    90e8:	72617620 	.word	0x72617620
    90ec:	6c626169 	.word	0x6c626169
    90f0:	202c7365 	.word	0x202c7365
    90f4:	74736574 	.word	0x74736574
    90f8:	20676e69 	.word	0x20676e69
    90fc:	6c6c616d 	.word	0x6c6c616d
    9100:	2e2e636f 	.word	0x2e2e636f
    9104:	000a0d2e 	.word	0x000a0d2e
    9108:	5f4e5944 	.word	0x5f4e5944
    910c:	54534554 	.word	0x54534554
    9110:	6548203a 	.word	0x6548203a
    9114:	206f6c6c 	.word	0x206f6c6c
    9118:	6d6f7266 	.word	0x6d6f7266
    911c:	6e796420 	.word	0x6e796420
    9120:	63696d61 	.word	0x63696d61
    9124:	66756220 	.word	0x66756220
    9128:	21726566 	.word	0x21726566
    912c:	00000000 	.word	0x00000000
    9130:	55424544 	.word	0x55424544
    9134:	73203a47 	.word	0x73203a47
    9138:	656c7274 	.word	0x656c7274
    913c:	6f63206e 	.word	0x6f63206e
    9140:	656c706d 	.word	0x656c706d
    9144:	2c646574 	.word	0x2c646574
    9148:	74696c20 	.word	0x74696c20
    914c:	6e656c5f 	.word	0x6e656c5f
    9150:	0000003d 	.word	0x0000003d
    9154:	00000a0d 	.word	0x00000a0d
    9158:	4f525245 	.word	0x4f525245
    915c:	6d203a52 	.word	0x6d203a52
    9160:	6f6c6c61 	.word	0x6f6c6c61
    9164:	61662063 	.word	0x61662063
    9168:	64656c69 	.word	0x64656c69
    916c:	00000a0d 	.word	0x00000a0d
    9170:	55424544 	.word	0x55424544
    9174:	6d203a47 	.word	0x6d203a47
    9178:	6f6c6c61 	.word	0x6f6c6c61
    917c:	75732063 	.word	0x75732063
    9180:	65656363 	.word	0x65656363
    9184:	2c646564 	.word	0x2c646564
    9188:	72747020 	.word	0x72747020
    918c:	0000003d 	.word	0x0000003d
    9190:	55424544 	.word	0x55424544
    9194:	6d203a47 	.word	0x6d203a47
    9198:	70636d65 	.word	0x70636d65
    919c:	6f632079 	.word	0x6f632079
    91a0:	656c706d 	.word	0x656c706d
    91a4:	0d646574 	.word	0x0d646574
    91a8:	0000000a 	.word	0x0000000a
    91ac:	55424544 	.word	0x55424544
    91b0:	41203a47 	.word	0x41203a47
    91b4:	74756f62 	.word	0x74756f62
    91b8:	206f7420 	.word	0x206f7420
    91bc:	6c6c6163 	.word	0x6c6c6163
    91c0:	61696420 	.word	0x61696420
    91c4:	72705f67 	.word	0x72705f67
    91c8:	5f746e69 	.word	0x5f746e69
    91cc:	69726176 	.word	0x69726176
    91d0:	656c6261 	.word	0x656c6261
    91d4:	74697720 	.word	0x74697720
    91d8:	4f4e2068 	.word	0x4f4e2068
    91dc:	494d494c 	.word	0x494d494c
    91e0:	2e2e2e54 	.word	0x2e2e2e54
    91e4:	00000a0d 	.word	0x00000a0d
    91e8:	5f6e7964 	.word	0x5f6e7964
    91ec:	00727473 	.word	0x00727473
    91f0:	55424544 	.word	0x55424544
    91f4:	64203a47 	.word	0x64203a47
    91f8:	5f676169 	.word	0x5f676169
    91fc:	6e697270 	.word	0x6e697270
    9200:	61765f74 	.word	0x61765f74
    9204:	62616972 	.word	0x62616972
    9208:	6320656c 	.word	0x6320656c
    920c:	6c706d6f 	.word	0x6c706d6f
    9210:	64657465 	.word	0x64657465
    9214:	00000a0d 	.word	0x00000a0d
    9218:	55424544 	.word	0x55424544
    921c:	41203a47 	.word	0x41203a47
    9220:	74756f62 	.word	0x74756f62
    9224:	206f7420 	.word	0x206f7420
    9228:	6c636564 	.word	0x6c636564
    922c:	20657261 	.word	0x20657261
    9230:	6267736d 	.word	0x6267736d
    9234:	335b6675 	.word	0x335b6675
    9238:	2e5d3032 	.word	0x2e5d3032
    923c:	0a0d2e2e 	.word	0x0a0d2e2e
    9240:	00000000 	.word	0x00000000
    9244:	55424544 	.word	0x55424544
    9248:	6d203a47 	.word	0x6d203a47
    924c:	75626773 	.word	0x75626773
    9250:	65642066 	.word	0x65642066
    9254:	72616c63 	.word	0x72616c63
    9258:	202c6465 	.word	0x202c6465
    925c:	74736574 	.word	0x74736574
    9260:	20676e69 	.word	0x20676e69
    9264:	2072756f 	.word	0x2072756f
    9268:	69727073 	.word	0x69727073
    926c:	2066746e 	.word	0x2066746e
    9270:	6c706572 	.word	0x6c706572
    9274:	6d656361 	.word	0x6d656361
    9278:	2e746e65 	.word	0x2e746e65
    927c:	0a0d2e2e 	.word	0x0a0d2e2e
    9280:	00000000 	.word	0x00000000
    9284:	49525053 	.word	0x49525053
    9288:	3a46544e 	.word	0x3a46544e
    928c:	6e796420 	.word	0x6e796420
    9290:	20702540 	.word	0x20702540
    9294:	3d6e656c 	.word	0x3d6e656c
    9298:	63207525 	.word	0x63207525
    929c:	65746e6f 	.word	0x65746e6f
    92a0:	3d73746e 	.word	0x3d73746e
    92a4:	27732527 	.word	0x27732527
    92a8:	00000a0d 	.word	0x00000a0d
    92ac:	55424544 	.word	0x55424544
    92b0:	73203a47 	.word	0x73203a47
    92b4:	6e697270 	.word	0x6e697270
    92b8:	72206674 	.word	0x72206674
    92bc:	616c7065 	.word	0x616c7065
    92c0:	656d6563 	.word	0x656d6563
    92c4:	7320746e 	.word	0x7320746e
    92c8:	65636375 	.word	0x65636375
    92cc:	64656465 	.word	0x64656465
    92d0:	3d6e202c 	.word	0x3d6e202c
    92d4:	00000000 	.word	0x00000000
    92d8:	55424544 	.word	0x55424544
    92dc:	55203a47 	.word	0x55203a47
    92e0:	53545241 	.word	0x53545241
    92e4:	20646e65 	.word	0x20646e65
    92e8:	706d6f63 	.word	0x706d6f63
    92ec:	6574656c 	.word	0x6574656c
    92f0:	000a0d64 	.word	0x000a0d64
    92f4:	4f525245 	.word	0x4f525245
    92f8:	73203a52 	.word	0x73203a52
    92fc:	6e697270 	.word	0x6e697270
    9300:	72206674 	.word	0x72206674
    9304:	616c7065 	.word	0x616c7065
    9308:	656d6563 	.word	0x656d6563
    930c:	6620746e 	.word	0x6620746e
    9310:	656c6961 	.word	0x656c6961
    9314:	000a0d64 	.word	0x000a0d64
    9318:	55424544 	.word	0x55424544
    931c:	66203a47 	.word	0x66203a47
    9320:	20656572 	.word	0x20656572
    9324:	706d6f63 	.word	0x706d6f63
    9328:	6574656c 	.word	0x6574656c
    932c:	000a0d64 	.word	0x000a0d64
    9330:	6b726273 	.word	0x6b726273
    9334:	00293028 	.word	0x00293028
    9338:	53204f4e 	.word	0x53204f4e
    933c:	49535345 	.word	0x49535345
    9340:	41204e4f 	.word	0x41204e4f
    9344:	56495443 	.word	0x56495443
    9348:	000a0d45 	.word	0x000a0d45
    934c:	53534553 	.word	0x53534553
    9350:	204e4f49 	.word	0x204e4f49
    9354:	20534157 	.word	0x20534157
    9358:	54494e49 	.word	0x54494e49
    935c:	45544149 	.word	0x45544149
    9360:	000a0d44 	.word	0x000a0d44
    9364:	57500a0d 	.word	0x57500a0d
    9368:	6552204d 	.word	0x6552204d
    936c:	2e796461 	.word	0x2e796461
    9370:	746e4520 	.word	0x746e4520
    9374:	63207265 	.word	0x63207265
    9378:	616d6d6f 	.word	0x616d6d6f
    937c:	203a646e 	.word	0x203a646e
    9380:	4e595350 	.word	0x4e595350
    9384:	20206e20 	.word	0x20206e20
    9388:	3d206e28 	.word	0x3d206e28
    938c:	2e2e3520 	.word	0x2e2e3520
    9390:	0d293639 	.word	0x0d293639
    9394:	00203e0a 	.word	0x00203e0a
    9398:	5f646d63 	.word	0x5f646d63
    939c:	61636f6c 	.word	0x61636f6c
    93a0:	4542206c 	.word	0x4542206c
    93a4:	45524f46 	.word	0x45524f46
    93a8:	6d656d20 	.word	0x6d656d20
    93ac:	3a797063 	.word	0x3a797063
    93b0:	00000020 	.word	0x00000020
    93b4:	53524150 	.word	0x53524150
    93b8:	54204445 	.word	0x54204445
    93bc:	20534948 	.word	0x20534948
    93c0:	4d4d4f43 	.word	0x4d4d4f43
    93c4:	3a444e41 	.word	0x3a444e41
    93c8:	00000020 	.word	0x00000020
    93cc:	53534553 	.word	0x53534553
    93d0:	204e4f49 	.word	0x204e4f49
    93d4:	20534157 	.word	0x20534157
    93d8:	43534944 	.word	0x43534944
    93dc:	454e4e4f 	.word	0x454e4e4f
    93e0:	44455443 	.word	0x44455443
    93e4:	00000a0d 	.word	0x00000a0d

000093e8 <g_pui32GPIOBaseAddrs>:
    93e8:	40004000 40058000 40005000 40059000     .@.@...@.P.@...@
    93f8:	40006000 4005a000 40007000 4005b000     .`.@...@.p.@...@
    9408:	40024000 4005c000 40025000 4005d000     .@.@...@.P.@...@
    9418:	40026000 4005e000 40027000 4005f000     .`.@...@.p.@...@
    9428:	4003d000 40060000 40061000 40061000     ...@...@...@...@
    9438:	40062000 40062000 40063000 40063000     . .@. .@.0.@.0.@
    9448:	40064000 40064000 40065000 40065000     .@.@.@.@.P.@.P.@
    9458:	40066000 40066000 40067000 40067000     .`.@.`.@.p.@.p.@
    9468:	40068000 40068000 40069000 40069000     ...@...@...@...@

00009478 <g_pui32VCOFrequencies>:
    9478:	09896800 0e4e1c00                       .h....N.

00009480 <g_sXTALtoMEMTIM>:
    9480:	00f42400 00300030 02625a00 00910091     .$..0.0..Zb.....
    9490:	03938700 00d200d2 04c4b400 01130113     ................
    94a0:	05f5e100 01540154 07270e00 01950195     ....T.T...'.....

000094b0 <g_pppui32XTALtoVCO>:
    94b0:	00000040 00000000 00000100 0008003e     @...........>...
    94c0:	00000000 00000100 000000a0 00000002     ................
    94d0:	00000100 00015434 00000000 00000100     ....4T..........
    94e0:	0006702b 00000000 00000100 00000028     +p..........(...
    94f0:	00000000 00000100 00010027 00000000     ........'.......
    9500:	00000100 00000020 00000000 00000100     .... ...........
    9510:	00000050 00000002 00000100 0000ac1a     P...............
    9520:	00000000 00000100 00099417 00000000     ................
    9530:	00000100 00059816 00000000 00000100     ................
    9540:	00000014 00000000 00000100 00088013     ................
    9550:	00000000 00000100 000000a0 00000008     ................
    9560:	00000100 00000010 00000000 00000100     ................
    9570:	00000028 00000002 00000100 00000040     (...........@...
    9580:	00000004 00000100 00000060 00000000     ........`.......
    9590:	00000100 000c005d 00000000 00000100     ....]...........
    95a0:	00000050 00000000 00000100 0002004e     P...........N...
    95b0:	00000000 00000100 0001ac41 00000000     ........A.......
    95c0:	00000100 0000003c 00000000 00000100     ....<...........
    95d0:	0009803a 00000000 00000100 00000030     :...........0...
    95e0:	00000000 00000100 00000028 00000000     ........(.......
    95f0:	00000100 00010027 00000000 00000100     ....'...........
    9600:	00066023 00000000 00000100 00086021     #`..........!`..
    9610:	00000000 00000100 0000001e 00000000     ................
    9620:	00000100 0004c01d 00000000 00000100     ................
    9630:	00000050 00000002 00000100 00000018     P...............
    9640:	00000000 00000100 00000014 00000000     ................
    9650:	00000100 00000060 00000004 00000100     ....`...........

00009660 <g_pui32Xtals>:
    9660:	000f4240 001c2000 001e8480 00258000     @B... ........%.
    9670:	00369e99 00384000 003d0900 003e8000     ..6..@8...=...>.
    9680:	004b0000 004c4b40 004e2000 005b8d80     ..K.@KL.. N...[.
    9690:	005dc000 00708000 007a1200 007d0000     ..]...p...z...}.
    96a0:	00989680 00b71b00 00bb8000 00cee8c0     ................
    96b0:	00da7a64 00f42400 00fa0000 0112a880     dz...$..........
    96c0:	01312d00 016e3600 017d7840 00464e49     .-1..6n.@x}.INF.
    96d0:	00666e69 004e414e 006e616e 33323130     inf.NAN.nan.0123
    96e0:	37363534 42413938 46454443 00000000     456789ABCDEF....
    96f0:	33323130 37363534 62613938 66656463     0123456789abcdef
    9700:	00000000 6c756e28 0000296c 00000030     ....(null)..0...
    9710:	69666e49 7974696e 00000000 004e614e     Infinity....NaN.
    9720:	6c6c6142 7320636f 65636375 64656465     Balloc succeeded
    9730:	00000000 2e2f2e2e 2e2e2f2e 2f2e2e2f     ....../../../../
    9740:	2e2f2e2e 656e2f2e 62696c77 62696c2f     ../../newlib/lib
    9750:	74732f63 62696c64 6f74642f 00632e61     c/stdlib/dtoa.c.
    9760:	7566202c 6974636e 203a6e6f 00000000     , function: ....
    9770:	65737361 6f697472 2522206e 66202273     assertion "%s" f
    9780:	656c6961 66203a64 20656c69 22732522     ailed: file "%s"
    9790:	696c202c 2520656e 25732564 00000a73     , line %d%s%s...
    97a0:	2e2f2e2e 2e2e2f2e 2f2e2e2f 2e2f2e2e     ../../../../../.
    97b0:	656e2f2e 62696c77 62696c2f 74732f63     ./newlib/libc/st
    97c0:	62696c64 72706d2f 632e6365 00000000     dlib/mprec.c....
    97d0:	00000043 49534f50 00000058 0000002e     C...POSIX.......

000097e0 <blanks.1>:
    97e0:	20202020 20202020 20202020 20202020                     

000097f0 <zeroes.0>:
    97f0:	30303030 30303030 30303030 30303030     0000000000000000

00009800 <_ctype_>:
    9800:	20202000 20202020 28282020 20282828     .         ((((( 
    9810:	20202020 20202020 20202020 20202020                     
    9820:	10108820 10101010 10101010 10101010      ...............
    9830:	04040410 04040404 10040404 10101010     ................
    9840:	41411010 41414141 01010101 01010101     ..AAAAAA........
    9850:	01010101 01010101 01010101 10101010     ................
    9860:	42421010 42424242 02020202 02020202     ..BBBBBB........
    9870:	02020202 02020202 02020202 10101010     ................
    9880:	00000020 00000000 00000000 00000000      ...............
	...

00009908 <p05.0>:
    9908:	00000005 00000019 0000007d 00000000     ........}.......

00009918 <__mprec_tens>:
    9918:	00000000 3ff00000 00000000 40240000     .......?......$@
    9928:	00000000 40590000 00000000 408f4000     ......Y@.....@.@
    9938:	00000000 40c38800 00000000 40f86a00     .......@.....j.@
    9948:	00000000 412e8480 00000000 416312d0     .......A......cA
    9958:	00000000 4197d784 00000000 41cdcd65     .......A....e..A
    9968:	20000000 4202a05f e8000000 42374876     ... _..B....vH7B
    9978:	a2000000 426d1a94 e5400000 42a2309c     ......mB..@..0.B
    9988:	1e900000 42d6bcc4 26340000 430c6bf5     .......B..4&.k.C
    9998:	37e08000 4341c379 85d8a000 43763457     ...7y.AC....W4vC
    99a8:	674ec800 43abc16d 60913d00 43e158e4     ..Ngm..C.=.`.X.C
    99b8:	78b58c40 4415af1d d6e2ef50 444b1ae4     @..x...DP.....KD
    99c8:	064dd592 4480f0cf c7e14af6 44b52d02     ..M....D.J...-.D
    99d8:	79d99db4 44ea7843                       ...yCx.D

000099e0 <__mprec_tinytens>:
    99e0:	97d889bc 3c9cd2b2 d5a8a733 3949f623     .......<3...#.I9
    99f0:	44f4a73d 32a50ffd cf8c979d 255bba08     =..D...2......[%
    9a00:	64ac6f43 0ac80628                       Co.d(...

00009a08 <__mprec_bigtens>:
    9a08:	37e08000 4341c379 b5056e17 4693b8b5     ...7y.AC.n.....F
    9a18:	e93ff9f5 4d384f03 f9301d32 5a827748     ..?..O8M2.0.Hw.Z
    9a28:	7f73bf3c 75154fdd                       <.s..O.u

00009a30 <blanks.1>:
    9a30:	20202020 20202020 20202020 20202020                     

00009a40 <zeroes.0>:
    9a40:	30303030 30303030 30303030 30303030     0000000000000000
