
integr_v02.axf:     file format elf32-littlearm


Disassembly of section .text:

00000000 <myvectors>:
}

/* Run the session until DTR disconnect (returns when disconnect detected).
   This uses UART3 non-blocking reads and returns when GPIO PQ1 indicates session end. */
void cmdline_run_until_disconnect(void)
{
       0:	00 80 00 20 6d 1c 00 00 c9 1c 00 00 d1 1c 00 00     ... m...........
    if (!g_sent_welcome) {
      10:	d9 1c 00 00 d9 1c 00 00 d9 1c 00 00 00 00 00 00     ................
	...
        g_sent_welcome = true;
    }

    for (;;) {
        /* Exit if DTR indicates disconnect (same polarity used in main) */
        if (ROM_GPIOPinRead(GPIO_PORTQ_BASE, GPIO_PIN_1)) {
      2c:	d9 1c 00 00 d9 1c 00 00 00 00 00 00 d9 1c 00 00     ................
            /* session ended */
            return;
        }

        int ch = ROM_UARTCharGetNonBlocking(UART3_BASE);
      3c:	d9 1c 00 00 d9 1c 00 00 d9 1c 00 00 d9 1c 00 00     ................
        if (ch != -1) {
      4c:	d9 1c 00 00 d9 1c 00 00 45 0f 00 00 d9 1c 00 00     ........E.......
            char c = (char)ch;

            /* Toggle PF4 LED on receive (same behavior as original) */
            static uint8_t led = 0;
            led = !led;
      5c:	d9 1c 00 00 d9 1c 00 00 00 00 00 00 00 00 00 00     ................
	...
            ROM_GPIOPinWrite(GPIO_PORTF_BASE, GPIO_PIN_4, led ? GPIO_PIN_4 : 0);
      78:	d9 1c 00 00 d9 1c 00 00 d9 1c 00 00 d9 1c 00 00     ................

            /* Backspace / DEL */
            if (c == '\b' || c == 0x7F) {
      88:	d9 1c 00 00 d9 1c 00 00 d9 1c 00 00 d9 1c 00 00     ................
                if (linepos > 0) {
                    linepos--;
      98:	d9 1c 00 00 d9 1c 00 00 d9 1c 00 00 d9 1c 00 00     ................
                    uart_echo_bs();
                    uart_line_notify_current(linebuf_local, linepos);
      a8:	d9 1c 00 00 d9 1c 00 00 d9 1c 00 00 d9 1c 00 00     ................
                } else {
                    ROM_UARTCharPutNonBlocking(UART3_BASE, '\a');
      b8:	d9 1c 00 00 d9 1c 00 00 d9 1c 00 00 d9 1c 00 00     ................
                    last_output_was_prompt = true;
                }
                continue;
      c8:	d9 1c 00 00 d9 1c 00 00 d9 1c 00 00 d9 1c 00 00     ................
            }

            /* Ctrl-U: kill line */
            if (c == 0x15) {
                while (linepos > 0) {
                    linepos--;
      d8:	d9 1c 00 00 d9 1c 00 00 d9 1c 00 00 d9 1c 00 00     ................
                    uart_echo_bs();
                }
                continue;
      e8:	d9 1c 00 00 d9 1c 00 00 d9 1c 00 00 d9 1c 00 00     ................
            }

            /* CR / LF */
            if (c == '\r' || c == '\n') {
                if (linepos > 0) {
      f8:	d9 1c 00 00 d9 1c 00 00 d9 1c 00 00 d9 1c 00 00     ................
                    linebuf_local[linepos] = '\0';
                    ROM_UARTCharPutNonBlocking(UART3_BASE, '\r');
     108:	d9 1c 00 00 d9 1c 00 00 d9 1c 00 00 d9 1c 00 00     ................
                    ROM_UARTCharPutNonBlocking(UART3_BASE, '\n');
     118:	d9 1c 00 00 d9 1c 00 00 e1 0f 00 00 d9 1c 00 00     ................
                    handle_line_and_respond(linebuf_local);
     128:	d9 1c 00 00 d9 1c 00 00 d9 1c 00 00 d9 1c 00 00     ................
                }
                continue;
            }

            /* Printable char: uppercase-as-you-type */
            if ((unsigned char)c >= 32) {
     138:	d9 1c 00 00 d9 1c 00 00 d9 1c 00 00 d9 1c 00 00     ................
                char uc = (char)toupper((unsigned char)c);
     148:	d9 1c 00 00 d9 1c 00 00 00 00 00 00 00 00 00 00     ................
     158:	d9 1c 00 00 d9 1c 00 00 d9 1c 00 00 d9 1c 00 00     ................
                ROM_UARTCharPutNonBlocking(UART3_BASE, uc);
     168:	00 00 00 00 d9 1c 00 00 d9 1c 00 00 d9 1c 00 00     ................
                if (linepos + 1 < UART_RX_BUF_SIZE) {
     178:	d9 1c 00 00 d9 1c 00 00 d9 1c 00 00 d9 1c 00 00     ................
                    linebuf_local[linepos++] = uc;
     188:	d9 1c 00 00 d9 1c 00 00 d9 1c 00 00 d9 1c 00 00     ................
                    uart_line_notify_current(linebuf_local, linepos);
     198:	d9 1c 00 00 d9 1c 00 00 d9 1c 00 00 d9 1c 00 00     ................
                } else {
                    output_puts("\r\n");
                    output_puts(ANSI_ERROR);
                    output_puts("ERROR: line too long\r\n");
     1a8:	d9 1c 00 00 d9 1c 00 00 d9 1c 00 00 d9 1c 00 00     ................
                    output_puts(ANSI_RESET);
                    prompt_print_once();
                    linepos = 0;
     1b8:	d9 1c 00 00 d9 1c 00 00 d9 1c 00 00 d9 1c 00 00     ................
                }
            }
        } else {
            /* small sleep to avoid busy-waiting */
            ROM_SysCtlDelay(ROM_SysCtlClockGet() / 3000);
     1c8:	d9 1c 00 00 d9 1c 00 00 d9 1c 00 00 d9 1c 00 00     ................
     1d8:	d9 1c 00 00 d9 1c 00 00 d9 1c 00 00 d9 1c 00 00     ................
        }
    }
}
     1e8:	d9 1c 00 00 d9 1c 00 00 d9 1c 00 00 d9 1c 00 00     ................
     1f8:	d9 1c 00 00 d9 1c 00 00                             ........

00000200 <UARTSend>:
     200:	b590      	push	{r4, r7, lr}
     202:	b085      	sub	sp, #20
     204:	af00      	add	r7, sp, #0
     206:	60f8      	str	r0, [r7, #12]
     208:	60b9      	str	r1, [r7, #8]
     20a:	4613      	mov	r3, r2
     20c:	71fb      	strb	r3, [r7, #7]
     20e:	e019      	b.n	244 <UARTSend+0x44>
     210:	79fb      	ldrb	r3, [r7, #7]
     212:	2b01      	cmp	r3, #1
     214:	d10b      	bne.n	22e <UARTSend+0x2e>
     216:	4b10      	ldr	r3, [pc, #64]	@ (258 <UARTSend+0x58>)
     218:	681b      	ldr	r3, [r3, #0]
     21a:	681b      	ldr	r3, [r3, #0]
     21c:	461c      	mov	r4, r3
     21e:	68fb      	ldr	r3, [r7, #12]
     220:	1c5a      	adds	r2, r3, #1
     222:	60fa      	str	r2, [r7, #12]
     224:	781b      	ldrb	r3, [r3, #0]
     226:	4619      	mov	r1, r3
     228:	480c      	ldr	r0, [pc, #48]	@ (25c <UARTSend+0x5c>)
     22a:	47a0      	blx	r4
     22c:	e00a      	b.n	244 <UARTSend+0x44>
     22e:	4b0a      	ldr	r3, [pc, #40]	@ (258 <UARTSend+0x58>)
        else MAP_UARTCharPut(UART0_BASE, *pui8Buffer++);
     230:	681b      	ldr	r3, [r3, #0]
     232:	681b      	ldr	r3, [r3, #0]
     234:	461c      	mov	r4, r3
     236:	68fb      	ldr	r3, [r7, #12]
     238:	1c5a      	adds	r2, r3, #1
     23a:	60fa      	str	r2, [r7, #12]
     23c:	781b      	ldrb	r3, [r3, #0]
     23e:	4619      	mov	r1, r3
     240:	4807      	ldr	r0, [pc, #28]	@ (260 <UARTSend+0x60>)
     242:	47a0      	blx	r4
    while (ui32Count--) {
     244:	68bb      	ldr	r3, [r7, #8]
     246:	1e5a      	subs	r2, r3, #1
     248:	60ba      	str	r2, [r7, #8]
     24a:	2b00      	cmp	r3, #0
     24c:	d1e0      	bne.n	210 <UARTSend+0x10>
}
     24e:	bf00      	nop
     250:	bf00      	nop
     252:	3714      	adds	r7, #20
     254:	46bd      	mov	sp, r7
     256:	bd90      	pop	{r4, r7, pc}
     258:	01000014 	.word	0x01000014
     25c:	4000f000 	.word	0x4000f000
     260:	4000c000 	.word	0x4000c000

00000264 <diag_simple_sprintf>:
}    
/* --- end formatting helpers --- */

/* Simple sprintf implementation without vsnprintf (avoids runtime stall) */
static int diag_simple_sprintf(char *str, int max_size, const char *format, va_list ap)
{
     264:	b480      	push	{r7}
     266:	b099      	sub	sp, #100	@ 0x64
     268:	af00      	add	r7, sp, #0
     26a:	60f8      	str	r0, [r7, #12]
     26c:	60b9      	str	r1, [r7, #8]
     26e:	607a      	str	r2, [r7, #4]
     270:	603b      	str	r3, [r7, #0]
    char *dest = str;
     272:	68fb      	ldr	r3, [r7, #12]
     274:	65fb      	str	r3, [r7, #92]	@ 0x5c
    const char *src = format;
     276:	687b      	ldr	r3, [r7, #4]
     278:	65bb      	str	r3, [r7, #88]	@ 0x58
    int written = 0;
     27a:	2300      	movs	r3, #0
     27c:	657b      	str	r3, [r7, #84]	@ 0x54
    
    while (*src && written < max_size - 1) {
     27e:	e12c      	b.n	4da <diag_simple_sprintf+0x276>
        if (*src != '%') {
     280:	6dbb      	ldr	r3, [r7, #88]	@ 0x58
     282:	781b      	ldrb	r3, [r3, #0]
     284:	2b25      	cmp	r3, #37	@ 0x25
     286:	d00b      	beq.n	2a0 <diag_simple_sprintf+0x3c>
            *dest++ = *src++;
     288:	6dba      	ldr	r2, [r7, #88]	@ 0x58
     28a:	1c53      	adds	r3, r2, #1
     28c:	65bb      	str	r3, [r7, #88]	@ 0x58
     28e:	6dfb      	ldr	r3, [r7, #92]	@ 0x5c
     290:	1c59      	adds	r1, r3, #1
     292:	65f9      	str	r1, [r7, #92]	@ 0x5c
     294:	7812      	ldrb	r2, [r2, #0]
     296:	701a      	strb	r2, [r3, #0]
            written++;
     298:	6d7b      	ldr	r3, [r7, #84]	@ 0x54
     29a:	3301      	adds	r3, #1
     29c:	657b      	str	r3, [r7, #84]	@ 0x54
     29e:	e11c      	b.n	4da <diag_simple_sprintf+0x276>
        } else {
            src++; /* skip '%' */
     2a0:	6dbb      	ldr	r3, [r7, #88]	@ 0x58
     2a2:	3301      	adds	r3, #1
     2a4:	65bb      	str	r3, [r7, #88]	@ 0x58
            if (*src == 's') {
     2a6:	6dbb      	ldr	r3, [r7, #88]	@ 0x58
     2a8:	781b      	ldrb	r3, [r3, #0]
     2aa:	2b73      	cmp	r3, #115	@ 0x73
     2ac:	d120      	bne.n	2f0 <diag_simple_sprintf+0x8c>
                /* %s - string */
                char *s = va_arg(ap, char*);
     2ae:	683b      	ldr	r3, [r7, #0]
     2b0:	1d1a      	adds	r2, r3, #4
     2b2:	603a      	str	r2, [r7, #0]
     2b4:	681b      	ldr	r3, [r3, #0]
     2b6:	653b      	str	r3, [r7, #80]	@ 0x50
                if (s) {
     2b8:	6d3b      	ldr	r3, [r7, #80]	@ 0x50
     2ba:	2b00      	cmp	r3, #0
     2bc:	d014      	beq.n	2e8 <diag_simple_sprintf+0x84>
                    while (*s && written < max_size - 1) {
     2be:	e00a      	b.n	2d6 <diag_simple_sprintf+0x72>
                        *dest++ = *s++;
     2c0:	6d3a      	ldr	r2, [r7, #80]	@ 0x50
     2c2:	1c53      	adds	r3, r2, #1
     2c4:	653b      	str	r3, [r7, #80]	@ 0x50
     2c6:	6dfb      	ldr	r3, [r7, #92]	@ 0x5c
     2c8:	1c59      	adds	r1, r3, #1
     2ca:	65f9      	str	r1, [r7, #92]	@ 0x5c
     2cc:	7812      	ldrb	r2, [r2, #0]
     2ce:	701a      	strb	r2, [r3, #0]
                        written++;
     2d0:	6d7b      	ldr	r3, [r7, #84]	@ 0x54
     2d2:	3301      	adds	r3, #1
     2d4:	657b      	str	r3, [r7, #84]	@ 0x54
                    while (*s && written < max_size - 1) {
     2d6:	6d3b      	ldr	r3, [r7, #80]	@ 0x50
     2d8:	781b      	ldrb	r3, [r3, #0]
     2da:	2b00      	cmp	r3, #0
     2dc:	d004      	beq.n	2e8 <diag_simple_sprintf+0x84>
     2de:	68bb      	ldr	r3, [r7, #8]
     2e0:	3b01      	subs	r3, #1
     2e2:	6d7a      	ldr	r2, [r7, #84]	@ 0x54
     2e4:	429a      	cmp	r2, r3
     2e6:	dbeb      	blt.n	2c0 <diag_simple_sprintf+0x5c>
                    }
                }
                src++;
     2e8:	6dbb      	ldr	r3, [r7, #88]	@ 0x58
     2ea:	3301      	adds	r3, #1
     2ec:	65bb      	str	r3, [r7, #88]	@ 0x58
     2ee:	e0f4      	b.n	4da <diag_simple_sprintf+0x276>
            } else if (*src == 'd') {
     2f0:	6dbb      	ldr	r3, [r7, #88]	@ 0x58
     2f2:	781b      	ldrb	r3, [r3, #0]
     2f4:	2b64      	cmp	r3, #100	@ 0x64
     2f6:	d15c      	bne.n	3b2 <diag_simple_sprintf+0x14e>
                /* %d - integer */
                int val = va_arg(ap, int);
     2f8:	683b      	ldr	r3, [r7, #0]
     2fa:	1d1a      	adds	r2, r3, #4
     2fc:	603a      	str	r2, [r7, #0]
     2fe:	681b      	ldr	r3, [r3, #0]
     300:	64fb      	str	r3, [r7, #76]	@ 0x4c
                char num_buf[12];
                int num_len = 0;
     302:	2300      	movs	r3, #0
     304:	64bb      	str	r3, [r7, #72]	@ 0x48
                
                /* Handle negative numbers */
                if (val < 0) {
     306:	6cfb      	ldr	r3, [r7, #76]	@ 0x4c
     308:	2b00      	cmp	r3, #0
     30a:	da0f      	bge.n	32c <diag_simple_sprintf+0xc8>
                    if (written < max_size - 1) {
     30c:	68bb      	ldr	r3, [r7, #8]
     30e:	3b01      	subs	r3, #1
     310:	6d7a      	ldr	r2, [r7, #84]	@ 0x54
     312:	429a      	cmp	r2, r3
     314:	da07      	bge.n	326 <diag_simple_sprintf+0xc2>
                        *dest++ = '-';
     316:	6dfb      	ldr	r3, [r7, #92]	@ 0x5c
     318:	1c5a      	adds	r2, r3, #1
     31a:	65fa      	str	r2, [r7, #92]	@ 0x5c
     31c:	222d      	movs	r2, #45	@ 0x2d
     31e:	701a      	strb	r2, [r3, #0]
                        written++;
     320:	6d7b      	ldr	r3, [r7, #84]	@ 0x54
     322:	3301      	adds	r3, #1
     324:	657b      	str	r3, [r7, #84]	@ 0x54
                    }
                    val = -val;
     326:	6cfb      	ldr	r3, [r7, #76]	@ 0x4c
     328:	425b      	negs	r3, r3
     32a:	64fb      	str	r3, [r7, #76]	@ 0x4c
                }
                
                /* Convert to string (reverse order) */
                do {
                    num_buf[num_len++] = '0' + (val % 10);
     32c:	6cfa      	ldr	r2, [r7, #76]	@ 0x4c
     32e:	4b75      	ldr	r3, [pc, #468]	@ (504 <diag_simple_sprintf+0x2a0>)
     330:	fb83 1302 	smull	r1, r3, r3, r2
     334:	1099      	asrs	r1, r3, #2
     336:	17d3      	asrs	r3, r2, #31
     338:	1ac9      	subs	r1, r1, r3
     33a:	460b      	mov	r3, r1
     33c:	009b      	lsls	r3, r3, #2
     33e:	440b      	add	r3, r1
     340:	005b      	lsls	r3, r3, #1
     342:	1ad1      	subs	r1, r2, r3
     344:	b2ca      	uxtb	r2, r1
     346:	6cbb      	ldr	r3, [r7, #72]	@ 0x48
     348:	1c59      	adds	r1, r3, #1
     34a:	64b9      	str	r1, [r7, #72]	@ 0x48
     34c:	3230      	adds	r2, #48	@ 0x30
     34e:	b2d2      	uxtb	r2, r2
     350:	3360      	adds	r3, #96	@ 0x60
     352:	443b      	add	r3, r7
     354:	f803 2c3c 	strb.w	r2, [r3, #-60]
                    val /= 10;
     358:	6cfb      	ldr	r3, [r7, #76]	@ 0x4c
     35a:	4a6a      	ldr	r2, [pc, #424]	@ (504 <diag_simple_sprintf+0x2a0>)
     35c:	fb82 1203 	smull	r1, r2, r2, r3
     360:	1092      	asrs	r2, r2, #2
     362:	17db      	asrs	r3, r3, #31
     364:	1ad3      	subs	r3, r2, r3
     366:	64fb      	str	r3, [r7, #76]	@ 0x4c
                } while (val > 0 && num_len < 11);
     368:	6cfb      	ldr	r3, [r7, #76]	@ 0x4c
     36a:	2b00      	cmp	r3, #0
     36c:	dd02      	ble.n	374 <diag_simple_sprintf+0x110>
     36e:	6cbb      	ldr	r3, [r7, #72]	@ 0x48
     370:	2b0a      	cmp	r3, #10
     372:	dddb      	ble.n	32c <diag_simple_sprintf+0xc8>
                
                /* Copy digits in correct order */
                for (int i = num_len - 1; i >= 0 && written < max_size - 1; i--) {
     374:	6cbb      	ldr	r3, [r7, #72]	@ 0x48
     376:	3b01      	subs	r3, #1
     378:	647b      	str	r3, [r7, #68]	@ 0x44
     37a:	e00e      	b.n	39a <diag_simple_sprintf+0x136>
                    *dest++ = num_buf[i];
     37c:	6dfb      	ldr	r3, [r7, #92]	@ 0x5c
     37e:	1c5a      	adds	r2, r3, #1
     380:	65fa      	str	r2, [r7, #92]	@ 0x5c
     382:	f107 0124 	add.w	r1, r7, #36	@ 0x24
     386:	6c7a      	ldr	r2, [r7, #68]	@ 0x44
     388:	440a      	add	r2, r1
     38a:	7812      	ldrb	r2, [r2, #0]
     38c:	701a      	strb	r2, [r3, #0]
                    written++;
     38e:	6d7b      	ldr	r3, [r7, #84]	@ 0x54
     390:	3301      	adds	r3, #1
     392:	657b      	str	r3, [r7, #84]	@ 0x54
                for (int i = num_len - 1; i >= 0 && written < max_size - 1; i--) {
     394:	6c7b      	ldr	r3, [r7, #68]	@ 0x44
     396:	3b01      	subs	r3, #1
     398:	647b      	str	r3, [r7, #68]	@ 0x44
     39a:	6c7b      	ldr	r3, [r7, #68]	@ 0x44
     39c:	2b00      	cmp	r3, #0
     39e:	db04      	blt.n	3aa <diag_simple_sprintf+0x146>
     3a0:	68bb      	ldr	r3, [r7, #8]
     3a2:	3b01      	subs	r3, #1
     3a4:	6d7a      	ldr	r2, [r7, #84]	@ 0x54
     3a6:	429a      	cmp	r2, r3
     3a8:	dbe8      	blt.n	37c <diag_simple_sprintf+0x118>
                }
                src++;
     3aa:	6dbb      	ldr	r3, [r7, #88]	@ 0x58
     3ac:	3301      	adds	r3, #1
     3ae:	65bb      	str	r3, [r7, #88]	@ 0x58
     3b0:	e093      	b.n	4da <diag_simple_sprintf+0x276>
            } else if (*src == 'p') {
     3b2:	6dbb      	ldr	r3, [r7, #88]	@ 0x58
     3b4:	781b      	ldrb	r3, [r3, #0]
     3b6:	2b70      	cmp	r3, #112	@ 0x70
     3b8:	d159      	bne.n	46e <diag_simple_sprintf+0x20a>
                /* %p - pointer */
                void *ptr = va_arg(ap, void*);
     3ba:	683b      	ldr	r3, [r7, #0]
     3bc:	1d1a      	adds	r2, r3, #4
     3be:	603a      	str	r2, [r7, #0]
     3c0:	681b      	ldr	r3, [r3, #0]
     3c2:	637b      	str	r3, [r7, #52]	@ 0x34
                uintptr_t addr = (uintptr_t)ptr;
     3c4:	6b7b      	ldr	r3, [r7, #52]	@ 0x34
     3c6:	643b      	str	r3, [r7, #64]	@ 0x40
                char hex_buf[20];
                int hex_len = 0;
     3c8:	2300      	movs	r3, #0
     3ca:	63fb      	str	r3, [r7, #60]	@ 0x3c
                
                /* Add "0x" prefix */
                if (written < max_size - 2) {
     3cc:	68bb      	ldr	r3, [r7, #8]
     3ce:	3b02      	subs	r3, #2
     3d0:	6d7a      	ldr	r2, [r7, #84]	@ 0x54
     3d2:	429a      	cmp	r2, r3
     3d4:	da0c      	bge.n	3f0 <diag_simple_sprintf+0x18c>
                    *dest++ = '0';
     3d6:	6dfb      	ldr	r3, [r7, #92]	@ 0x5c
     3d8:	1c5a      	adds	r2, r3, #1
     3da:	65fa      	str	r2, [r7, #92]	@ 0x5c
     3dc:	2230      	movs	r2, #48	@ 0x30
     3de:	701a      	strb	r2, [r3, #0]
                    *dest++ = 'x';
     3e0:	6dfb      	ldr	r3, [r7, #92]	@ 0x5c
     3e2:	1c5a      	adds	r2, r3, #1
     3e4:	65fa      	str	r2, [r7, #92]	@ 0x5c
     3e6:	2278      	movs	r2, #120	@ 0x78
     3e8:	701a      	strb	r2, [r3, #0]
                    written += 2;
     3ea:	6d7b      	ldr	r3, [r7, #84]	@ 0x54
     3ec:	3302      	adds	r3, #2
     3ee:	657b      	str	r3, [r7, #84]	@ 0x54
                }
                
                /* Convert to hex (reverse order) */
                do {
                    int digit = addr & 0xF;
     3f0:	6c3b      	ldr	r3, [r7, #64]	@ 0x40
     3f2:	f003 030f 	and.w	r3, r3, #15
     3f6:	633b      	str	r3, [r7, #48]	@ 0x30
                    hex_buf[hex_len++] = (digit < 10) ? ('0' + digit) : ('A' + digit - 10);
     3f8:	6b3b      	ldr	r3, [r7, #48]	@ 0x30
     3fa:	2b09      	cmp	r3, #9
     3fc:	dc04      	bgt.n	408 <diag_simple_sprintf+0x1a4>
     3fe:	6b3b      	ldr	r3, [r7, #48]	@ 0x30
     400:	b2db      	uxtb	r3, r3
     402:	3330      	adds	r3, #48	@ 0x30
     404:	b2da      	uxtb	r2, r3
     406:	e003      	b.n	410 <diag_simple_sprintf+0x1ac>
     408:	6b3b      	ldr	r3, [r7, #48]	@ 0x30
     40a:	b2db      	uxtb	r3, r3
     40c:	3337      	adds	r3, #55	@ 0x37
     40e:	b2da      	uxtb	r2, r3
     410:	6bfb      	ldr	r3, [r7, #60]	@ 0x3c
     412:	1c59      	adds	r1, r3, #1
     414:	63f9      	str	r1, [r7, #60]	@ 0x3c
     416:	3360      	adds	r3, #96	@ 0x60
     418:	443b      	add	r3, r7
     41a:	f803 2c50 	strb.w	r2, [r3, #-80]
                    addr >>= 4;
     41e:	6c3b      	ldr	r3, [r7, #64]	@ 0x40
     420:	091b      	lsrs	r3, r3, #4
     422:	643b      	str	r3, [r7, #64]	@ 0x40
                } while (addr > 0 && hex_len < 16);
     424:	6c3b      	ldr	r3, [r7, #64]	@ 0x40
     426:	2b00      	cmp	r3, #0
     428:	d002      	beq.n	430 <diag_simple_sprintf+0x1cc>
     42a:	6bfb      	ldr	r3, [r7, #60]	@ 0x3c
     42c:	2b0f      	cmp	r3, #15
     42e:	dddf      	ble.n	3f0 <diag_simple_sprintf+0x18c>
                
                /* Copy hex digits in correct order */
                for (int i = hex_len - 1; i >= 0 && written < max_size - 1; i--) {
     430:	6bfb      	ldr	r3, [r7, #60]	@ 0x3c
     432:	3b01      	subs	r3, #1
     434:	63bb      	str	r3, [r7, #56]	@ 0x38
     436:	e00e      	b.n	456 <diag_simple_sprintf+0x1f2>
                    *dest++ = hex_buf[i];
     438:	6dfb      	ldr	r3, [r7, #92]	@ 0x5c
     43a:	1c5a      	adds	r2, r3, #1
     43c:	65fa      	str	r2, [r7, #92]	@ 0x5c
     43e:	f107 0110 	add.w	r1, r7, #16
     442:	6bba      	ldr	r2, [r7, #56]	@ 0x38
     444:	440a      	add	r2, r1
     446:	7812      	ldrb	r2, [r2, #0]
     448:	701a      	strb	r2, [r3, #0]
                    written++;
     44a:	6d7b      	ldr	r3, [r7, #84]	@ 0x54
     44c:	3301      	adds	r3, #1
     44e:	657b      	str	r3, [r7, #84]	@ 0x54
                for (int i = hex_len - 1; i >= 0 && written < max_size - 1; i--) {
     450:	6bbb      	ldr	r3, [r7, #56]	@ 0x38
     452:	3b01      	subs	r3, #1
     454:	63bb      	str	r3, [r7, #56]	@ 0x38
     456:	6bbb      	ldr	r3, [r7, #56]	@ 0x38
     458:	2b00      	cmp	r3, #0
     45a:	db04      	blt.n	466 <diag_simple_sprintf+0x202>
     45c:	68bb      	ldr	r3, [r7, #8]
     45e:	3b01      	subs	r3, #1
     460:	6d7a      	ldr	r2, [r7, #84]	@ 0x54
     462:	429a      	cmp	r2, r3
     464:	dbe8      	blt.n	438 <diag_simple_sprintf+0x1d4>
                }
                src++;
     466:	6dbb      	ldr	r3, [r7, #88]	@ 0x58
     468:	3301      	adds	r3, #1
     46a:	65bb      	str	r3, [r7, #88]	@ 0x58
     46c:	e035      	b.n	4da <diag_simple_sprintf+0x276>
            } else if (*src == '%') {
     46e:	6dbb      	ldr	r3, [r7, #88]	@ 0x58
     470:	781b      	ldrb	r3, [r3, #0]
     472:	2b25      	cmp	r3, #37	@ 0x25
     474:	d110      	bne.n	498 <diag_simple_sprintf+0x234>
                /* %% - literal % */
                if (written < max_size - 1) {
     476:	68bb      	ldr	r3, [r7, #8]
     478:	3b01      	subs	r3, #1
     47a:	6d7a      	ldr	r2, [r7, #84]	@ 0x54
     47c:	429a      	cmp	r2, r3
     47e:	da07      	bge.n	490 <diag_simple_sprintf+0x22c>
                    *dest++ = '%';
     480:	6dfb      	ldr	r3, [r7, #92]	@ 0x5c
     482:	1c5a      	adds	r2, r3, #1
     484:	65fa      	str	r2, [r7, #92]	@ 0x5c
     486:	2225      	movs	r2, #37	@ 0x25
     488:	701a      	strb	r2, [r3, #0]
                    written++;
     48a:	6d7b      	ldr	r3, [r7, #84]	@ 0x54
     48c:	3301      	adds	r3, #1
     48e:	657b      	str	r3, [r7, #84]	@ 0x54
                }
                src++;
     490:	6dbb      	ldr	r3, [r7, #88]	@ 0x58
     492:	3301      	adds	r3, #1
     494:	65bb      	str	r3, [r7, #88]	@ 0x58
     496:	e020      	b.n	4da <diag_simple_sprintf+0x276>
            } else {
                /* Unknown format - just copy the % and char */
                if (written < max_size - 1) {
     498:	68bb      	ldr	r3, [r7, #8]
     49a:	3b01      	subs	r3, #1
     49c:	6d7a      	ldr	r2, [r7, #84]	@ 0x54
     49e:	429a      	cmp	r2, r3
     4a0:	da07      	bge.n	4b2 <diag_simple_sprintf+0x24e>
                    *dest++ = '%';
     4a2:	6dfb      	ldr	r3, [r7, #92]	@ 0x5c
     4a4:	1c5a      	adds	r2, r3, #1
     4a6:	65fa      	str	r2, [r7, #92]	@ 0x5c
     4a8:	2225      	movs	r2, #37	@ 0x25
     4aa:	701a      	strb	r2, [r3, #0]
                    written++;
     4ac:	6d7b      	ldr	r3, [r7, #84]	@ 0x54
     4ae:	3301      	adds	r3, #1
     4b0:	657b      	str	r3, [r7, #84]	@ 0x54
                }
                if (*src && written < max_size - 1) {
     4b2:	6dbb      	ldr	r3, [r7, #88]	@ 0x58
     4b4:	781b      	ldrb	r3, [r3, #0]
     4b6:	2b00      	cmp	r3, #0
     4b8:	d00f      	beq.n	4da <diag_simple_sprintf+0x276>
     4ba:	68bb      	ldr	r3, [r7, #8]
     4bc:	3b01      	subs	r3, #1
     4be:	6d7a      	ldr	r2, [r7, #84]	@ 0x54
     4c0:	429a      	cmp	r2, r3
     4c2:	da0a      	bge.n	4da <diag_simple_sprintf+0x276>
                    *dest++ = *src++;
     4c4:	6dba      	ldr	r2, [r7, #88]	@ 0x58
     4c6:	1c53      	adds	r3, r2, #1
     4c8:	65bb      	str	r3, [r7, #88]	@ 0x58
     4ca:	6dfb      	ldr	r3, [r7, #92]	@ 0x5c
     4cc:	1c59      	adds	r1, r3, #1
     4ce:	65f9      	str	r1, [r7, #92]	@ 0x5c
     4d0:	7812      	ldrb	r2, [r2, #0]
     4d2:	701a      	strb	r2, [r3, #0]
                    written++;
     4d4:	6d7b      	ldr	r3, [r7, #84]	@ 0x54
     4d6:	3301      	adds	r3, #1
     4d8:	657b      	str	r3, [r7, #84]	@ 0x54
    while (*src && written < max_size - 1) {
     4da:	6dbb      	ldr	r3, [r7, #88]	@ 0x58
     4dc:	781b      	ldrb	r3, [r3, #0]
     4de:	2b00      	cmp	r3, #0
     4e0:	d005      	beq.n	4ee <diag_simple_sprintf+0x28a>
     4e2:	68bb      	ldr	r3, [r7, #8]
     4e4:	3b01      	subs	r3, #1
     4e6:	6d7a      	ldr	r2, [r7, #84]	@ 0x54
     4e8:	429a      	cmp	r2, r3
     4ea:	f6ff aec9 	blt.w	280 <diag_simple_sprintf+0x1c>
                }
            }
        }
    }
    
    *dest = '\0';
     4ee:	6dfb      	ldr	r3, [r7, #92]	@ 0x5c
     4f0:	2200      	movs	r2, #0
     4f2:	701a      	strb	r2, [r3, #0]
    return written;
     4f4:	6d7b      	ldr	r3, [r7, #84]	@ 0x54
}
     4f6:	4618      	mov	r0, r3
     4f8:	3764      	adds	r7, #100	@ 0x64
     4fa:	46bd      	mov	sp, r7
     4fc:	f85d 7b04 	ldr.w	r7, [sp], #4
     500:	4770      	bx	lr
     502:	bf00      	nop
     504:	66666667 	.word	0x66666667

00000508 <sprintf>:

/* Standard library replacements using our proven UART mechanics */

/* Simple sprintf replacement: basic formatting without vsnprintf */
int sprintf(char *str, const char *format, ...)
{
     508:	b40e      	push	{r1, r2, r3}
     50a:	b580      	push	{r7, lr}
     50c:	b085      	sub	sp, #20
     50e:	af00      	add	r7, sp, #0
     510:	6078      	str	r0, [r7, #4]
    va_list ap;
    va_start(ap, format);
     512:	f107 0320 	add.w	r3, r7, #32
     516:	60bb      	str	r3, [r7, #8]
    int result = diag_simple_sprintf(str, 320, format, ap);
     518:	68bb      	ldr	r3, [r7, #8]
     51a:	69fa      	ldr	r2, [r7, #28]
     51c:	f44f 71a0 	mov.w	r1, #320	@ 0x140
     520:	6878      	ldr	r0, [r7, #4]
     522:	f7ff fe9f 	bl	264 <diag_simple_sprintf>
     526:	60f8      	str	r0, [r7, #12]
    va_end(ap);
    return result;
     528:	68fb      	ldr	r3, [r7, #12]
}
     52a:	4618      	mov	r0, r3
     52c:	3714      	adds	r7, #20
     52e:	46bd      	mov	sp, r7
     530:	e8bd 4080 	ldmia.w	sp!, {r7, lr}
     534:	b003      	add	sp, #12
     536:	4770      	bx	lr

00000538 <get_stack_pointer>:
extern char _heap_start, _heap_end, _stack_bottom, _stack_top;
extern char _end_bss;

/* Get current stack pointer */
static uint32_t get_stack_pointer(void)
{
     538:	b480      	push	{r7}
     53a:	b083      	sub	sp, #12
     53c:	af00      	add	r7, sp, #0
    uint32_t sp;
    __asm volatile ("mov %0, sp" : "=r" (sp));
     53e:	466b      	mov	r3, sp
     540:	607b      	str	r3, [r7, #4]
    return sp;
     542:	687b      	ldr	r3, [r7, #4]
}
     544:	4618      	mov	r0, r3
     546:	370c      	adds	r7, #12
     548:	46bd      	mov	sp, r7
     54a:	f85d 7b04 	ldr.w	r7, [sp], #4
     54e:	4770      	bx	lr

00000550 <diag_check_memory_integrity>:

/* Check for memory region overlaps and corruption */
void diag_check_memory_integrity(const char *context)
{
     550:	b590      	push	{r4, r7, lr}
     552:	b08b      	sub	sp, #44	@ 0x2c
     554:	af00      	add	r7, sp, #0
     556:	6078      	str	r0, [r7, #4]
    uint32_t heap_start = (uint32_t)&_heap_start;
     558:	4b51      	ldr	r3, [pc, #324]	@ (6a0 <diag_check_memory_integrity+0x150>)
     55a:	623b      	str	r3, [r7, #32]
    uint32_t heap_end = (uint32_t)&_heap_end;
     55c:	4b51      	ldr	r3, [pc, #324]	@ (6a4 <diag_check_memory_integrity+0x154>)
     55e:	61fb      	str	r3, [r7, #28]
    uint32_t stack_bottom = (uint32_t)&_stack_bottom;
     560:	4b51      	ldr	r3, [pc, #324]	@ (6a8 <diag_check_memory_integrity+0x158>)
     562:	61bb      	str	r3, [r7, #24]
    uint32_t stack_top = (uint32_t)&_stack_top;
     564:	4b51      	ldr	r3, [pc, #324]	@ (6ac <diag_check_memory_integrity+0x15c>)
     566:	617b      	str	r3, [r7, #20]
    uint32_t current_sp = get_stack_pointer();
     568:	f7ff ffe6 	bl	538 <get_stack_pointer>
     56c:	6138      	str	r0, [r7, #16]
    uint32_t bss_end = (uint32_t)&_end_bss;
     56e:	4b50      	ldr	r3, [pc, #320]	@ (6b0 <diag_check_memory_integrity+0x160>)
     570:	60fb      	str	r3, [r7, #12]
    
    diag_puts("=== MEMORY INTEGRITY CHECK (");
     572:	4850      	ldr	r0, [pc, #320]	@ (6b4 <diag_check_memory_integrity+0x164>)
     574:	f000 f972 	bl	85c <diag_puts>
    diag_puts(context);
     578:	6878      	ldr	r0, [r7, #4]
     57a:	f000 f96f 	bl	85c <diag_puts>
    diag_puts(") ===\r\n");
     57e:	484e      	ldr	r0, [pc, #312]	@ (6b8 <diag_check_memory_integrity+0x168>)
     580:	f000 f96c 	bl	85c <diag_puts>
    diag_puts("BSS End:       0x"); diag_put_hex32(bss_end); diag_puts("\r\n");
     584:	484d      	ldr	r0, [pc, #308]	@ (6bc <diag_check_memory_integrity+0x16c>)
     586:	f000 f969 	bl	85c <diag_puts>
     58a:	68f8      	ldr	r0, [r7, #12]
     58c:	f000 f97e 	bl	88c <diag_put_hex32>
     590:	484b      	ldr	r0, [pc, #300]	@ (6c0 <diag_check_memory_integrity+0x170>)
     592:	f000 f963 	bl	85c <diag_puts>
    diag_puts("Heap Start:    0x"); diag_put_hex32(heap_start); diag_puts("\r\n");
     596:	484b      	ldr	r0, [pc, #300]	@ (6c4 <diag_check_memory_integrity+0x174>)
     598:	f000 f960 	bl	85c <diag_puts>
     59c:	6a38      	ldr	r0, [r7, #32]
     59e:	f000 f975 	bl	88c <diag_put_hex32>
     5a2:	4847      	ldr	r0, [pc, #284]	@ (6c0 <diag_check_memory_integrity+0x170>)
     5a4:	f000 f95a 	bl	85c <diag_puts>
    diag_puts("Heap End:      0x"); diag_put_hex32(heap_end); diag_puts("\r\n");
     5a8:	4847      	ldr	r0, [pc, #284]	@ (6c8 <diag_check_memory_integrity+0x178>)
     5aa:	f000 f957 	bl	85c <diag_puts>
     5ae:	69f8      	ldr	r0, [r7, #28]
     5b0:	f000 f96c 	bl	88c <diag_put_hex32>
     5b4:	4842      	ldr	r0, [pc, #264]	@ (6c0 <diag_check_memory_integrity+0x170>)
     5b6:	f000 f951 	bl	85c <diag_puts>
    diag_puts("Stack Bottom:  0x"); diag_put_hex32(stack_bottom); diag_puts("\r\n");
     5ba:	4844      	ldr	r0, [pc, #272]	@ (6cc <diag_check_memory_integrity+0x17c>)
     5bc:	f000 f94e 	bl	85c <diag_puts>
     5c0:	69b8      	ldr	r0, [r7, #24]
     5c2:	f000 f963 	bl	88c <diag_put_hex32>
     5c6:	483e      	ldr	r0, [pc, #248]	@ (6c0 <diag_check_memory_integrity+0x170>)
     5c8:	f000 f948 	bl	85c <diag_puts>
    diag_puts("Stack Top:     0x"); diag_put_hex32(stack_top); diag_puts("\r\n");
     5cc:	4840      	ldr	r0, [pc, #256]	@ (6d0 <diag_check_memory_integrity+0x180>)
     5ce:	f000 f945 	bl	85c <diag_puts>
     5d2:	6978      	ldr	r0, [r7, #20]
     5d4:	f000 f95a 	bl	88c <diag_put_hex32>
     5d8:	4839      	ldr	r0, [pc, #228]	@ (6c0 <diag_check_memory_integrity+0x170>)
     5da:	f000 f93f 	bl	85c <diag_puts>
    diag_puts("Current SP:    0x"); diag_put_hex32(current_sp); diag_puts("\r\n");
     5de:	483d      	ldr	r0, [pc, #244]	@ (6d4 <diag_check_memory_integrity+0x184>)
     5e0:	f000 f93c 	bl	85c <diag_puts>
     5e4:	6938      	ldr	r0, [r7, #16]
     5e6:	f000 f951 	bl	88c <diag_put_hex32>
     5ea:	4835      	ldr	r0, [pc, #212]	@ (6c0 <diag_check_memory_integrity+0x170>)
     5ec:	f000 f936 	bl	85c <diag_puts>
    
    /* Check for overlaps */
    int overlap_detected = 0;
     5f0:	2300      	movs	r3, #0
     5f2:	627b      	str	r3, [r7, #36]	@ 0x24
    
    /* Check heap doesn't overlap stack */
    if (heap_end > stack_bottom) {
     5f4:	69fa      	ldr	r2, [r7, #28]
     5f6:	69bb      	ldr	r3, [r7, #24]
     5f8:	429a      	cmp	r2, r3
     5fa:	d904      	bls.n	606 <diag_check_memory_integrity+0xb6>
        diag_puts("*** CRITICAL: HEAP-STACK OVERLAP! ***\r\n");
     5fc:	4836      	ldr	r0, [pc, #216]	@ (6d8 <diag_check_memory_integrity+0x188>)
     5fe:	f000 f92d 	bl	85c <diag_puts>
        overlap_detected = 1;
     602:	2301      	movs	r3, #1
     604:	627b      	str	r3, [r7, #36]	@ 0x24
    }
    
    /* Check stack hasn't grown into heap */
    if (current_sp < heap_end) {
     606:	693a      	ldr	r2, [r7, #16]
     608:	69fb      	ldr	r3, [r7, #28]
     60a:	429a      	cmp	r2, r3
     60c:	d204      	bcs.n	618 <diag_check_memory_integrity+0xc8>
        diag_puts("*** CRITICAL: STACK-HEAP COLLISION! ***\r\n");
     60e:	4833      	ldr	r0, [pc, #204]	@ (6dc <diag_check_memory_integrity+0x18c>)
     610:	f000 f924 	bl	85c <diag_puts>
        overlap_detected = 1;
     614:	2301      	movs	r3, #1
     616:	627b      	str	r3, [r7, #36]	@ 0x24
    }
    
    /* Check stack overflow */
    if (current_sp < stack_bottom) {
     618:	693a      	ldr	r2, [r7, #16]
     61a:	69bb      	ldr	r3, [r7, #24]
     61c:	429a      	cmp	r2, r3
     61e:	d204      	bcs.n	62a <diag_check_memory_integrity+0xda>
        diag_puts("*** CRITICAL: STACK OVERFLOW! ***\r\n");
     620:	482f      	ldr	r0, [pc, #188]	@ (6e0 <diag_check_memory_integrity+0x190>)
     622:	f000 f91b 	bl	85c <diag_puts>
        overlap_detected = 1;
     626:	2301      	movs	r3, #1
     628:	627b      	str	r3, [r7, #36]	@ 0x24
    }
    
    if (overlap_detected) {
     62a:	6a7b      	ldr	r3, [r7, #36]	@ 0x24
     62c:	2b00      	cmp	r3, #0
     62e:	d014      	beq.n	65a <diag_check_memory_integrity+0x10a>
        diag_puts("*** SYSTEM HALTED - MEMORY CORRUPTION DETECTED ***\r\n");
     630:	482c      	ldr	r0, [pc, #176]	@ (6e4 <diag_check_memory_integrity+0x194>)
     632:	f000 f913 	bl	85c <diag_puts>
        /* Halt system - in real application you might want controlled shutdown */
        while (1) {
            /* Flash LED or other indication */
            ROM_SysCtlDelay(ROM_SysCtlClockGet() / 10); /* 100ms delay */
     636:	4b2c      	ldr	r3, [pc, #176]	@ (6e8 <diag_check_memory_integrity+0x198>)
     638:	681b      	ldr	r3, [r3, #0]
     63a:	3388      	adds	r3, #136	@ 0x88
     63c:	681b      	ldr	r3, [r3, #0]
     63e:	461c      	mov	r4, r3
     640:	4b29      	ldr	r3, [pc, #164]	@ (6e8 <diag_check_memory_integrity+0x198>)
     642:	681b      	ldr	r3, [r3, #0]
     644:	3360      	adds	r3, #96	@ 0x60
     646:	681b      	ldr	r3, [r3, #0]
     648:	4798      	blx	r3
     64a:	4603      	mov	r3, r0
     64c:	4a27      	ldr	r2, [pc, #156]	@ (6ec <diag_check_memory_integrity+0x19c>)
     64e:	fba2 2303 	umull	r2, r3, r2, r3
     652:	08db      	lsrs	r3, r3, #3
     654:	4618      	mov	r0, r3
     656:	47a0      	blx	r4
     658:	e7ed      	b.n	636 <diag_check_memory_integrity+0xe6>
        }
    } else {
        diag_puts("Memory integrity: OK\r\n");
     65a:	4825      	ldr	r0, [pc, #148]	@ (6f0 <diag_check_memory_integrity+0x1a0>)
     65c:	f000 f8fe 	bl	85c <diag_puts>
    }
    
    diag_puts("Stack usage: "); diag_put_u32_dec((uint32_t)diag_stack_bytes_used()); diag_puts(" bytes\r\n");
     660:	4824      	ldr	r0, [pc, #144]	@ (6f4 <diag_check_memory_integrity+0x1a4>)
     662:	f000 f8fb 	bl	85c <diag_puts>
     666:	f000 f8c3 	bl	7f0 <diag_stack_bytes_used>
     66a:	4603      	mov	r3, r0
     66c:	4618      	mov	r0, r3
     66e:	f000 f94b 	bl	908 <diag_put_u32_dec>
     672:	4821      	ldr	r0, [pc, #132]	@ (6f8 <diag_check_memory_integrity+0x1a8>)
     674:	f000 f8f2 	bl	85c <diag_puts>
    diag_puts("Heap usage:  "); diag_put_u32_dec((uint32_t)diag_heap_bytes_used()); diag_puts(" bytes\r\n");
     678:	4820      	ldr	r0, [pc, #128]	@ (6fc <diag_check_memory_integrity+0x1ac>)
     67a:	f000 f8ef 	bl	85c <diag_puts>
     67e:	f000 f8c9 	bl	814 <diag_heap_bytes_used>
     682:	4603      	mov	r3, r0
     684:	4618      	mov	r0, r3
     686:	f000 f93f 	bl	908 <diag_put_u32_dec>
     68a:	481b      	ldr	r0, [pc, #108]	@ (6f8 <diag_check_memory_integrity+0x1a8>)
     68c:	f000 f8e6 	bl	85c <diag_puts>
    diag_puts("================================\r\n");
     690:	481b      	ldr	r0, [pc, #108]	@ (700 <diag_check_memory_integrity+0x1b0>)
     692:	f000 f8e3 	bl	85c <diag_puts>
}
     696:	bf00      	nop
     698:	372c      	adds	r7, #44	@ 0x2c
     69a:	46bd      	mov	sp, r7
     69c:	bd90      	pop	{r4, r7, pc}
     69e:	bf00      	nop
     6a0:	200002c0 	.word	0x200002c0
     6a4:	20006000 	.word	0x20006000
     6a8:	20006000 	.word	0x20006000
     6ac:	20008000 	.word	0x20008000
     6b0:	200002c0 	.word	0x200002c0
     6b4:	00002c48 	.word	0x00002c48
     6b8:	00002c68 	.word	0x00002c68
     6bc:	00002c70 	.word	0x00002c70
     6c0:	00002c84 	.word	0x00002c84
     6c4:	00002c88 	.word	0x00002c88
     6c8:	00002c9c 	.word	0x00002c9c
     6cc:	00002cb0 	.word	0x00002cb0
     6d0:	00002cc4 	.word	0x00002cc4
     6d4:	00002cd8 	.word	0x00002cd8
     6d8:	00002cec 	.word	0x00002cec
     6dc:	00002d14 	.word	0x00002d14
     6e0:	00002d40 	.word	0x00002d40
     6e4:	00002d64 	.word	0x00002d64
     6e8:	01000044 	.word	0x01000044
     6ec:	cccccccd 	.word	0xcccccccd
     6f0:	00002d9c 	.word	0x00002d9c
     6f4:	00002db4 	.word	0x00002db4
     6f8:	00002dc4 	.word	0x00002dc4
     6fc:	00002dd0 	.word	0x00002dd0
     700:	00002de0 	.word	0x00002de0

00000704 <diag_check_stack_usage>:

/* Check stack usage and warn if getting close to limit */
void diag_check_stack_usage(const char *function_name)
{
     704:	b580      	push	{r7, lr}
     706:	b086      	sub	sp, #24
     708:	af00      	add	r7, sp, #0
     70a:	6078      	str	r0, [r7, #4]
    int stack_used = diag_stack_bytes_used();
     70c:	f000 f870 	bl	7f0 <diag_stack_bytes_used>
     710:	6178      	str	r0, [r7, #20]
    int stack_total = (uint32_t)&_stack_top - (uint32_t)&_stack_bottom;
     712:	4a2c      	ldr	r2, [pc, #176]	@ (7c4 <diag_check_stack_usage+0xc0>)
     714:	4b2c      	ldr	r3, [pc, #176]	@ (7c8 <diag_check_stack_usage+0xc4>)
     716:	1ad3      	subs	r3, r2, r3
     718:	613b      	str	r3, [r7, #16]
    int stack_remaining = stack_total - stack_used;
     71a:	693a      	ldr	r2, [r7, #16]
     71c:	697b      	ldr	r3, [r7, #20]
     71e:	1ad3      	subs	r3, r2, r3
     720:	60fb      	str	r3, [r7, #12]
    
    diag_puts("Stack check [");
     722:	482a      	ldr	r0, [pc, #168]	@ (7cc <diag_check_stack_usage+0xc8>)
     724:	f000 f89a 	bl	85c <diag_puts>
    diag_puts(function_name);
     728:	6878      	ldr	r0, [r7, #4]
     72a:	f000 f897 	bl	85c <diag_puts>
    diag_puts("]: ");
     72e:	4828      	ldr	r0, [pc, #160]	@ (7d0 <diag_check_stack_usage+0xcc>)
     730:	f000 f894 	bl	85c <diag_puts>
    diag_put_u32_dec((uint32_t)stack_used);
     734:	697b      	ldr	r3, [r7, #20]
     736:	4618      	mov	r0, r3
     738:	f000 f8e6 	bl	908 <diag_put_u32_dec>
    diag_puts("/");
     73c:	4825      	ldr	r0, [pc, #148]	@ (7d4 <diag_check_stack_usage+0xd0>)
     73e:	f000 f88d 	bl	85c <diag_puts>
    diag_put_u32_dec((uint32_t)stack_total);
     742:	693b      	ldr	r3, [r7, #16]
     744:	4618      	mov	r0, r3
     746:	f000 f8df 	bl	908 <diag_put_u32_dec>
    diag_puts(" bytes used (");
     74a:	4823      	ldr	r0, [pc, #140]	@ (7d8 <diag_check_stack_usage+0xd4>)
     74c:	f000 f886 	bl	85c <diag_puts>
    diag_put_u32_dec((uint32_t)stack_remaining);
     750:	68fb      	ldr	r3, [r7, #12]
     752:	4618      	mov	r0, r3
     754:	f000 f8d8 	bl	908 <diag_put_u32_dec>
    diag_puts(" remaining)\r\n");
     758:	4820      	ldr	r0, [pc, #128]	@ (7dc <diag_check_stack_usage+0xd8>)
     75a:	f000 f87f 	bl	85c <diag_puts>
    
    /* Warn if stack usage > 75% */
    if (stack_used > (stack_total * 3) / 4) {
     75e:	693a      	ldr	r2, [r7, #16]
     760:	4613      	mov	r3, r2
     762:	005b      	lsls	r3, r3, #1
     764:	4413      	add	r3, r2
     766:	2b00      	cmp	r3, #0
     768:	da00      	bge.n	76c <diag_check_stack_usage+0x68>
     76a:	3303      	adds	r3, #3
     76c:	109b      	asrs	r3, r3, #2
     76e:	461a      	mov	r2, r3
     770:	697b      	ldr	r3, [r7, #20]
     772:	4293      	cmp	r3, r2
     774:	dd08      	ble.n	788 <diag_check_stack_usage+0x84>
        diag_puts("*** WARNING: Stack usage > 75% in ");
     776:	481a      	ldr	r0, [pc, #104]	@ (7e0 <diag_check_stack_usage+0xdc>)
     778:	f000 f870 	bl	85c <diag_puts>
        diag_puts(function_name);
     77c:	6878      	ldr	r0, [r7, #4]
     77e:	f000 f86d 	bl	85c <diag_puts>
        diag_puts(" ***\r\n");
     782:	4818      	ldr	r0, [pc, #96]	@ (7e4 <diag_check_stack_usage+0xe0>)
     784:	f000 f86a 	bl	85c <diag_puts>
    }
    
    /* Critical if stack usage > 90% */
    if (stack_used > (stack_total * 9) / 10) {
     788:	693a      	ldr	r2, [r7, #16]
     78a:	4613      	mov	r3, r2
     78c:	00db      	lsls	r3, r3, #3
     78e:	4413      	add	r3, r2
     790:	4a15      	ldr	r2, [pc, #84]	@ (7e8 <diag_check_stack_usage+0xe4>)
     792:	fb82 1203 	smull	r1, r2, r2, r3
     796:	1092      	asrs	r2, r2, #2
     798:	17db      	asrs	r3, r3, #31
     79a:	1ad3      	subs	r3, r2, r3
     79c:	697a      	ldr	r2, [r7, #20]
     79e:	429a      	cmp	r2, r3
     7a0:	dd0b      	ble.n	7ba <diag_check_stack_usage+0xb6>
        diag_puts("*** CRITICAL: Stack usage > 90% in ");
     7a2:	4812      	ldr	r0, [pc, #72]	@ (7ec <diag_check_stack_usage+0xe8>)
     7a4:	f000 f85a 	bl	85c <diag_puts>
        diag_puts(function_name);
     7a8:	6878      	ldr	r0, [r7, #4]
     7aa:	f000 f857 	bl	85c <diag_puts>
        diag_puts(" ***\r\n");
     7ae:	480d      	ldr	r0, [pc, #52]	@ (7e4 <diag_check_stack_usage+0xe0>)
     7b0:	f000 f854 	bl	85c <diag_puts>
        diag_check_memory_integrity(function_name);
     7b4:	6878      	ldr	r0, [r7, #4]
     7b6:	f7ff fecb 	bl	550 <diag_check_memory_integrity>
    }
}
     7ba:	bf00      	nop
     7bc:	3718      	adds	r7, #24
     7be:	46bd      	mov	sp, r7
     7c0:	bd80      	pop	{r7, pc}
     7c2:	bf00      	nop
     7c4:	20008000 	.word	0x20008000
     7c8:	20006000 	.word	0x20006000
     7cc:	00002e04 	.word	0x00002e04
     7d0:	00002e14 	.word	0x00002e14
     7d4:	00002e18 	.word	0x00002e18
     7d8:	00002e1c 	.word	0x00002e1c
     7dc:	00002e2c 	.word	0x00002e2c
     7e0:	00002e3c 	.word	0x00002e3c
     7e4:	00002e60 	.word	0x00002e60
     7e8:	66666667 	.word	0x66666667
     7ec:	00002e68 	.word	0x00002e68

000007f0 <diag_stack_bytes_used>:

/* Get current stack usage in bytes */
int diag_stack_bytes_used(void)
{
     7f0:	b580      	push	{r7, lr}
     7f2:	b082      	sub	sp, #8
     7f4:	af00      	add	r7, sp, #0
    uint32_t current_sp = get_stack_pointer();
     7f6:	f7ff fe9f 	bl	538 <get_stack_pointer>
     7fa:	6078      	str	r0, [r7, #4]
    uint32_t stack_top = (uint32_t)&_stack_top;
     7fc:	4b04      	ldr	r3, [pc, #16]	@ (810 <diag_stack_bytes_used+0x20>)
     7fe:	603b      	str	r3, [r7, #0]
    return (int)(stack_top - current_sp);
     800:	683a      	ldr	r2, [r7, #0]
     802:	687b      	ldr	r3, [r7, #4]
     804:	1ad3      	subs	r3, r2, r3
}
     806:	4618      	mov	r0, r3
     808:	3708      	adds	r7, #8
     80a:	46bd      	mov	sp, r7
     80c:	bd80      	pop	{r7, pc}
     80e:	bf00      	nop
     810:	20008000 	.word	0x20008000

00000814 <diag_heap_bytes_used>:

/* Get current heap usage in bytes (simplified version) */
int diag_heap_bytes_used(void)
{
     814:	b480      	push	{r7}
     816:	b083      	sub	sp, #12
     818:	af00      	add	r7, sp, #0
    /* Simple estimation - would need malloc_simple.c integration for accuracy */
    uint32_t heap_start = (uint32_t)&_heap_start;
     81a:	4b04      	ldr	r3, [pc, #16]	@ (82c <diag_heap_bytes_used+0x18>)
     81c:	607b      	str	r3, [r7, #4]
    /* Remove unused variable to fix warning */
    
    /* This is a placeholder - real implementation would track malloc'd bytes */
    /* For now just show heap region size */
    return 0; /* TODO: integrate with malloc tracking */
     81e:	2300      	movs	r3, #0
}
     820:	4618      	mov	r0, r3
     822:	370c      	adds	r7, #12
     824:	46bd      	mov	sp, r7
     826:	f85d 7b04 	ldr.w	r7, [sp], #4
     82a:	4770      	bx	lr
     82c:	200002c0 	.word	0x200002c0

00000830 <diag_putc>:
    return 0;
}

/* diag_putc: write one character using simple blocking approach */
void diag_putc(char c)
{
     830:	b580      	push	{r7, lr}
     832:	b082      	sub	sp, #8
     834:	af00      	add	r7, sp, #0
     836:	4603      	mov	r3, r0
     838:	71fb      	strb	r3, [r7, #7]
    /* Use simple blocking put to avoid clock dependency issues */
    ROM_UARTCharPut(UART0_BASE, c);
     83a:	4b06      	ldr	r3, [pc, #24]	@ (854 <diag_putc+0x24>)
     83c:	681b      	ldr	r3, [r3, #0]
     83e:	681b      	ldr	r3, [r3, #0]
     840:	461a      	mov	r2, r3
     842:	79fb      	ldrb	r3, [r7, #7]
     844:	4619      	mov	r1, r3
     846:	4804      	ldr	r0, [pc, #16]	@ (858 <diag_putc+0x28>)
     848:	4790      	blx	r2
}
     84a:	bf00      	nop
     84c:	3708      	adds	r7, #8
     84e:	46bd      	mov	sp, r7
     850:	bd80      	pop	{r7, pc}
     852:	bf00      	nop
     854:	01000014 	.word	0x01000014
     858:	4000c000 	.word	0x4000c000

0000085c <diag_puts>:
/* --- end diag_putc implementations --- */


/* Output NUL-terminated string (uses diag_putc) */
void diag_puts(const char *s)
{
     85c:	b580      	push	{r7, lr}
     85e:	b082      	sub	sp, #8
     860:	af00      	add	r7, sp, #0
     862:	6078      	str	r0, [r7, #4]
    while (s && *s) diag_putc(*s++);
     864:	e006      	b.n	874 <diag_puts+0x18>
     866:	687b      	ldr	r3, [r7, #4]
     868:	1c5a      	adds	r2, r3, #1
     86a:	607a      	str	r2, [r7, #4]
     86c:	781b      	ldrb	r3, [r3, #0]
     86e:	4618      	mov	r0, r3
     870:	f7ff ffde 	bl	830 <diag_putc>
     874:	687b      	ldr	r3, [r7, #4]
     876:	2b00      	cmp	r3, #0
     878:	d003      	beq.n	882 <diag_puts+0x26>
     87a:	687b      	ldr	r3, [r7, #4]
     87c:	781b      	ldrb	r3, [r3, #0]
     87e:	2b00      	cmp	r3, #0
     880:	d1f1      	bne.n	866 <diag_puts+0xa>
}
     882:	bf00      	nop
     884:	3708      	adds	r7, #8
     886:	46bd      	mov	sp, r7
     888:	bd80      	pop	{r7, pc}
	...

0000088c <diag_put_hex32>:

/* Print a 32-bit hex value as 0xXXXXXXXX */
void diag_put_hex32(uint32_t v)
{
     88c:	b5b0      	push	{r4, r5, r7, lr}
     88e:	b088      	sub	sp, #32
     890:	af00      	add	r7, sp, #0
     892:	6078      	str	r0, [r7, #4]
    const char hex[] = "0123456789ABCDEF";
     894:	4b14      	ldr	r3, [pc, #80]	@ (8e8 <diag_put_hex32+0x5c>)
     896:	f107 0408 	add.w	r4, r7, #8
     89a:	461d      	mov	r5, r3
     89c:	cd0f      	ldmia	r5!, {r0, r1, r2, r3}
     89e:	c40f      	stmia	r4!, {r0, r1, r2, r3}
     8a0:	682b      	ldr	r3, [r5, #0]
     8a2:	7023      	strb	r3, [r4, #0]
    diag_puts("0x");
     8a4:	4811      	ldr	r0, [pc, #68]	@ (8ec <diag_put_hex32+0x60>)
     8a6:	f7ff ffd9 	bl	85c <diag_puts>
    for (int i = 7; i >= 0; --i) {
     8aa:	2307      	movs	r3, #7
     8ac:	61fb      	str	r3, [r7, #28]
     8ae:	e013      	b.n	8d8 <diag_put_hex32+0x4c>
        uint8_t nib = (v >> (i * 4)) & 0xF;
     8b0:	69fb      	ldr	r3, [r7, #28]
     8b2:	009b      	lsls	r3, r3, #2
     8b4:	687a      	ldr	r2, [r7, #4]
     8b6:	fa22 f303 	lsr.w	r3, r2, r3
     8ba:	b2db      	uxtb	r3, r3
     8bc:	f003 030f 	and.w	r3, r3, #15
     8c0:	76fb      	strb	r3, [r7, #27]
        diag_putc(hex[nib]);
     8c2:	7efb      	ldrb	r3, [r7, #27]
     8c4:	3320      	adds	r3, #32
     8c6:	443b      	add	r3, r7
     8c8:	f813 3c18 	ldrb.w	r3, [r3, #-24]
     8cc:	4618      	mov	r0, r3
     8ce:	f7ff ffaf 	bl	830 <diag_putc>
    for (int i = 7; i >= 0; --i) {
     8d2:	69fb      	ldr	r3, [r7, #28]
     8d4:	3b01      	subs	r3, #1
     8d6:	61fb      	str	r3, [r7, #28]
     8d8:	69fb      	ldr	r3, [r7, #28]
     8da:	2b00      	cmp	r3, #0
     8dc:	dae8      	bge.n	8b0 <diag_put_hex32+0x24>
    }
}
     8de:	bf00      	nop
     8e0:	bf00      	nop
     8e2:	3720      	adds	r7, #32
     8e4:	46bd      	mov	sp, r7
     8e6:	bdb0      	pop	{r4, r5, r7, pc}
     8e8:	00002e90 	.word	0x00002e90
     8ec:	00002e8c 	.word	0x00002e8c

000008f0 <diag_put_ptr>:

/* Print pointer value using 32-bit hex (works for Cortex-M) */
void diag_put_ptr(const void *p)
{
     8f0:	b580      	push	{r7, lr}
     8f2:	b082      	sub	sp, #8
     8f4:	af00      	add	r7, sp, #0
     8f6:	6078      	str	r0, [r7, #4]
    diag_put_hex32((uint32_t)(uintptr_t)p);
     8f8:	687b      	ldr	r3, [r7, #4]
     8fa:	4618      	mov	r0, r3
     8fc:	f7ff ffc6 	bl	88c <diag_put_hex32>
}
     900:	bf00      	nop
     902:	3708      	adds	r7, #8
     904:	46bd      	mov	sp, r7
     906:	bd80      	pop	{r7, pc}

00000908 <diag_put_u32_dec>:

/* helper: print unsigned decimal (up to 32-bit) */
void diag_put_u32_dec(uint32_t v)
{
     908:	b580      	push	{r7, lr}
     90a:	b086      	sub	sp, #24
     90c:	af00      	add	r7, sp, #0
     90e:	6078      	str	r0, [r7, #4]
    char buf[12];
    int i = 0;
     910:	2300      	movs	r3, #0
     912:	617b      	str	r3, [r7, #20]
    if (v == 0) {
     914:	687b      	ldr	r3, [r7, #4]
     916:	2b00      	cmp	r3, #0
     918:	d11d      	bne.n	956 <diag_put_u32_dec+0x4e>
        diag_putc('0');
     91a:	2030      	movs	r0, #48	@ 0x30
     91c:	f7ff ff88 	bl	830 <diag_putc>
     920:	e02a      	b.n	978 <diag_put_u32_dec+0x70>
        return;
    }
    while (v) {
        buf[i++] = '0' + (v % 10);
     922:	6879      	ldr	r1, [r7, #4]
     924:	4b16      	ldr	r3, [pc, #88]	@ (980 <diag_put_u32_dec+0x78>)
     926:	fba3 2301 	umull	r2, r3, r3, r1
     92a:	08da      	lsrs	r2, r3, #3
     92c:	4613      	mov	r3, r2
     92e:	009b      	lsls	r3, r3, #2
     930:	4413      	add	r3, r2
     932:	005b      	lsls	r3, r3, #1
     934:	1aca      	subs	r2, r1, r3
     936:	b2d2      	uxtb	r2, r2
     938:	697b      	ldr	r3, [r7, #20]
     93a:	1c59      	adds	r1, r3, #1
     93c:	6179      	str	r1, [r7, #20]
     93e:	3230      	adds	r2, #48	@ 0x30
     940:	b2d2      	uxtb	r2, r2
     942:	3318      	adds	r3, #24
     944:	443b      	add	r3, r7
     946:	f803 2c10 	strb.w	r2, [r3, #-16]
        v /= 10;
     94a:	687b      	ldr	r3, [r7, #4]
     94c:	4a0c      	ldr	r2, [pc, #48]	@ (980 <diag_put_u32_dec+0x78>)
     94e:	fba2 2303 	umull	r2, r3, r2, r3
     952:	08db      	lsrs	r3, r3, #3
     954:	607b      	str	r3, [r7, #4]
    while (v) {
     956:	687b      	ldr	r3, [r7, #4]
     958:	2b00      	cmp	r3, #0
     95a:	d1e2      	bne.n	922 <diag_put_u32_dec+0x1a>
    }
    while (i--) diag_putc(buf[i]);
     95c:	e007      	b.n	96e <diag_put_u32_dec+0x66>
     95e:	f107 0208 	add.w	r2, r7, #8
     962:	697b      	ldr	r3, [r7, #20]
     964:	4413      	add	r3, r2
     966:	781b      	ldrb	r3, [r3, #0]
     968:	4618      	mov	r0, r3
     96a:	f7ff ff61 	bl	830 <diag_putc>
     96e:	697b      	ldr	r3, [r7, #20]
     970:	1e5a      	subs	r2, r3, #1
     972:	617a      	str	r2, [r7, #20]
     974:	2b00      	cmp	r3, #0
     976:	d1f2      	bne.n	95e <diag_put_u32_dec+0x56>
}
     978:	3718      	adds	r7, #24
     97a:	46bd      	mov	sp, r7
     97c:	bd80      	pop	{r7, pc}
     97e:	bf00      	nop
     980:	cccccccd 	.word	0xcccccccd

00000984 <diag_print_memory_layout>:

/* ------------------ memory layout and simple diagnostics ------------------ */

/* Print memory layout: end_bss, heap_start, heap_end, stack_top, current SP, sbrk(0) */
void diag_print_memory_layout(void)
{
     984:	b580      	push	{r7, lr}
     986:	b082      	sub	sp, #8
     988:	af00      	add	r7, sp, #0
    diag_puts("\r\n--- MEMORY LAYOUT ---\r\n");
     98a:	4828      	ldr	r0, [pc, #160]	@ (a2c <diag_print_memory_layout+0xa8>)
     98c:	f7ff ff66 	bl	85c <diag_puts>
    diag_puts("_end_bss   = "); diag_put_ptr((void*)&_end_bss); diag_puts("\r\n");
     990:	4827      	ldr	r0, [pc, #156]	@ (a30 <diag_print_memory_layout+0xac>)
     992:	f7ff ff63 	bl	85c <diag_puts>
     996:	4827      	ldr	r0, [pc, #156]	@ (a34 <diag_print_memory_layout+0xb0>)
     998:	f7ff ffaa 	bl	8f0 <diag_put_ptr>
     99c:	4826      	ldr	r0, [pc, #152]	@ (a38 <diag_print_memory_layout+0xb4>)
     99e:	f7ff ff5d 	bl	85c <diag_puts>
    diag_puts("_heap_start= "); diag_put_ptr((void*)&_heap_start); diag_puts("\r\n");
     9a2:	4826      	ldr	r0, [pc, #152]	@ (a3c <diag_print_memory_layout+0xb8>)
     9a4:	f7ff ff5a 	bl	85c <diag_puts>
     9a8:	4825      	ldr	r0, [pc, #148]	@ (a40 <diag_print_memory_layout+0xbc>)
     9aa:	f7ff ffa1 	bl	8f0 <diag_put_ptr>
     9ae:	4822      	ldr	r0, [pc, #136]	@ (a38 <diag_print_memory_layout+0xb4>)
     9b0:	f7ff ff54 	bl	85c <diag_puts>
    diag_puts("_heap_end  = "); diag_put_ptr((void*)&_heap_end); diag_puts("\r\n");
     9b4:	4823      	ldr	r0, [pc, #140]	@ (a44 <diag_print_memory_layout+0xc0>)
     9b6:	f7ff ff51 	bl	85c <diag_puts>
     9ba:	4823      	ldr	r0, [pc, #140]	@ (a48 <diag_print_memory_layout+0xc4>)
     9bc:	f7ff ff98 	bl	8f0 <diag_put_ptr>
     9c0:	481d      	ldr	r0, [pc, #116]	@ (a38 <diag_print_memory_layout+0xb4>)
     9c2:	f7ff ff4b 	bl	85c <diag_puts>
    diag_puts("_stack_top = "); diag_put_ptr((void*)&_stack_top); diag_puts("\r\n");
     9c6:	4821      	ldr	r0, [pc, #132]	@ (a4c <diag_print_memory_layout+0xc8>)
     9c8:	f7ff ff48 	bl	85c <diag_puts>
     9cc:	4820      	ldr	r0, [pc, #128]	@ (a50 <diag_print_memory_layout+0xcc>)
     9ce:	f7ff ff8f 	bl	8f0 <diag_put_ptr>
     9d2:	4819      	ldr	r0, [pc, #100]	@ (a38 <diag_print_memory_layout+0xb4>)
     9d4:	f7ff ff42 	bl	85c <diag_puts>

    void *cur = _sbrk(0);
     9d8:	2000      	movs	r0, #0
     9da:	f001 f8cf 	bl	1b7c <_sbrk>
     9de:	6078      	str	r0, [r7, #4]
    diag_puts("sbrk(0)    = "); diag_put_ptr(cur); diag_puts("\r\n");
     9e0:	481c      	ldr	r0, [pc, #112]	@ (a54 <diag_print_memory_layout+0xd0>)
     9e2:	f7ff ff3b 	bl	85c <diag_puts>
     9e6:	6878      	ldr	r0, [r7, #4]
     9e8:	f7ff ff82 	bl	8f0 <diag_put_ptr>
     9ec:	4812      	ldr	r0, [pc, #72]	@ (a38 <diag_print_memory_layout+0xb4>)
     9ee:	f7ff ff35 	bl	85c <diag_puts>

    void *sp = NULL;
     9f2:	2300      	movs	r3, #0
     9f4:	603b      	str	r3, [r7, #0]
    __asm__ volatile ("mov %0, sp" : "=r" (sp));
     9f6:	466b      	mov	r3, sp
     9f8:	603b      	str	r3, [r7, #0]
    diag_puts("SP         = "); diag_put_ptr(sp); diag_puts("\r\n");
     9fa:	4817      	ldr	r0, [pc, #92]	@ (a58 <diag_print_memory_layout+0xd4>)
     9fc:	f7ff ff2e 	bl	85c <diag_puts>
     a00:	6838      	ldr	r0, [r7, #0]
     a02:	f7ff ff75 	bl	8f0 <diag_put_ptr>
     a06:	480c      	ldr	r0, [pc, #48]	@ (a38 <diag_print_memory_layout+0xb4>)
     a08:	f7ff ff28 	bl	85c <diag_puts>

    diag_puts("sbrk_calls = "); diag_put_u32_dec(sbrk_calls); diag_puts("\r\n");
     a0c:	4813      	ldr	r0, [pc, #76]	@ (a5c <diag_print_memory_layout+0xd8>)
     a0e:	f7ff ff25 	bl	85c <diag_puts>
     a12:	4b13      	ldr	r3, [pc, #76]	@ (a60 <diag_print_memory_layout+0xdc>)
     a14:	681b      	ldr	r3, [r3, #0]
     a16:	4618      	mov	r0, r3
     a18:	f7ff ff76 	bl	908 <diag_put_u32_dec>
     a1c:	4806      	ldr	r0, [pc, #24]	@ (a38 <diag_print_memory_layout+0xb4>)
     a1e:	f7ff ff1d 	bl	85c <diag_puts>
}
     a22:	bf00      	nop
     a24:	3708      	adds	r7, #8
     a26:	46bd      	mov	sp, r7
     a28:	bd80      	pop	{r7, pc}
     a2a:	bf00      	nop
     a2c:	00002fd0 	.word	0x00002fd0
     a30:	00002fec 	.word	0x00002fec
     a34:	200002c0 	.word	0x200002c0
     a38:	00002c84 	.word	0x00002c84
     a3c:	00002ebc 	.word	0x00002ebc
     a40:	200002c0 	.word	0x200002c0
     a44:	00002ecc 	.word	0x00002ecc
     a48:	20006000 	.word	0x20006000
     a4c:	00002ffc 	.word	0x00002ffc
     a50:	20008000 	.word	0x20008000
     a54:	0000300c 	.word	0x0000300c
     a58:	0000301c 	.word	0x0000301c
     a5c:	0000302c 	.word	0x0000302c
     a60:	20000180 	.word	0x20000180

00000a64 <diag_put_hex8>:

/* ------------------ full mem/state dump with previews ------------------ */

/* Small hex nibble helper */
static void diag_put_hex8(uint8_t v)
{
     a64:	b5b0      	push	{r4, r5, r7, lr}
     a66:	b088      	sub	sp, #32
     a68:	af00      	add	r7, sp, #0
     a6a:	4603      	mov	r3, r0
     a6c:	71fb      	strb	r3, [r7, #7]
    const char hex[] = "0123456789ABCDEF";
     a6e:	4b11      	ldr	r3, [pc, #68]	@ (ab4 <diag_put_hex8+0x50>)
     a70:	f107 040c 	add.w	r4, r7, #12
     a74:	461d      	mov	r5, r3
     a76:	cd0f      	ldmia	r5!, {r0, r1, r2, r3}
     a78:	c40f      	stmia	r4!, {r0, r1, r2, r3}
     a7a:	682b      	ldr	r3, [r5, #0]
     a7c:	7023      	strb	r3, [r4, #0]
    diag_putc(hex[(v >> 4) & 0xF]);
     a7e:	79fb      	ldrb	r3, [r7, #7]
     a80:	091b      	lsrs	r3, r3, #4
     a82:	b2db      	uxtb	r3, r3
     a84:	f003 030f 	and.w	r3, r3, #15
     a88:	3320      	adds	r3, #32
     a8a:	443b      	add	r3, r7
     a8c:	f813 3c14 	ldrb.w	r3, [r3, #-20]
     a90:	4618      	mov	r0, r3
     a92:	f7ff fecd 	bl	830 <diag_putc>
    diag_putc(hex[v & 0xF]);
     a96:	79fb      	ldrb	r3, [r7, #7]
     a98:	f003 030f 	and.w	r3, r3, #15
     a9c:	3320      	adds	r3, #32
     a9e:	443b      	add	r3, r7
     aa0:	f813 3c14 	ldrb.w	r3, [r3, #-20]
     aa4:	4618      	mov	r0, r3
     aa6:	f7ff fec3 	bl	830 <diag_putc>
}
     aaa:	bf00      	nop
     aac:	3720      	adds	r7, #32
     aae:	46bd      	mov	sp, r7
     ab0:	bdb0      	pop	{r4, r5, r7, pc}
     ab2:	bf00      	nop
     ab4:	00002e90 	.word	0x00002e90

00000ab8 <diag_hexdump>:

/* Bounded hex-dump (max 64 bytes) */
static void diag_hexdump(const void *addr, size_t len)
{
     ab8:	b580      	push	{r7, lr}
     aba:	b086      	sub	sp, #24
     abc:	af00      	add	r7, sp, #0
     abe:	6078      	str	r0, [r7, #4]
     ac0:	6039      	str	r1, [r7, #0]
    if (!addr) {
     ac2:	687b      	ldr	r3, [r7, #4]
     ac4:	2b00      	cmp	r3, #0
     ac6:	d103      	bne.n	ad0 <diag_hexdump+0x18>
        diag_puts("<NULL>\r\n");
     ac8:	481c      	ldr	r0, [pc, #112]	@ (b3c <diag_hexdump+0x84>)
     aca:	f7ff fec7 	bl	85c <diag_puts>
        return;
     ace:	e031      	b.n	b34 <diag_hexdump+0x7c>
    }
    const uint8_t *p = (const uint8_t *)addr;
     ad0:	687b      	ldr	r3, [r7, #4]
     ad2:	613b      	str	r3, [r7, #16]
    const size_t max = 64;
     ad4:	2340      	movs	r3, #64	@ 0x40
     ad6:	60fb      	str	r3, [r7, #12]
    if (len > max) len = max;
     ad8:	683a      	ldr	r2, [r7, #0]
     ada:	68fb      	ldr	r3, [r7, #12]
     adc:	429a      	cmp	r2, r3
     ade:	d901      	bls.n	ae4 <diag_hexdump+0x2c>
     ae0:	68fb      	ldr	r3, [r7, #12]
     ae2:	603b      	str	r3, [r7, #0]

    for (size_t i = 0; i < len; ++i) {
     ae4:	2300      	movs	r3, #0
     ae6:	617b      	str	r3, [r7, #20]
     ae8:	e01d      	b.n	b26 <diag_hexdump+0x6e>
        if ((i & 0x0F) == 0) {
     aea:	697b      	ldr	r3, [r7, #20]
     aec:	f003 030f 	and.w	r3, r3, #15
     af0:	2b00      	cmp	r3, #0
     af2:	d10b      	bne.n	b0c <diag_hexdump+0x54>
            diag_puts("\r\n");
     af4:	4812      	ldr	r0, [pc, #72]	@ (b40 <diag_hexdump+0x88>)
     af6:	f7ff feb1 	bl	85c <diag_puts>
            diag_put_ptr((void *)(uintptr_t)(p + i));
     afa:	693a      	ldr	r2, [r7, #16]
     afc:	697b      	ldr	r3, [r7, #20]
     afe:	4413      	add	r3, r2
     b00:	4618      	mov	r0, r3
     b02:	f7ff fef5 	bl	8f0 <diag_put_ptr>
            diag_puts(": ");
     b06:	480f      	ldr	r0, [pc, #60]	@ (b44 <diag_hexdump+0x8c>)
     b08:	f7ff fea8 	bl	85c <diag_puts>
        }
        diag_put_hex8(p[i]);
     b0c:	693a      	ldr	r2, [r7, #16]
     b0e:	697b      	ldr	r3, [r7, #20]
     b10:	4413      	add	r3, r2
     b12:	781b      	ldrb	r3, [r3, #0]
     b14:	4618      	mov	r0, r3
     b16:	f7ff ffa5 	bl	a64 <diag_put_hex8>
        diag_puts(" ");
     b1a:	480b      	ldr	r0, [pc, #44]	@ (b48 <diag_hexdump+0x90>)
     b1c:	f7ff fe9e 	bl	85c <diag_puts>
    for (size_t i = 0; i < len; ++i) {
     b20:	697b      	ldr	r3, [r7, #20]
     b22:	3301      	adds	r3, #1
     b24:	617b      	str	r3, [r7, #20]
     b26:	697a      	ldr	r2, [r7, #20]
     b28:	683b      	ldr	r3, [r7, #0]
     b2a:	429a      	cmp	r2, r3
     b2c:	d3dd      	bcc.n	aea <diag_hexdump+0x32>
    }
    diag_puts("\r\n");
     b2e:	4804      	ldr	r0, [pc, #16]	@ (b40 <diag_hexdump+0x88>)
     b30:	f7ff fe94 	bl	85c <diag_puts>
}
     b34:	3718      	adds	r7, #24
     b36:	46bd      	mov	sp, r7
     b38:	bd80      	pop	{r7, pc}
     b3a:	bf00      	nop
     b3c:	000030a4 	.word	0x000030a4
     b40:	00002c84 	.word	0x00002c84
     b44:	000030b0 	.word	0x000030b0
     b48:	000030b4 	.word	0x000030b4

00000b4c <diag_addr_region>:

/* ------------------ variable inspection helpers ------------------ */

/* Determine region for an address */
static const char * diag_addr_region(const void *addr)
{
     b4c:	b480      	push	{r7}
     b4e:	b08b      	sub	sp, #44	@ 0x2c
     b50:	af00      	add	r7, sp, #0
     b52:	6078      	str	r0, [r7, #4]
    uintptr_t a = (uintptr_t)addr;
     b54:	687b      	ldr	r3, [r7, #4]
     b56:	627b      	str	r3, [r7, #36]	@ 0x24
    uintptr_t heap_start = (uintptr_t)&_heap_start;
     b58:	4b1c      	ldr	r3, [pc, #112]	@ (bcc <diag_addr_region+0x80>)
     b5a:	623b      	str	r3, [r7, #32]
    uintptr_t heap_end   = (uintptr_t)&_heap_end;
     b5c:	4b1c      	ldr	r3, [pc, #112]	@ (bd0 <diag_addr_region+0x84>)
     b5e:	61fb      	str	r3, [r7, #28]
    uintptr_t bss_start  = (uintptr_t)&_end_bss;
     b60:	4b1c      	ldr	r3, [pc, #112]	@ (bd4 <diag_addr_region+0x88>)
     b62:	61bb      	str	r3, [r7, #24]
    uintptr_t stack_top  = (uintptr_t)&_stack_top;
     b64:	4b1c      	ldr	r3, [pc, #112]	@ (bd8 <diag_addr_region+0x8c>)
     b66:	617b      	str	r3, [r7, #20]

    void *spv = NULL;
     b68:	2300      	movs	r3, #0
     b6a:	613b      	str	r3, [r7, #16]
    __asm__ volatile ("mov %0, sp" : "=r" (spv));
     b6c:	466b      	mov	r3, sp
     b6e:	613b      	str	r3, [r7, #16]
    uintptr_t sp = (uintptr_t)spv;
     b70:	693b      	ldr	r3, [r7, #16]
     b72:	60fb      	str	r3, [r7, #12]

    if (a >= heap_start && a < heap_end) return "heap";
     b74:	6a7a      	ldr	r2, [r7, #36]	@ 0x24
     b76:	6a3b      	ldr	r3, [r7, #32]
     b78:	429a      	cmp	r2, r3
     b7a:	d305      	bcc.n	b88 <diag_addr_region+0x3c>
     b7c:	6a7a      	ldr	r2, [r7, #36]	@ 0x24
     b7e:	69fb      	ldr	r3, [r7, #28]
     b80:	429a      	cmp	r2, r3
     b82:	d201      	bcs.n	b88 <diag_addr_region+0x3c>
     b84:	4b15      	ldr	r3, [pc, #84]	@ (bdc <diag_addr_region+0x90>)
     b86:	e01b      	b.n	bc0 <diag_addr_region+0x74>
    if (a >= bss_start && a < heap_start) return "bss/data";
     b88:	6a7a      	ldr	r2, [r7, #36]	@ 0x24
     b8a:	69bb      	ldr	r3, [r7, #24]
     b8c:	429a      	cmp	r2, r3
     b8e:	d305      	bcc.n	b9c <diag_addr_region+0x50>
     b90:	6a7a      	ldr	r2, [r7, #36]	@ 0x24
     b92:	6a3b      	ldr	r3, [r7, #32]
     b94:	429a      	cmp	r2, r3
     b96:	d201      	bcs.n	b9c <diag_addr_region+0x50>
     b98:	4b11      	ldr	r3, [pc, #68]	@ (be0 <diag_addr_region+0x94>)
     b9a:	e011      	b.n	bc0 <diag_addr_region+0x74>
    if (a <= stack_top && a >= (sp > 32768 ? sp - 32768 : 0)) return "stack";
     b9c:	6a7a      	ldr	r2, [r7, #36]	@ 0x24
     b9e:	697b      	ldr	r3, [r7, #20]
     ba0:	429a      	cmp	r2, r3
     ba2:	d80c      	bhi.n	bbe <diag_addr_region+0x72>
     ba4:	68fb      	ldr	r3, [r7, #12]
     ba6:	f5b3 4f00 	cmp.w	r3, #32768	@ 0x8000
     baa:	bf38      	it	cc
     bac:	f44f 4300 	movcc.w	r3, #32768	@ 0x8000
     bb0:	f5a3 4300 	sub.w	r3, r3, #32768	@ 0x8000
     bb4:	6a7a      	ldr	r2, [r7, #36]	@ 0x24
     bb6:	429a      	cmp	r2, r3
     bb8:	d301      	bcc.n	bbe <diag_addr_region+0x72>
     bba:	4b0a      	ldr	r3, [pc, #40]	@ (be4 <diag_addr_region+0x98>)
     bbc:	e000      	b.n	bc0 <diag_addr_region+0x74>
    return "unknown";
     bbe:	4b0a      	ldr	r3, [pc, #40]	@ (be8 <diag_addr_region+0x9c>)
}
     bc0:	4618      	mov	r0, r3
     bc2:	372c      	adds	r7, #44	@ 0x2c
     bc4:	46bd      	mov	sp, r7
     bc6:	f85d 7b04 	ldr.w	r7, [sp], #4
     bca:	4770      	bx	lr
     bcc:	200002c0 	.word	0x200002c0
     bd0:	20006000 	.word	0x20006000
     bd4:	200002c0 	.word	0x200002c0
     bd8:	20008000 	.word	0x20008000
     bdc:	00003200 	.word	0x00003200
     be0:	00003208 	.word	0x00003208
     be4:	00003214 	.word	0x00003214
     be8:	0000321c 	.word	0x0000321c

00000bec <diag_print_variable>:


/* Print a single variable name + address + region and small value preview */
void diag_print_variable(const char *name, const void *addr, size_t size, size_t preview_limit)
{
     bec:	b5b0      	push	{r4, r5, r7, lr}
     bee:	b092      	sub	sp, #72	@ 0x48
     bf0:	af00      	add	r7, sp, #0
     bf2:	60f8      	str	r0, [r7, #12]
     bf4:	60b9      	str	r1, [r7, #8]
     bf6:	607a      	str	r2, [r7, #4]
     bf8:	603b      	str	r3, [r7, #0]
    diag_puts(name);
     bfa:	68f8      	ldr	r0, [r7, #12]
     bfc:	f7ff fe2e 	bl	85c <diag_puts>
    diag_puts(" = ");
     c00:	4869      	ldr	r0, [pc, #420]	@ (da8 <diag_print_variable+0x1bc>)
     c02:	f7ff fe2b 	bl	85c <diag_puts>
    diag_put_ptr(addr);
     c06:	68b8      	ldr	r0, [r7, #8]
     c08:	f7ff fe72 	bl	8f0 <diag_put_ptr>
    diag_puts("  [");
     c0c:	4867      	ldr	r0, [pc, #412]	@ (dac <diag_print_variable+0x1c0>)
     c0e:	f7ff fe25 	bl	85c <diag_puts>
    diag_puts(diag_addr_region(addr));
     c12:	68b8      	ldr	r0, [r7, #8]
     c14:	f7ff ff9a 	bl	b4c <diag_addr_region>
     c18:	4603      	mov	r3, r0
     c1a:	4618      	mov	r0, r3
     c1c:	f7ff fe1e 	bl	85c <diag_puts>
    diag_puts("]  size=");
     c20:	4863      	ldr	r0, [pc, #396]	@ (db0 <diag_print_variable+0x1c4>)
     c22:	f7ff fe1b 	bl	85c <diag_puts>
    diag_put_u32_dec((uint32_t)size);
     c26:	6878      	ldr	r0, [r7, #4]
     c28:	f7ff fe6e 	bl	908 <diag_put_u32_dec>
    diag_puts("  ");
     c2c:	4861      	ldr	r0, [pc, #388]	@ (db4 <diag_print_variable+0x1c8>)
     c2e:	f7ff fe15 	bl	85c <diag_puts>

    uint32_t v = 0;
     c32:	2300      	movs	r3, #0
     c34:	63bb      	str	r3, [r7, #56]	@ 0x38

    if (size == 4) {
     c36:	687b      	ldr	r3, [r7, #4]
     c38:	2b04      	cmp	r3, #4
     c3a:	d114      	bne.n	c66 <diag_print_variable+0x7a>

        memcpy(&v, addr, sizeof(v));
     c3c:	68bb      	ldr	r3, [r7, #8]
     c3e:	681b      	ldr	r3, [r3, #0]
     c40:	63bb      	str	r3, [r7, #56]	@ 0x38
        diag_puts("val=");
     c42:	485d      	ldr	r0, [pc, #372]	@ (db8 <diag_print_variable+0x1cc>)
     c44:	f7ff fe0a 	bl	85c <diag_puts>
        diag_put_hex32(v);
     c48:	6bbb      	ldr	r3, [r7, #56]	@ 0x38
     c4a:	4618      	mov	r0, r3
     c4c:	f7ff fe1e 	bl	88c <diag_put_hex32>
        diag_puts(" (");
     c50:	485a      	ldr	r0, [pc, #360]	@ (dbc <diag_print_variable+0x1d0>)
     c52:	f7ff fe03 	bl	85c <diag_puts>
        diag_put_u32_dec(v);
     c56:	6bbb      	ldr	r3, [r7, #56]	@ 0x38
     c58:	4618      	mov	r0, r3
     c5a:	f7ff fe55 	bl	908 <diag_put_u32_dec>
        diag_puts(")");
     c5e:	4858      	ldr	r0, [pc, #352]	@ (dc0 <diag_print_variable+0x1d4>)
     c60:	f7ff fdfc 	bl	85c <diag_puts>
     c64:	e09a      	b.n	d9c <diag_print_variable+0x1b0>

    } else if (size == 2) {
     c66:	687b      	ldr	r3, [r7, #4]
     c68:	2b02      	cmp	r3, #2
     c6a:	d13b      	bne.n	ce4 <diag_print_variable+0xf8>

        /* for 16-bit */
        diag_puts("val=0x");
     c6c:	4855      	ldr	r0, [pc, #340]	@ (dc4 <diag_print_variable+0x1d8>)
     c6e:	f7ff fdf5 	bl	85c <diag_puts>
        const char hex[] = "0123456789ABCDEF";
     c72:	4b55      	ldr	r3, [pc, #340]	@ (dc8 <diag_print_variable+0x1dc>)
     c74:	f107 0424 	add.w	r4, r7, #36	@ 0x24
     c78:	461d      	mov	r5, r3
     c7a:	cd0f      	ldmia	r5!, {r0, r1, r2, r3}
     c7c:	c40f      	stmia	r4!, {r0, r1, r2, r3}
     c7e:	682b      	ldr	r3, [r5, #0]
     c80:	7023      	strb	r3, [r4, #0]
        uint16_t v16 = (uint16_t)v;
     c82:	6bbb      	ldr	r3, [r7, #56]	@ 0x38
     c84:	87bb      	strh	r3, [r7, #60]	@ 0x3c
        diag_putc(hex[(v16 >> 12) & 0xF]);
     c86:	8fbb      	ldrh	r3, [r7, #60]	@ 0x3c
     c88:	0b1b      	lsrs	r3, r3, #12
     c8a:	b29b      	uxth	r3, r3
     c8c:	f003 030f 	and.w	r3, r3, #15
     c90:	3348      	adds	r3, #72	@ 0x48
     c92:	443b      	add	r3, r7
     c94:	f813 3c24 	ldrb.w	r3, [r3, #-36]
     c98:	4618      	mov	r0, r3
     c9a:	f7ff fdc9 	bl	830 <diag_putc>
        diag_putc(hex[(v16 >> 8) & 0xF]);
     c9e:	8fbb      	ldrh	r3, [r7, #60]	@ 0x3c
     ca0:	0a1b      	lsrs	r3, r3, #8
     ca2:	b29b      	uxth	r3, r3
     ca4:	f003 030f 	and.w	r3, r3, #15
     ca8:	3348      	adds	r3, #72	@ 0x48
     caa:	443b      	add	r3, r7
     cac:	f813 3c24 	ldrb.w	r3, [r3, #-36]
     cb0:	4618      	mov	r0, r3
     cb2:	f7ff fdbd 	bl	830 <diag_putc>
        diag_putc(hex[(v16 >> 4) & 0xF]);
     cb6:	8fbb      	ldrh	r3, [r7, #60]	@ 0x3c
     cb8:	091b      	lsrs	r3, r3, #4
     cba:	b29b      	uxth	r3, r3
     cbc:	f003 030f 	and.w	r3, r3, #15
     cc0:	3348      	adds	r3, #72	@ 0x48
     cc2:	443b      	add	r3, r7
     cc4:	f813 3c24 	ldrb.w	r3, [r3, #-36]
     cc8:	4618      	mov	r0, r3
     cca:	f7ff fdb1 	bl	830 <diag_putc>
        diag_putc(hex[v16 & 0xF]);
     cce:	8fbb      	ldrh	r3, [r7, #60]	@ 0x3c
     cd0:	f003 030f 	and.w	r3, r3, #15
     cd4:	3348      	adds	r3, #72	@ 0x48
     cd6:	443b      	add	r3, r7
     cd8:	f813 3c24 	ldrb.w	r3, [r3, #-36]
     cdc:	4618      	mov	r0, r3
     cde:	f7ff fda7 	bl	830 <diag_putc>
     ce2:	e05b      	b.n	d9c <diag_print_variable+0x1b0>

    } else if (size == 1) {
     ce4:	687b      	ldr	r3, [r7, #4]
     ce6:	2b01      	cmp	r3, #1
     ce8:	d126      	bne.n	d38 <diag_print_variable+0x14c>

        /* for 8-bit */
        diag_puts("val=0x");
     cea:	4836      	ldr	r0, [pc, #216]	@ (dc4 <diag_print_variable+0x1d8>)
     cec:	f7ff fdb6 	bl	85c <diag_puts>
        const char hex[] = "0123456789ABCDEF";
     cf0:	4b35      	ldr	r3, [pc, #212]	@ (dc8 <diag_print_variable+0x1dc>)
     cf2:	f107 0410 	add.w	r4, r7, #16
     cf6:	461d      	mov	r5, r3
     cf8:	cd0f      	ldmia	r5!, {r0, r1, r2, r3}
     cfa:	c40f      	stmia	r4!, {r0, r1, r2, r3}
     cfc:	682b      	ldr	r3, [r5, #0]
     cfe:	7023      	strb	r3, [r4, #0]
        uint8_t v8 = (uint8_t)v;
     d00:	6bbb      	ldr	r3, [r7, #56]	@ 0x38
     d02:	f887 303f 	strb.w	r3, [r7, #63]	@ 0x3f
        diag_putc(hex[(v8 >> 4) & 0xF]);
     d06:	f897 303f 	ldrb.w	r3, [r7, #63]	@ 0x3f
     d0a:	091b      	lsrs	r3, r3, #4
     d0c:	b2db      	uxtb	r3, r3
     d0e:	f003 030f 	and.w	r3, r3, #15
     d12:	3348      	adds	r3, #72	@ 0x48
     d14:	443b      	add	r3, r7
     d16:	f813 3c38 	ldrb.w	r3, [r3, #-56]
     d1a:	4618      	mov	r0, r3
     d1c:	f7ff fd88 	bl	830 <diag_putc>
        diag_putc(hex[v8 & 0xF]);
     d20:	f897 303f 	ldrb.w	r3, [r7, #63]	@ 0x3f
     d24:	f003 030f 	and.w	r3, r3, #15
     d28:	3348      	adds	r3, #72	@ 0x48
     d2a:	443b      	add	r3, r7
     d2c:	f813 3c38 	ldrb.w	r3, [r3, #-56]
     d30:	4618      	mov	r0, r3
     d32:	f7ff fd7d 	bl	830 <diag_putc>
     d36:	e031      	b.n	d9c <diag_print_variable+0x1b0>
           - If caller asked for DIAG_PREVIEW_NOLIMIT, print the full 'size' value
             (but we still enforce an absolute safety cap to prevent runaway).
           - If caller passed DIAG_PREVIEW_LIMIT or any other small value, use that as cap.
        */

        const size_t ABSOLUTE_MAX = 65536; /* safety cap: change if needed */
     d38:	f44f 3380 	mov.w	r3, #65536	@ 0x10000
     d3c:	643b      	str	r3, [r7, #64]	@ 0x40
        size_t n;

        if (preview_limit == DIAG_PREVIEW_NOLIMIT) {
     d3e:	683b      	ldr	r3, [r7, #0]
     d40:	f1b3 3fff 	cmp.w	r3, #4294967295	@ 0xffffffff
     d44:	d109      	bne.n	d5a <diag_print_variable+0x16e>

            /* full view requested */
            diag_puts("full view (printing entire region):");
     d46:	4821      	ldr	r0, [pc, #132]	@ (dcc <diag_print_variable+0x1e0>)
     d48:	f7ff fd88 	bl	85c <diag_puts>
            /* cap to ABSOLUTE_MAX for safety */
            n = (size > ABSOLUTE_MAX) ? ABSOLUTE_MAX : size;
     d4c:	687a      	ldr	r2, [r7, #4]
     d4e:	6c3b      	ldr	r3, [r7, #64]	@ 0x40
     d50:	4293      	cmp	r3, r2
     d52:	bf28      	it	cs
     d54:	4613      	movcs	r3, r2
     d56:	647b      	str	r3, [r7, #68]	@ 0x44
     d58:	e00e      	b.n	d78 <diag_print_variable+0x18c>

        } else if (preview_limit == 0) {
     d5a:	683b      	ldr	r3, [r7, #0]
     d5c:	2b00      	cmp	r3, #0
     d5e:	d105      	bne.n	d6c <diag_print_variable+0x180>

            /* treat 0 as equivalent to DIAG_PREVIEW_LIMIT fallback */
            n = (size > DIAG_PREVIEW_LIMIT) ? DIAG_PREVIEW_LIMIT : size;
     d60:	687b      	ldr	r3, [r7, #4]
     d62:	2b20      	cmp	r3, #32
     d64:	bf28      	it	cs
     d66:	2320      	movcs	r3, #32
     d68:	647b      	str	r3, [r7, #68]	@ 0x44
     d6a:	e005      	b.n	d78 <diag_print_variable+0x18c>

        } else {

            /* caller supplied explicit limit */
            n = (size > preview_limit) ? preview_limit : size;
     d6c:	687a      	ldr	r2, [r7, #4]
     d6e:	683b      	ldr	r3, [r7, #0]
     d70:	4293      	cmp	r3, r2
     d72:	bf28      	it	cs
     d74:	4613      	movcs	r3, r2
     d76:	647b      	str	r3, [r7, #68]	@ 0x44

        }

        /* Now print n bytes (diag_hexdump itself should already be rate-limited) */
        diag_puts("preview:");
     d78:	4815      	ldr	r0, [pc, #84]	@ (dd0 <diag_print_variable+0x1e4>)
     d7a:	f7ff fd6f 	bl	85c <diag_puts>
        diag_hexdump(addr, n);
     d7e:	6c79      	ldr	r1, [r7, #68]	@ 0x44
     d80:	68b8      	ldr	r0, [r7, #8]
     d82:	f7ff fe99 	bl	ab8 <diag_hexdump>

        /* If we truncated the region because of ABSOLUTE_MAX, notify the user */
        if (n < size) {
     d86:	6c7a      	ldr	r2, [r7, #68]	@ 0x44
     d88:	687b      	ldr	r3, [r7, #4]
     d8a:	429a      	cmp	r2, r3
     d8c:	d202      	bcs.n	d94 <diag_print_variable+0x1a8>
            diag_puts("[truncated]");
     d8e:	4811      	ldr	r0, [pc, #68]	@ (dd4 <diag_print_variable+0x1e8>)
     d90:	f7ff fd64 	bl	85c <diag_puts>
        }

        diag_puts("\r\n");
     d94:	4810      	ldr	r0, [pc, #64]	@ (dd8 <diag_print_variable+0x1ec>)
     d96:	f7ff fd61 	bl	85c <diag_puts>
     d9a:	e002      	b.n	da2 <diag_print_variable+0x1b6>

        return;

    }

    diag_puts("\r\n");
     d9c:	480e      	ldr	r0, [pc, #56]	@ (dd8 <diag_print_variable+0x1ec>)
     d9e:	f7ff fd5d 	bl	85c <diag_puts>

}
     da2:	3748      	adds	r7, #72	@ 0x48
     da4:	46bd      	mov	sp, r7
     da6:	bdb0      	pop	{r4, r5, r7, pc}
     da8:	00003224 	.word	0x00003224
     dac:	00003228 	.word	0x00003228
     db0:	0000322c 	.word	0x0000322c
     db4:	00003238 	.word	0x00003238
     db8:	0000323c 	.word	0x0000323c
     dbc:	00003244 	.word	0x00003244
     dc0:	00003248 	.word	0x00003248
     dc4:	0000324c 	.word	0x0000324c
     dc8:	00002e90 	.word	0x00002e90
     dcc:	00003254 	.word	0x00003254
     dd0:	00003278 	.word	0x00003278
     dd4:	00003284 	.word	0x00003284
     dd8:	00002c84 	.word	0x00002c84

00000ddc <diag_print_variables_summary>:


/* Replace diag_print_variables_summary with this (no app-specific externs) */
void diag_print_variables_summary(void)
{
     ddc:	b580      	push	{r7, lr}
     dde:	b084      	sub	sp, #16
     de0:	af00      	add	r7, sp, #0
    diag_puts("\r\n=== VARIABLES SUMMARY (generic) ===\r\n");
     de2:	482e      	ldr	r0, [pc, #184]	@ (e9c <diag_print_variables_summary+0xc0>)
     de4:	f7ff fd3a 	bl	85c <diag_puts>

    /* basic memory layout */
    diag_puts("_end_bss    = "); diag_put_ptr((void*)&_end_bss); diag_puts("\r\n");
     de8:	482d      	ldr	r0, [pc, #180]	@ (ea0 <diag_print_variables_summary+0xc4>)
     dea:	f7ff fd37 	bl	85c <diag_puts>
     dee:	482d      	ldr	r0, [pc, #180]	@ (ea4 <diag_print_variables_summary+0xc8>)
     df0:	f7ff fd7e 	bl	8f0 <diag_put_ptr>
     df4:	482c      	ldr	r0, [pc, #176]	@ (ea8 <diag_print_variables_summary+0xcc>)
     df6:	f7ff fd31 	bl	85c <diag_puts>
    diag_puts("_heap_start = "); diag_put_ptr((void*)&_heap_start); diag_puts("\r\n");
     dfa:	482c      	ldr	r0, [pc, #176]	@ (eac <diag_print_variables_summary+0xd0>)
     dfc:	f7ff fd2e 	bl	85c <diag_puts>
     e00:	482b      	ldr	r0, [pc, #172]	@ (eb0 <diag_print_variables_summary+0xd4>)
     e02:	f7ff fd75 	bl	8f0 <diag_put_ptr>
     e06:	4828      	ldr	r0, [pc, #160]	@ (ea8 <diag_print_variables_summary+0xcc>)
     e08:	f7ff fd28 	bl	85c <diag_puts>
    diag_puts("_heap_end   = "); diag_put_ptr((void*)&_heap_end); diag_puts("\r\n");
     e0c:	4829      	ldr	r0, [pc, #164]	@ (eb4 <diag_print_variables_summary+0xd8>)
     e0e:	f7ff fd25 	bl	85c <diag_puts>
     e12:	4829      	ldr	r0, [pc, #164]	@ (eb8 <diag_print_variables_summary+0xdc>)
     e14:	f7ff fd6c 	bl	8f0 <diag_put_ptr>
     e18:	4823      	ldr	r0, [pc, #140]	@ (ea8 <diag_print_variables_summary+0xcc>)
     e1a:	f7ff fd1f 	bl	85c <diag_puts>
    diag_puts("_stack_top  = "); diag_put_ptr((void*)&_stack_top); diag_puts("\r\n");
     e1e:	4827      	ldr	r0, [pc, #156]	@ (ebc <diag_print_variables_summary+0xe0>)
     e20:	f7ff fd1c 	bl	85c <diag_puts>
     e24:	4826      	ldr	r0, [pc, #152]	@ (ec0 <diag_print_variables_summary+0xe4>)
     e26:	f7ff fd63 	bl	8f0 <diag_put_ptr>
     e2a:	481f      	ldr	r0, [pc, #124]	@ (ea8 <diag_print_variables_summary+0xcc>)
     e2c:	f7ff fd16 	bl	85c <diag_puts>

    /* current heap break and free estimate */
    void *cur = _sbrk(0);
     e30:	2000      	movs	r0, #0
     e32:	f000 fea3 	bl	1b7c <_sbrk>
     e36:	60f8      	str	r0, [r7, #12]
    diag_puts("sbrk(0)     = "); diag_put_ptr(cur); diag_puts("\r\n");
     e38:	4822      	ldr	r0, [pc, #136]	@ (ec4 <diag_print_variables_summary+0xe8>)
     e3a:	f7ff fd0f 	bl	85c <diag_puts>
     e3e:	68f8      	ldr	r0, [r7, #12]
     e40:	f7ff fd56 	bl	8f0 <diag_put_ptr>
     e44:	4818      	ldr	r0, [pc, #96]	@ (ea8 <diag_print_variables_summary+0xcc>)
     e46:	f7ff fd09 	bl	85c <diag_puts>
    if ((uintptr_t)cur <= (uintptr_t)&_heap_end) {
     e4a:	68fb      	ldr	r3, [r7, #12]
     e4c:	4a1a      	ldr	r2, [pc, #104]	@ (eb8 <diag_print_variables_summary+0xdc>)
     e4e:	4293      	cmp	r3, r2
     e50:	d80d      	bhi.n	e6e <diag_print_variables_summary+0x92>
        uint32_t freeb = (uint32_t)((uintptr_t)&_heap_end - (uintptr_t)cur);
     e52:	4a19      	ldr	r2, [pc, #100]	@ (eb8 <diag_print_variables_summary+0xdc>)
     e54:	68fb      	ldr	r3, [r7, #12]
     e56:	1ad3      	subs	r3, r2, r3
     e58:	60bb      	str	r3, [r7, #8]
        diag_puts("free heap   = "); diag_put_u32_dec(freeb); diag_puts(" bytes\r\n");
     e5a:	481b      	ldr	r0, [pc, #108]	@ (ec8 <diag_print_variables_summary+0xec>)
     e5c:	f7ff fcfe 	bl	85c <diag_puts>
     e60:	68b8      	ldr	r0, [r7, #8]
     e62:	f7ff fd51 	bl	908 <diag_put_u32_dec>
     e66:	4819      	ldr	r0, [pc, #100]	@ (ecc <diag_print_variables_summary+0xf0>)
     e68:	f7ff fcf8 	bl	85c <diag_puts>
     e6c:	e002      	b.n	e74 <diag_print_variables_summary+0x98>
    } else {
        diag_puts("free heap   = <invalid>\r\n");
     e6e:	4818      	ldr	r0, [pc, #96]	@ (ed0 <diag_print_variables_summary+0xf4>)
     e70:	f7ff fcf4 	bl	85c <diag_puts>
    }

    /* Also print instantaneous SP (stack pointer) */
    void *sp = NULL;
     e74:	2300      	movs	r3, #0
     e76:	607b      	str	r3, [r7, #4]
    __asm__ volatile ("mov %0, sp" : "=r" (sp));
     e78:	466b      	mov	r3, sp
     e7a:	607b      	str	r3, [r7, #4]
    diag_puts("SP (inst)   = "); diag_put_ptr(sp); diag_puts("\r\n");
     e7c:	4815      	ldr	r0, [pc, #84]	@ (ed4 <diag_print_variables_summary+0xf8>)
     e7e:	f7ff fced 	bl	85c <diag_puts>
     e82:	6878      	ldr	r0, [r7, #4]
     e84:	f7ff fd34 	bl	8f0 <diag_put_ptr>
     e88:	4807      	ldr	r0, [pc, #28]	@ (ea8 <diag_print_variables_summary+0xcc>)
     e8a:	f7ff fce7 	bl	85c <diag_puts>

    diag_puts("=== END VARIABLES SUMMARY ===\r\n");
     e8e:	4812      	ldr	r0, [pc, #72]	@ (ed8 <diag_print_variables_summary+0xfc>)
     e90:	f7ff fce4 	bl	85c <diag_puts>
}
     e94:	bf00      	nop
     e96:	3710      	adds	r7, #16
     e98:	46bd      	mov	sp, r7
     e9a:	bd80      	pop	{r7, pc}
     e9c:	00003290 	.word	0x00003290
     ea0:	000030d4 	.word	0x000030d4
     ea4:	200002c0 	.word	0x200002c0
     ea8:	00002c84 	.word	0x00002c84
     eac:	000030e4 	.word	0x000030e4
     eb0:	200002c0 	.word	0x200002c0
     eb4:	000030f4 	.word	0x000030f4
     eb8:	20006000 	.word	0x20006000
     ebc:	00003104 	.word	0x00003104
     ec0:	20008000 	.word	0x20008000
     ec4:	00003114 	.word	0x00003114
     ec8:	00003144 	.word	0x00003144
     ecc:	00002dc4 	.word	0x00002dc4
     ed0:	000032b8 	.word	0x000032b8
     ed4:	00003134 	.word	0x00003134
     ed8:	000032d4 	.word	0x000032d4

00000edc <my_isspace>:

#ifndef CTYPE_HELPERS_H
#define CTYPE_HELPERS_H

static inline int my_isspace(int c)
{
     edc:	b480      	push	{r7}
     ede:	b083      	sub	sp, #12
     ee0:	af00      	add	r7, sp, #0
     ee2:	6078      	str	r0, [r7, #4]
    /* Only ASCII whitespace handled; safe for chars passed as unsigned char */
    return (c == ' ')  || (c == '\f') || (c == '\n') ||
           (c == '\r') || (c == '\t') || (c == '\v');
     ee4:	687b      	ldr	r3, [r7, #4]
     ee6:	2b20      	cmp	r3, #32
     ee8:	d00e      	beq.n	f08 <my_isspace+0x2c>
    return (c == ' ')  || (c == '\f') || (c == '\n') ||
     eea:	687b      	ldr	r3, [r7, #4]
     eec:	2b0c      	cmp	r3, #12
     eee:	d00b      	beq.n	f08 <my_isspace+0x2c>
     ef0:	687b      	ldr	r3, [r7, #4]
     ef2:	2b0a      	cmp	r3, #10
     ef4:	d008      	beq.n	f08 <my_isspace+0x2c>
     ef6:	687b      	ldr	r3, [r7, #4]
     ef8:	2b0d      	cmp	r3, #13
     efa:	d005      	beq.n	f08 <my_isspace+0x2c>
           (c == '\r') || (c == '\t') || (c == '\v');
     efc:	687b      	ldr	r3, [r7, #4]
     efe:	2b09      	cmp	r3, #9
     f00:	d002      	beq.n	f08 <my_isspace+0x2c>
     f02:	687b      	ldr	r3, [r7, #4]
     f04:	2b0b      	cmp	r3, #11
     f06:	d101      	bne.n	f0c <my_isspace+0x30>
     f08:	2301      	movs	r3, #1
     f0a:	e000      	b.n	f0e <my_isspace+0x32>
     f0c:	2300      	movs	r3, #0
}
     f0e:	4618      	mov	r0, r3
     f10:	370c      	adds	r7, #12
     f12:	46bd      	mov	sp, r7
     f14:	f85d 7b04 	ldr.w	r7, [sp], #4
     f18:	4770      	bx	lr

00000f1a <my_toupper>:

static inline int my_toupper(int c)
{
     f1a:	b480      	push	{r7}
     f1c:	b083      	sub	sp, #12
     f1e:	af00      	add	r7, sp, #0
     f20:	6078      	str	r0, [r7, #4]
    if ((unsigned)c >= 'a' && (unsigned)c <= 'z')
     f22:	687b      	ldr	r3, [r7, #4]
     f24:	2b60      	cmp	r3, #96	@ 0x60
     f26:	d905      	bls.n	f34 <my_toupper+0x1a>
     f28:	687b      	ldr	r3, [r7, #4]
     f2a:	2b7a      	cmp	r3, #122	@ 0x7a
     f2c:	d802      	bhi.n	f34 <my_toupper+0x1a>
        return c - ('a' - 'A');
     f2e:	687b      	ldr	r3, [r7, #4]
     f30:	3b20      	subs	r3, #32
     f32:	e000      	b.n	f36 <my_toupper+0x1c>
    return c;
     f34:	687b      	ldr	r3, [r7, #4]
}
     f36:	4618      	mov	r0, r3
     f38:	370c      	adds	r7, #12
     f3a:	46bd      	mov	sp, r7
     f3c:	f85d 7b04 	ldr.w	r7, [sp], #4
     f40:	4770      	bx	lr
	...

00000f44 <ICDIUARTIntHandler>:
static void process_user_line(const char *line);


/* ICDI UART0 ISR - echo only */
void ICDIUARTIntHandler(void)
{
     f44:	b590      	push	{r4, r7, lr}
     f46:	b083      	sub	sp, #12
     f48:	af00      	add	r7, sp, #0
    uint32_t ui32Status = ROM_UARTIntStatus(UART0_BASE, true);
     f4a:	4b20      	ldr	r3, [pc, #128]	@ (fcc <ICDIUARTIntHandler+0x88>)
     f4c:	681b      	ldr	r3, [r3, #0]
     f4e:	334c      	adds	r3, #76	@ 0x4c
     f50:	681b      	ldr	r3, [r3, #0]
     f52:	2101      	movs	r1, #1
     f54:	481e      	ldr	r0, [pc, #120]	@ (fd0 <ICDIUARTIntHandler+0x8c>)
     f56:	4798      	blx	r3
     f58:	6078      	str	r0, [r7, #4]

    ROM_UARTIntClear(UART0_BASE, ui32Status);
     f5a:	4b1c      	ldr	r3, [pc, #112]	@ (fcc <ICDIUARTIntHandler+0x88>)
     f5c:	681b      	ldr	r3, [r3, #0]
     f5e:	3350      	adds	r3, #80	@ 0x50
     f60:	681b      	ldr	r3, [r3, #0]
     f62:	6879      	ldr	r1, [r7, #4]
     f64:	481a      	ldr	r0, [pc, #104]	@ (fd0 <ICDIUARTIntHandler+0x8c>)
     f66:	4798      	blx	r3

    while (ROM_UARTCharsAvail(UART0_BASE)) {
     f68:	e022      	b.n	fb0 <ICDIUARTIntHandler+0x6c>

        ROM_UARTCharPutNonBlocking(UART0_BASE, ROM_UARTCharGetNonBlocking(UART0_BASE));
     f6a:	4b18      	ldr	r3, [pc, #96]	@ (fcc <ICDIUARTIntHandler+0x88>)
     f6c:	681b      	ldr	r3, [r3, #0]
     f6e:	333c      	adds	r3, #60	@ 0x3c
     f70:	681b      	ldr	r3, [r3, #0]
     f72:	461c      	mov	r4, r3
     f74:	4b15      	ldr	r3, [pc, #84]	@ (fcc <ICDIUARTIntHandler+0x88>)
     f76:	681b      	ldr	r3, [r3, #0]
     f78:	3334      	adds	r3, #52	@ 0x34
     f7a:	681b      	ldr	r3, [r3, #0]
     f7c:	4814      	ldr	r0, [pc, #80]	@ (fd0 <ICDIUARTIntHandler+0x8c>)
     f7e:	4798      	blx	r3
     f80:	4603      	mov	r3, r0
     f82:	b2db      	uxtb	r3, r3
     f84:	4619      	mov	r1, r3
     f86:	4812      	ldr	r0, [pc, #72]	@ (fd0 <ICDIUARTIntHandler+0x8c>)
     f88:	47a0      	blx	r4
        GPIOPinWrite(GPIO_PORTN_BASE, GPIO_PIN_0, GPIO_PIN_0);
     f8a:	2201      	movs	r2, #1
     f8c:	2101      	movs	r1, #1
     f8e:	4811      	ldr	r0, [pc, #68]	@ (fd4 <ICDIUARTIntHandler+0x90>)
     f90:	f000 ff3c 	bl	1e0c <GPIOPinWrite>
        SysCtlDelay(g_ui32SysClock / (1000 * 3));
     f94:	4b10      	ldr	r3, [pc, #64]	@ (fd8 <ICDIUARTIntHandler+0x94>)
     f96:	681b      	ldr	r3, [r3, #0]
     f98:	4a10      	ldr	r2, [pc, #64]	@ (fdc <ICDIUARTIntHandler+0x98>)
     f9a:	fba2 2303 	umull	r2, r3, r2, r3
     f9e:	099b      	lsrs	r3, r3, #6
     fa0:	4618      	mov	r0, r3
     fa2:	f000 ffff 	bl	1fa4 <SysCtlDelay>
        GPIOPinWrite(GPIO_PORTN_BASE, GPIO_PIN_0, 0);
     fa6:	2200      	movs	r2, #0
     fa8:	2101      	movs	r1, #1
     faa:	480a      	ldr	r0, [pc, #40]	@ (fd4 <ICDIUARTIntHandler+0x90>)
     fac:	f000 ff2e 	bl	1e0c <GPIOPinWrite>
    while (ROM_UARTCharsAvail(UART0_BASE)) {
     fb0:	4b06      	ldr	r3, [pc, #24]	@ (fcc <ICDIUARTIntHandler+0x88>)
     fb2:	681b      	ldr	r3, [r3, #0]
     fb4:	332c      	adds	r3, #44	@ 0x2c
     fb6:	681b      	ldr	r3, [r3, #0]
     fb8:	4805      	ldr	r0, [pc, #20]	@ (fd0 <ICDIUARTIntHandler+0x8c>)
     fba:	4798      	blx	r3
     fbc:	4603      	mov	r3, r0
     fbe:	2b00      	cmp	r3, #0
     fc0:	d1d3      	bne.n	f6a <ICDIUARTIntHandler+0x26>

    }

}
     fc2:	bf00      	nop
     fc4:	bf00      	nop
     fc6:	370c      	adds	r7, #12
     fc8:	46bd      	mov	sp, r7
     fca:	bd90      	pop	{r4, r7, pc}
     fcc:	01000014 	.word	0x01000014
     fd0:	4000c000 	.word	0x4000c000
     fd4:	40064000 	.word	0x40064000
     fd8:	20000128 	.word	0x20000128
     fdc:	057619f1 	.word	0x057619f1

00000fe0 <USERUARTIntHandler>:


/* USER UART3 ISR - echo + accumulate, exactly as in your pwm.c */
void USERUARTIntHandler(void)
{
     fe0:	b590      	push	{r4, r7, lr}
     fe2:	b085      	sub	sp, #20
     fe4:	af00      	add	r7, sp, #0
    uint32_t ui32Status = ROM_UARTIntStatus(UART3_BASE, true);
     fe6:	4b4d      	ldr	r3, [pc, #308]	@ (111c <USERUARTIntHandler+0x13c>)
     fe8:	681b      	ldr	r3, [r3, #0]
     fea:	334c      	adds	r3, #76	@ 0x4c
     fec:	681b      	ldr	r3, [r3, #0]
     fee:	2101      	movs	r1, #1
     ff0:	484b      	ldr	r0, [pc, #300]	@ (1120 <USERUARTIntHandler+0x140>)
     ff2:	4798      	blx	r3
     ff4:	6078      	str	r0, [r7, #4]

    ROM_UARTIntClear(UART3_BASE, ui32Status);
     ff6:	4b49      	ldr	r3, [pc, #292]	@ (111c <USERUARTIntHandler+0x13c>)
     ff8:	681b      	ldr	r3, [r3, #0]
     ffa:	3350      	adds	r3, #80	@ 0x50
     ffc:	681b      	ldr	r3, [r3, #0]
     ffe:	6879      	ldr	r1, [r7, #4]
    1000:	4847      	ldr	r0, [pc, #284]	@ (1120 <USERUARTIntHandler+0x140>)
    1002:	4798      	blx	r3

    while (ROM_UARTCharsAvail(UART3_BASE)) {
    1004:	e07b      	b.n	10fe <USERUARTIntHandler+0x11e>

        uint8_t c = ROM_UARTCharGetNonBlocking(UART3_BASE);
    1006:	4b45      	ldr	r3, [pc, #276]	@ (111c <USERUARTIntHandler+0x13c>)
    1008:	681b      	ldr	r3, [r3, #0]
    100a:	3334      	adds	r3, #52	@ 0x34
    100c:	681b      	ldr	r3, [r3, #0]
    100e:	4844      	ldr	r0, [pc, #272]	@ (1120 <USERUARTIntHandler+0x140>)
    1010:	4798      	blx	r3
    1012:	4603      	mov	r3, r0
    1014:	70fb      	strb	r3, [r7, #3]

        /* Echo immediately */
        ROM_UARTCharPutNonBlocking(UART3_BASE, c);
    1016:	4b41      	ldr	r3, [pc, #260]	@ (111c <USERUARTIntHandler+0x13c>)
    1018:	681b      	ldr	r3, [r3, #0]
    101a:	333c      	adds	r3, #60	@ 0x3c
    101c:	681b      	ldr	r3, [r3, #0]
    101e:	461a      	mov	r2, r3
    1020:	78fb      	ldrb	r3, [r7, #3]
    1022:	4619      	mov	r1, r3
    1024:	483e      	ldr	r0, [pc, #248]	@ (1120 <USERUARTIntHandler+0x140>)
    1026:	4790      	blx	r2

        /* Toggle PF4 LED on each received byte */
        static uint8_t led = 0;
        led = !led;
    1028:	4b3e      	ldr	r3, [pc, #248]	@ (1124 <USERUARTIntHandler+0x144>)
    102a:	781b      	ldrb	r3, [r3, #0]
    102c:	2b00      	cmp	r3, #0
    102e:	bf0c      	ite	eq
    1030:	2301      	moveq	r3, #1
    1032:	2300      	movne	r3, #0
    1034:	b2db      	uxtb	r3, r3
    1036:	461a      	mov	r2, r3
    1038:	4b3a      	ldr	r3, [pc, #232]	@ (1124 <USERUARTIntHandler+0x144>)
    103a:	701a      	strb	r2, [r3, #0]
        ROM_GPIOPinWrite(GPIO_PORTF_BASE, GPIO_PIN_4, led ? GPIO_PIN_4 : 0);
    103c:	4b3a      	ldr	r3, [pc, #232]	@ (1128 <USERUARTIntHandler+0x148>)
    103e:	681b      	ldr	r3, [r3, #0]
    1040:	681b      	ldr	r3, [r3, #0]
    1042:	461c      	mov	r4, r3
    1044:	4b37      	ldr	r3, [pc, #220]	@ (1124 <USERUARTIntHandler+0x144>)
    1046:	781b      	ldrb	r3, [r3, #0]
    1048:	2b00      	cmp	r3, #0
    104a:	d001      	beq.n	1050 <USERUARTIntHandler+0x70>
    104c:	2310      	movs	r3, #16
    104e:	e000      	b.n	1052 <USERUARTIntHandler+0x72>
    1050:	2300      	movs	r3, #0
    1052:	461a      	mov	r2, r3
    1054:	2110      	movs	r1, #16
    1056:	4835      	ldr	r0, [pc, #212]	@ (112c <USERUARTIntHandler+0x14c>)
    1058:	47a0      	blx	r4

        if (user_cmd_ready) continue;
    105a:	4b35      	ldr	r3, [pc, #212]	@ (1130 <USERUARTIntHandler+0x150>)
    105c:	781b      	ldrb	r3, [r3, #0]
    105e:	b2db      	uxtb	r3, r3
    1060:	2b00      	cmp	r3, #0
    1062:	d14b      	bne.n	10fc <USERUARTIntHandler+0x11c>

        if ((char)c == '\r' || (char)c == '\n') {
    1064:	78fb      	ldrb	r3, [r7, #3]
    1066:	2b0d      	cmp	r3, #13
    1068:	d002      	beq.n	1070 <USERUARTIntHandler+0x90>
    106a:	78fb      	ldrb	r3, [r7, #3]
    106c:	2b0a      	cmp	r3, #10
    106e:	d120      	bne.n	10b2 <USERUARTIntHandler+0xd2>

            if (user_rx_len > 0) {
    1070:	4b30      	ldr	r3, [pc, #192]	@ (1134 <USERUARTIntHandler+0x154>)
    1072:	681b      	ldr	r3, [r3, #0]
    1074:	2b00      	cmp	r3, #0
    1076:	d008      	beq.n	108a <USERUARTIntHandler+0xaa>
                user_rx_buf[user_rx_len] = '\0';
    1078:	4b2e      	ldr	r3, [pc, #184]	@ (1134 <USERUARTIntHandler+0x154>)
    107a:	681b      	ldr	r3, [r3, #0]
    107c:	4a2e      	ldr	r2, [pc, #184]	@ (1138 <USERUARTIntHandler+0x158>)
    107e:	2100      	movs	r1, #0
    1080:	54d1      	strb	r1, [r2, r3]
                user_cmd_ready = true;
    1082:	4b2b      	ldr	r3, [pc, #172]	@ (1130 <USERUARTIntHandler+0x150>)
    1084:	2201      	movs	r2, #1
    1086:	701a      	strb	r2, [r3, #0]
            if (user_rx_len > 0) {
    1088:	e039      	b.n	10fe <USERUARTIntHandler+0x11e>
            } else {
                /* Empty line - reprint prompt */
                const char *p = "\r\n> ";
    108a:	4b2c      	ldr	r3, [pc, #176]	@ (113c <USERUARTIntHandler+0x15c>)
    108c:	60fb      	str	r3, [r7, #12]
                while (*p) ROM_UARTCharPutNonBlocking(UART3_BASE, *p++);
    108e:	e00b      	b.n	10a8 <USERUARTIntHandler+0xc8>
    1090:	4b22      	ldr	r3, [pc, #136]	@ (111c <USERUARTIntHandler+0x13c>)
    1092:	681b      	ldr	r3, [r3, #0]
    1094:	333c      	adds	r3, #60	@ 0x3c
    1096:	681b      	ldr	r3, [r3, #0]
    1098:	461c      	mov	r4, r3
    109a:	68fb      	ldr	r3, [r7, #12]
    109c:	1c5a      	adds	r2, r3, #1
    109e:	60fa      	str	r2, [r7, #12]
    10a0:	781b      	ldrb	r3, [r3, #0]
    10a2:	4619      	mov	r1, r3
    10a4:	481e      	ldr	r0, [pc, #120]	@ (1120 <USERUARTIntHandler+0x140>)
    10a6:	47a0      	blx	r4
    10a8:	68fb      	ldr	r3, [r7, #12]
    10aa:	781b      	ldrb	r3, [r3, #0]
    10ac:	2b00      	cmp	r3, #0
    10ae:	d1ef      	bne.n	1090 <USERUARTIntHandler+0xb0>
            if (user_rx_len > 0) {
    10b0:	e025      	b.n	10fe <USERUARTIntHandler+0x11e>
            }

        } else {
            if (user_rx_len + 1 < UART_RX_BUF_SIZE) {
    10b2:	4b20      	ldr	r3, [pc, #128]	@ (1134 <USERUARTIntHandler+0x154>)
    10b4:	681b      	ldr	r3, [r3, #0]
    10b6:	3301      	adds	r3, #1
    10b8:	2b3f      	cmp	r3, #63	@ 0x3f
    10ba:	d808      	bhi.n	10ce <USERUARTIntHandler+0xee>
                user_rx_buf[user_rx_len++] = (char)c;
    10bc:	4b1d      	ldr	r3, [pc, #116]	@ (1134 <USERUARTIntHandler+0x154>)
    10be:	681b      	ldr	r3, [r3, #0]
    10c0:	1c5a      	adds	r2, r3, #1
    10c2:	491c      	ldr	r1, [pc, #112]	@ (1134 <USERUARTIntHandler+0x154>)
    10c4:	600a      	str	r2, [r1, #0]
    10c6:	491c      	ldr	r1, [pc, #112]	@ (1138 <USERUARTIntHandler+0x158>)
    10c8:	78fa      	ldrb	r2, [r7, #3]
    10ca:	54ca      	strb	r2, [r1, r3]
    10cc:	e017      	b.n	10fe <USERUARTIntHandler+0x11e>
            } else {
                /* Overflow - reset */
                user_rx_len = 0;
    10ce:	4b19      	ldr	r3, [pc, #100]	@ (1134 <USERUARTIntHandler+0x154>)
    10d0:	2200      	movs	r2, #0
    10d2:	601a      	str	r2, [r3, #0]
                const char *err = "\r\nERROR: line too long\r\n> ";
    10d4:	4b1a      	ldr	r3, [pc, #104]	@ (1140 <USERUARTIntHandler+0x160>)
    10d6:	60bb      	str	r3, [r7, #8]
                while (*err) ROM_UARTCharPutNonBlocking(UART3_BASE, *err++);
    10d8:	e00b      	b.n	10f2 <USERUARTIntHandler+0x112>
    10da:	4b10      	ldr	r3, [pc, #64]	@ (111c <USERUARTIntHandler+0x13c>)
    10dc:	681b      	ldr	r3, [r3, #0]
    10de:	333c      	adds	r3, #60	@ 0x3c
    10e0:	681b      	ldr	r3, [r3, #0]
    10e2:	461c      	mov	r4, r3
    10e4:	68bb      	ldr	r3, [r7, #8]
    10e6:	1c5a      	adds	r2, r3, #1
    10e8:	60ba      	str	r2, [r7, #8]
    10ea:	781b      	ldrb	r3, [r3, #0]
    10ec:	4619      	mov	r1, r3
    10ee:	480c      	ldr	r0, [pc, #48]	@ (1120 <USERUARTIntHandler+0x140>)
    10f0:	47a0      	blx	r4
    10f2:	68bb      	ldr	r3, [r7, #8]
    10f4:	781b      	ldrb	r3, [r3, #0]
    10f6:	2b00      	cmp	r3, #0
    10f8:	d1ef      	bne.n	10da <USERUARTIntHandler+0xfa>
    10fa:	e000      	b.n	10fe <USERUARTIntHandler+0x11e>
        if (user_cmd_ready) continue;
    10fc:	bf00      	nop
    while (ROM_UARTCharsAvail(UART3_BASE)) {
    10fe:	4b07      	ldr	r3, [pc, #28]	@ (111c <USERUARTIntHandler+0x13c>)
    1100:	681b      	ldr	r3, [r3, #0]
    1102:	332c      	adds	r3, #44	@ 0x2c
    1104:	681b      	ldr	r3, [r3, #0]
    1106:	4806      	ldr	r0, [pc, #24]	@ (1120 <USERUARTIntHandler+0x140>)
    1108:	4798      	blx	r3
    110a:	4603      	mov	r3, r0
    110c:	2b00      	cmp	r3, #0
    110e:	f47f af7a 	bne.w	1006 <USERUARTIntHandler+0x26>
            }
        }
    }

}
    1112:	bf00      	nop
    1114:	bf00      	nop
    1116:	3714      	adds	r7, #20
    1118:	46bd      	mov	sp, r7
    111a:	bd90      	pop	{r4, r7, pc}
    111c:	01000014 	.word	0x01000014
    1120:	4000f000 	.word	0x4000f000
    1124:	20000179 	.word	0x20000179
    1128:	01000020 	.word	0x01000020
    112c:	40025000 	.word	0x40025000
    1130:	20000178 	.word	0x20000178
    1134:	20000174 	.word	0x20000174
    1138:	20000134 	.word	0x20000134
    113c:	000032f4 	.word	0x000032f4
    1140:	000032fc 	.word	0x000032fc

00001144 <process_user_line>:


/* Command processing - exactly as in your pwm.c */
static void process_user_line(const char *line)
{
    1144:	b580      	push	{r7, lr}
    1146:	b098      	sub	sp, #96	@ 0x60
    1148:	af00      	add	r7, sp, #0
    114a:	6078      	str	r0, [r7, #4]
    /* Skip leading spaces */
    while (*line && my_isspace((unsigned char)*line)) line++;
    114c:	e002      	b.n	1154 <process_user_line+0x10>
    114e:	687b      	ldr	r3, [r7, #4]
    1150:	3301      	adds	r3, #1
    1152:	607b      	str	r3, [r7, #4]
    1154:	687b      	ldr	r3, [r7, #4]
    1156:	781b      	ldrb	r3, [r3, #0]
    1158:	2b00      	cmp	r3, #0
    115a:	d007      	beq.n	116c <process_user_line+0x28>
    115c:	687b      	ldr	r3, [r7, #4]
    115e:	781b      	ldrb	r3, [r3, #0]
    1160:	4618      	mov	r0, r3
    1162:	f7ff febb 	bl	edc <my_isspace>
    1166:	4603      	mov	r3, r0
    1168:	2b00      	cmp	r3, #0
    116a:	d1f0      	bne.n	114e <process_user_line+0xa>

    char buf[UART_RX_BUF_SIZE];
    strncpy(buf, line, sizeof(buf) - 1);
    116c:	f107 0310 	add.w	r3, r7, #16
    1170:	223f      	movs	r2, #63	@ 0x3f
    1172:	6879      	ldr	r1, [r7, #4]
    1174:	4618      	mov	r0, r3
    1176:	f001 f83b 	bl	21f0 <strncpy>
    buf[sizeof(buf) - 1] = '\0';
    117a:	2300      	movs	r3, #0
    117c:	f887 304f 	strb.w	r3, [r7, #79]	@ 0x4f

    char *saveptr = NULL;
    1180:	2300      	movs	r3, #0
    1182:	60fb      	str	r3, [r7, #12]
    char *tok = strtok_r(buf, " \t", &saveptr);
    1184:	f107 020c 	add.w	r2, r7, #12
    1188:	f107 0310 	add.w	r3, r7, #16
    118c:	4931      	ldr	r1, [pc, #196]	@ (1254 <process_user_line+0x110>)
    118e:	4618      	mov	r0, r3
    1190:	f001 fa8e 	bl	26b0 <strtok_r>
    1194:	65b8      	str	r0, [r7, #88]	@ 0x58
    if (!tok) {
    1196:	6dbb      	ldr	r3, [r7, #88]	@ 0x58
    1198:	2b00      	cmp	r3, #0
    119a:	d105      	bne.n	11a8 <process_user_line+0x64>
        UARTSend((const uint8_t *)"\r\n> ", 4, UARTDEV_USER);
    119c:	2201      	movs	r2, #1
    119e:	2104      	movs	r1, #4
    11a0:	482d      	ldr	r0, [pc, #180]	@ (1258 <process_user_line+0x114>)
    11a2:	f7ff f82d 	bl	200 <UARTSend>
        return;
    11a6:	e052      	b.n	124e <process_user_line+0x10a>
    }

    /* Case-insensitive PSYN */
    for (char *p = tok; *p; ++p) *p = (char)my_toupper((unsigned char)*p);
    11a8:	6dbb      	ldr	r3, [r7, #88]	@ 0x58
    11aa:	65fb      	str	r3, [r7, #92]	@ 0x5c
    11ac:	e00b      	b.n	11c6 <process_user_line+0x82>
    11ae:	6dfb      	ldr	r3, [r7, #92]	@ 0x5c
    11b0:	781b      	ldrb	r3, [r3, #0]
    11b2:	4618      	mov	r0, r3
    11b4:	f7ff feb1 	bl	f1a <my_toupper>
    11b8:	4603      	mov	r3, r0
    11ba:	b2da      	uxtb	r2, r3
    11bc:	6dfb      	ldr	r3, [r7, #92]	@ 0x5c
    11be:	701a      	strb	r2, [r3, #0]
    11c0:	6dfb      	ldr	r3, [r7, #92]	@ 0x5c
    11c2:	3301      	adds	r3, #1
    11c4:	65fb      	str	r3, [r7, #92]	@ 0x5c
    11c6:	6dfb      	ldr	r3, [r7, #92]	@ 0x5c
    11c8:	781b      	ldrb	r3, [r3, #0]
    11ca:	2b00      	cmp	r3, #0
    11cc:	d1ef      	bne.n	11ae <process_user_line+0x6a>

    if (strcmp(tok, "PSYN") == 0) {
    11ce:	4923      	ldr	r1, [pc, #140]	@ (125c <process_user_line+0x118>)
    11d0:	6db8      	ldr	r0, [r7, #88]	@ 0x58
    11d2:	f001 f8c5 	bl	2360 <strcmp>
    11d6:	4603      	mov	r3, r0
    11d8:	2b00      	cmp	r3, #0
    11da:	d133      	bne.n	1244 <process_user_line+0x100>
        char *numtok = strtok_r(NULL, " \t", &saveptr);
    11dc:	f107 030c 	add.w	r3, r7, #12
    11e0:	461a      	mov	r2, r3
    11e2:	491c      	ldr	r1, [pc, #112]	@ (1254 <process_user_line+0x110>)
    11e4:	2000      	movs	r0, #0
    11e6:	f001 fa63 	bl	26b0 <strtok_r>
    11ea:	6578      	str	r0, [r7, #84]	@ 0x54
        if (!numtok) {
    11ec:	6d7b      	ldr	r3, [r7, #84]	@ 0x54
    11ee:	2b00      	cmp	r3, #0
    11f0:	d105      	bne.n	11fe <process_user_line+0xba>
            UARTSend((const uint8_t *)"\r\nERROR: missing value. Use: PSYN n  (n=5..96)\r\n> ", 51, UARTDEV_USER);
    11f2:	2201      	movs	r2, #1
    11f4:	2133      	movs	r1, #51	@ 0x33
    11f6:	481a      	ldr	r0, [pc, #104]	@ (1260 <process_user_line+0x11c>)
    11f8:	f7ff f802 	bl	200 <UARTSend>
            return;
    11fc:	e027      	b.n	124e <process_user_line+0x10a>
        }

        char *endptr;
        long val = strtol(numtok, &endptr, 10);
    11fe:	f107 0308 	add.w	r3, r7, #8
    1202:	220a      	movs	r2, #10
    1204:	4619      	mov	r1, r3
    1206:	6d78      	ldr	r0, [r7, #84]	@ 0x54
    1208:	f001 fb00 	bl	280c <strtol>
    120c:	6538      	str	r0, [r7, #80]	@ 0x50
        if (*endptr != '\0') {
    120e:	68bb      	ldr	r3, [r7, #8]
    1210:	781b      	ldrb	r3, [r3, #0]
    1212:	2b00      	cmp	r3, #0
    1214:	d005      	beq.n	1222 <process_user_line+0xde>
            UARTSend((const uint8_t *)"\r\nERROR: invalid number. Use: PSYN n\r\n> ", 41, UARTDEV_USER);
    1216:	2201      	movs	r2, #1
    1218:	2129      	movs	r1, #41	@ 0x29
    121a:	4812      	ldr	r0, [pc, #72]	@ (1264 <process_user_line+0x120>)
    121c:	f7fe fff0 	bl	200 <UARTSend>
            return;
    1220:	e015      	b.n	124e <process_user_line+0x10a>
        }
        if (val < PSYN_MIN || val > PSYN_MAX) {
    1222:	6d3b      	ldr	r3, [r7, #80]	@ 0x50
    1224:	2b04      	cmp	r3, #4
    1226:	dd02      	ble.n	122e <process_user_line+0xea>
    1228:	6d3b      	ldr	r3, [r7, #80]	@ 0x50
    122a:	2b60      	cmp	r3, #96	@ 0x60
    122c:	dd05      	ble.n	123a <process_user_line+0xf6>
            UARTSend((const uint8_t *)"\r\nERROR: value out of range (5..96)\r\n> ", 41, UARTDEV_USER);
    122e:	2201      	movs	r2, #1
    1230:	2129      	movs	r1, #41	@ 0x29
    1232:	480d      	ldr	r0, [pc, #52]	@ (1268 <process_user_line+0x124>)
    1234:	f7fe ffe4 	bl	200 <UARTSend>
            return;
    1238:	e009      	b.n	124e <process_user_line+0x10a>
        }

        /* Valid - update PWM using YOUR working function */
        set_pwm_percent((uint32_t)val);
    123a:	6d3b      	ldr	r3, [r7, #80]	@ 0x50
    123c:	4618      	mov	r0, r3
    123e:	f000 f817 	bl	1270 <set_pwm_percent>
    1242:	e004      	b.n	124e <process_user_line+0x10a>

        //UARTSend((const uint8_t *)ack, (uint32_t)n, UARTDEV_USER);

    } else {

        UARTSend((const uint8_t *)"\r\nERROR: unknown command. Use: PSYN n\r\n> ", 43, UARTDEV_USER);
    1244:	2201      	movs	r2, #1
    1246:	212b      	movs	r1, #43	@ 0x2b
    1248:	4808      	ldr	r0, [pc, #32]	@ (126c <process_user_line+0x128>)
    124a:	f7fe ffd9 	bl	200 <UARTSend>
    }

}
    124e:	3760      	adds	r7, #96	@ 0x60
    1250:	46bd      	mov	sp, r7
    1252:	bd80      	pop	{r7, pc}
    1254:	00003318 	.word	0x00003318
    1258:	000032f4 	.word	0x000032f4
    125c:	0000331c 	.word	0x0000331c
    1260:	00003324 	.word	0x00003324
    1264:	00003358 	.word	0x00003358
    1268:	00003384 	.word	0x00003384
    126c:	000033ac 	.word	0x000033ac

00001270 <set_pwm_percent>:


/* PWM update - EXACTLY as in your working pwm.c (NO disable/enable!) */
static void set_pwm_percent(uint32_t percent)
{
    1270:	e92d 43b0 	stmdb	sp!, {r4, r5, r7, r8, r9, lr}
    1274:	b084      	sub	sp, #16
    1276:	af00      	add	r7, sp, #0
    1278:	6078      	str	r0, [r7, #4]
    if (percent > 100) percent = 100;
    127a:	6879      	ldr	r1, [r7, #4]
    127c:	2964      	cmp	r1, #100	@ 0x64
    127e:	d901      	bls.n	1284 <set_pwm_percent+0x14>
    1280:	2164      	movs	r1, #100	@ 0x64
    1282:	6079      	str	r1, [r7, #4]
    uint32_t pulse = (uint32_t)(((uint64_t)g_pwmPeriod * percent) / 100U);
    1284:	491c      	ldr	r1, [pc, #112]	@ (12f8 <set_pwm_percent+0x88>)
    1286:	6809      	ldr	r1, [r1, #0]
    1288:	2000      	movs	r0, #0
    128a:	4688      	mov	r8, r1
    128c:	4681      	mov	r9, r0
    128e:	6879      	ldr	r1, [r7, #4]
    1290:	2000      	movs	r0, #0
    1292:	460a      	mov	r2, r1
    1294:	4603      	mov	r3, r0
    1296:	fb02 f009 	mul.w	r0, r2, r9
    129a:	fb08 f103 	mul.w	r1, r8, r3
    129e:	4401      	add	r1, r0
    12a0:	fba8 4502 	umull	r4, r5, r8, r2
    12a4:	194b      	adds	r3, r1, r5
    12a6:	461d      	mov	r5, r3
    12a8:	f04f 0264 	mov.w	r2, #100	@ 0x64
    12ac:	f04f 0300 	mov.w	r3, #0
    12b0:	4620      	mov	r0, r4
    12b2:	4629      	mov	r1, r5
    12b4:	f001 fb50 	bl	2958 <__aeabi_uldivmod>
    12b8:	4602      	mov	r2, r0
    12ba:	460b      	mov	r3, r1
    12bc:	4613      	mov	r3, r2
    12be:	60fb      	str	r3, [r7, #12]
    if (pulse >= g_pwmPeriod) pulse = g_pwmPeriod - 1;
    12c0:	4b0d      	ldr	r3, [pc, #52]	@ (12f8 <set_pwm_percent+0x88>)
    12c2:	681b      	ldr	r3, [r3, #0]
    12c4:	68fa      	ldr	r2, [r7, #12]
    12c6:	429a      	cmp	r2, r3
    12c8:	d303      	bcc.n	12d2 <set_pwm_percent+0x62>
    12ca:	4b0b      	ldr	r3, [pc, #44]	@ (12f8 <set_pwm_percent+0x88>)
    12cc:	681b      	ldr	r3, [r3, #0]
    12ce:	3b01      	subs	r3, #1
    12d0:	60fb      	str	r3, [r7, #12]
    if (pulse == 0) pulse = 1;
    12d2:	68fb      	ldr	r3, [r7, #12]
    12d4:	2b00      	cmp	r3, #0
    12d6:	d101      	bne.n	12dc <set_pwm_percent+0x6c>
    12d8:	2301      	movs	r3, #1
    12da:	60fb      	str	r3, [r7, #12]

    /* ONLY set pulse width - no disable/enable */
    PWMPulseWidthSet(PWM0_BASE, PWM_OUT_2, pulse);
    12dc:	68fa      	ldr	r2, [r7, #12]
    12de:	2182      	movs	r1, #130	@ 0x82
    12e0:	4806      	ldr	r0, [pc, #24]	@ (12fc <set_pwm_percent+0x8c>)
    12e2:	f000 fde9 	bl	1eb8 <PWMPulseWidthSet>
    g_pwmPulse = pulse;
    12e6:	4a06      	ldr	r2, [pc, #24]	@ (1300 <set_pwm_percent+0x90>)
    12e8:	68fb      	ldr	r3, [r7, #12]
    12ea:	6013      	str	r3, [r2, #0]
}
    12ec:	bf00      	nop
    12ee:	3710      	adds	r7, #16
    12f0:	46bd      	mov	sp, r7
    12f2:	e8bd 83b0 	ldmia.w	sp!, {r4, r5, r7, r8, r9, pc}
    12f6:	bf00      	nop
    12f8:	2000012c 	.word	0x2000012c
    12fc:	40028000 	.word	0x40028000
    1300:	20000130 	.word	0x20000130

00001304 <setup_pwm_pf2>:


/* PWM setup - EXACTLY as in your working pwm.c */
static void setup_pwm_pf2(void)
{
    1304:	e92d 4fb0 	stmdb	sp!, {r4, r5, r7, r8, r9, sl, fp, lr}
    1308:	b084      	sub	sp, #16
    130a:	af00      	add	r7, sp, #0
    SysCtlPeripheralEnable(SYSCTL_PERIPH_PWM0);
    130c:	4848      	ldr	r0, [pc, #288]	@ (1430 <setup_pwm_pf2+0x12c>)
    130e:	f000 fe39 	bl	1f84 <SysCtlPeripheralEnable>
    SysCtlPeripheralEnable(SYSCTL_PERIPH_GPIOF);
    1312:	4848      	ldr	r0, [pc, #288]	@ (1434 <setup_pwm_pf2+0x130>)
    1314:	f000 fe36 	bl	1f84 <SysCtlPeripheralEnable>

    while (!SysCtlPeripheralReady(SYSCTL_PERIPH_PWM0)) { }
    1318:	bf00      	nop
    131a:	4845      	ldr	r0, [pc, #276]	@ (1430 <setup_pwm_pf2+0x12c>)
    131c:	f000 fe20 	bl	1f60 <SysCtlPeripheralReady>
    1320:	4603      	mov	r3, r0
    1322:	f083 0301 	eor.w	r3, r3, #1
    1326:	b2db      	uxtb	r3, r3
    1328:	2b00      	cmp	r3, #0
    132a:	d1f6      	bne.n	131a <setup_pwm_pf2+0x16>
    while (!SysCtlPeripheralReady(SYSCTL_PERIPH_GPIOF)) { }
    132c:	bf00      	nop
    132e:	4841      	ldr	r0, [pc, #260]	@ (1434 <setup_pwm_pf2+0x130>)
    1330:	f000 fe16 	bl	1f60 <SysCtlPeripheralReady>
    1334:	4603      	mov	r3, r0
    1336:	f083 0301 	eor.w	r3, r3, #1
    133a:	b2db      	uxtb	r3, r3
    133c:	2b00      	cmp	r3, #0
    133e:	d1f6      	bne.n	132e <setup_pwm_pf2+0x2a>

    GPIOPinConfigure(GPIO_PF2_M0PWM2);
    1340:	483d      	ldr	r0, [pc, #244]	@ (1438 <setup_pwm_pf2+0x134>)
    1342:	f000 fd75 	bl	1e30 <GPIOPinConfigure>
    GPIOPinTypePWM(GPIO_PORTF_BASE, GPIO_PIN_2);
    1346:	2104      	movs	r1, #4
    1348:	483c      	ldr	r0, [pc, #240]	@ (143c <setup_pwm_pf2+0x138>)
    134a:	f000 fd6e 	bl	1e2a <GPIOPinTypePWM>

    PWMClockSet(PWM0_BASE, PWM_SYSCLK_DIV_1);
    134e:	2100      	movs	r1, #0
    1350:	483b      	ldr	r0, [pc, #236]	@ (1440 <setup_pwm_pf2+0x13c>)
    1352:	f000 fdc8 	bl	1ee6 <PWMClockSet>

    uint32_t pwmClock = g_ui32SysClock;
    1356:	4b3b      	ldr	r3, [pc, #236]	@ (1444 <setup_pwm_pf2+0x140>)
    1358:	681b      	ldr	r3, [r3, #0]
    135a:	607b      	str	r3, [r7, #4]
    uint32_t period = (pwmClock + (TARGET_PWM_FREQ_HZ / 2U)) / TARGET_PWM_FREQ_HZ;
    135c:	687b      	ldr	r3, [r7, #4]
    135e:	f503 5327 	add.w	r3, r3, #10688	@ 0x29c0
    1362:	333e      	adds	r3, #62	@ 0x3e
    1364:	4a38      	ldr	r2, [pc, #224]	@ (1448 <setup_pwm_pf2+0x144>)
    1366:	fba2 2303 	umull	r2, r3, r2, r3
    136a:	0b5b      	lsrs	r3, r3, #13
    136c:	60fb      	str	r3, [r7, #12]
    if (period == 0) period = 1;
    136e:	68fb      	ldr	r3, [r7, #12]
    1370:	2b00      	cmp	r3, #0
    1372:	d101      	bne.n	1378 <setup_pwm_pf2+0x74>
    1374:	2301      	movs	r3, #1
    1376:	60fb      	str	r3, [r7, #12]
    if (period > 0xFFFF) period = 0xFFFF;
    1378:	68fb      	ldr	r3, [r7, #12]
    137a:	f5b3 3f80 	cmp.w	r3, #65536	@ 0x10000
    137e:	d302      	bcc.n	1386 <setup_pwm_pf2+0x82>
    1380:	f64f 73ff 	movw	r3, #65535	@ 0xffff
    1384:	60fb      	str	r3, [r7, #12]

    g_pwmPeriod = period;
    1386:	4a31      	ldr	r2, [pc, #196]	@ (144c <setup_pwm_pf2+0x148>)
    1388:	68fb      	ldr	r3, [r7, #12]
    138a:	6013      	str	r3, [r2, #0]

    uint32_t init_pulse = (uint32_t)(((uint64_t)period * TARGET_DUTY_PERCENT_INIT) / 100U);
    138c:	68fb      	ldr	r3, [r7, #12]
    138e:	2200      	movs	r2, #0
    1390:	4698      	mov	r8, r3
    1392:	4691      	mov	r9, r2
    1394:	4642      	mov	r2, r8
    1396:	464b      	mov	r3, r9
    1398:	f04f 0000 	mov.w	r0, #0
    139c:	f04f 0100 	mov.w	r1, #0
    13a0:	0119      	lsls	r1, r3, #4
    13a2:	ea41 7112 	orr.w	r1, r1, r2, lsr #28
    13a6:	0110      	lsls	r0, r2, #4
    13a8:	4602      	mov	r2, r0
    13aa:	460b      	mov	r3, r1
    13ac:	ebb2 0408 	subs.w	r4, r2, r8
    13b0:	eb63 0509 	sbc.w	r5, r3, r9
    13b4:	eb14 0a04 	adds.w	sl, r4, r4
    13b8:	eb45 0b05 	adc.w	fp, r5, r5
    13bc:	4654      	mov	r4, sl
    13be:	465d      	mov	r5, fp
    13c0:	4620      	mov	r0, r4
    13c2:	4629      	mov	r1, r5
    13c4:	f04f 0264 	mov.w	r2, #100	@ 0x64
    13c8:	f04f 0300 	mov.w	r3, #0
    13cc:	f001 fac4 	bl	2958 <__aeabi_uldivmod>
    13d0:	4602      	mov	r2, r0
    13d2:	460b      	mov	r3, r1
    13d4:	4613      	mov	r3, r2
    13d6:	60bb      	str	r3, [r7, #8]
    if (init_pulse >= period) init_pulse = period - 1;
    13d8:	68ba      	ldr	r2, [r7, #8]
    13da:	68fb      	ldr	r3, [r7, #12]
    13dc:	429a      	cmp	r2, r3
    13de:	d302      	bcc.n	13e6 <setup_pwm_pf2+0xe2>
    13e0:	68fb      	ldr	r3, [r7, #12]
    13e2:	3b01      	subs	r3, #1
    13e4:	60bb      	str	r3, [r7, #8]
    if (init_pulse == 0) init_pulse = 1;
    13e6:	68bb      	ldr	r3, [r7, #8]
    13e8:	2b00      	cmp	r3, #0
    13ea:	d101      	bne.n	13f0 <setup_pwm_pf2+0xec>
    13ec:	2301      	movs	r3, #1
    13ee:	60bb      	str	r3, [r7, #8]
    g_pwmPulse = init_pulse;
    13f0:	4a17      	ldr	r2, [pc, #92]	@ (1450 <setup_pwm_pf2+0x14c>)
    13f2:	68bb      	ldr	r3, [r7, #8]
    13f4:	6013      	str	r3, [r2, #0]

    PWMGenConfigure(PWM0_BASE, PWM_GEN_1, PWM_GEN_MODE_DOWN | PWM_GEN_MODE_NO_SYNC);
    13f6:	2200      	movs	r2, #0
    13f8:	2180      	movs	r1, #128	@ 0x80
    13fa:	4811      	ldr	r0, [pc, #68]	@ (1440 <setup_pwm_pf2+0x13c>)
    13fc:	f000 fd3a 	bl	1e74 <PWMGenConfigure>
    PWMGenPeriodSet(PWM0_BASE, PWM_GEN_1, period);
    1400:	68fa      	ldr	r2, [r7, #12]
    1402:	2180      	movs	r1, #128	@ 0x80
    1404:	480e      	ldr	r0, [pc, #56]	@ (1440 <setup_pwm_pf2+0x13c>)
    1406:	f000 fd49 	bl	1e9c <PWMGenPeriodSet>
    PWMPulseWidthSet(PWM0_BASE, PWM_OUT_2, init_pulse);
    140a:	68ba      	ldr	r2, [r7, #8]
    140c:	2182      	movs	r1, #130	@ 0x82
    140e:	480c      	ldr	r0, [pc, #48]	@ (1440 <setup_pwm_pf2+0x13c>)
    1410:	f000 fd52 	bl	1eb8 <PWMPulseWidthSet>
    PWMOutputState(PWM0_BASE, PWM_OUT_2_BIT, true);
    1414:	2201      	movs	r2, #1
    1416:	2104      	movs	r1, #4
    1418:	4809      	ldr	r0, [pc, #36]	@ (1440 <setup_pwm_pf2+0x13c>)
    141a:	f000 fd5c 	bl	1ed6 <PWMOutputState>
    PWMGenEnable(PWM0_BASE, PWM_GEN_1);
    141e:	2180      	movs	r1, #128	@ 0x80
    1420:	4807      	ldr	r0, [pc, #28]	@ (1440 <setup_pwm_pf2+0x13c>)
    1422:	f000 fd44 	bl	1eae <PWMGenEnable>
}
    1426:	bf00      	nop
    1428:	3710      	adds	r7, #16
    142a:	46bd      	mov	sp, r7
    142c:	e8bd 8fb0 	ldmia.w	sp!, {r4, r5, r7, r8, r9, sl, fp, pc}
    1430:	f0004000 	.word	0xf0004000
    1434:	f0000805 	.word	0xf0000805
    1438:	00050806 	.word	0x00050806
    143c:	40025000 	.word	0x40025000
    1440:	40028000 	.word	0x40028000
    1444:	20000128 	.word	0x20000128
    1448:	618abd77 	.word	0x618abd77
    144c:	2000012c 	.word	0x2000012c
    1450:	20000130 	.word	0x20000130

00001454 <setup_system_clock>:


static void setup_system_clock(void)
{
    1454:	b580      	push	{r7, lr}
    1456:	af00      	add	r7, sp, #0
    g_ui32SysClock = MAP_SysCtlClockFreqSet((SYSCTL_XTAL_25MHZ |
    1458:	4904      	ldr	r1, [pc, #16]	@ (146c <setup_system_clock+0x18>)
    145a:	4805      	ldr	r0, [pc, #20]	@ (1470 <setup_system_clock+0x1c>)
    145c:	f000 fda6 	bl	1fac <SysCtlClockFreqSet>
    1460:	4603      	mov	r3, r0
    1462:	4a04      	ldr	r2, [pc, #16]	@ (1474 <setup_system_clock+0x20>)
    1464:	6013      	str	r3, [r2, #0]
                                             SYSCTL_OSC_MAIN |
                                             SYSCTL_USE_PLL |
                                             SYSCTL_CFG_VCO_480), 120000000);
}
    1466:	bf00      	nop
    1468:	bd80      	pop	{r7, pc}
    146a:	bf00      	nop
    146c:	07270e00 	.word	0x07270e00
    1470:	f1000680 	.word	0xf1000680
    1474:	20000128 	.word	0x20000128

00001478 <setup_uarts>:


static void setup_uarts(void)
{
    1478:	b598      	push	{r3, r4, r7, lr}
    147a:	af00      	add	r7, sp, #0
    MAP_SysCtlPeripheralEnable(SYSCTL_PERIPH_UART0);
    147c:	4b4b      	ldr	r3, [pc, #300]	@ (15ac <setup_uarts+0x134>)
    147e:	681b      	ldr	r3, [r3, #0]
    1480:	3318      	adds	r3, #24
    1482:	681b      	ldr	r3, [r3, #0]
    1484:	484a      	ldr	r0, [pc, #296]	@ (15b0 <setup_uarts+0x138>)
    1486:	4798      	blx	r3
    MAP_SysCtlPeripheralEnable(SYSCTL_PERIPH_UART3);
    1488:	4b48      	ldr	r3, [pc, #288]	@ (15ac <setup_uarts+0x134>)
    148a:	681b      	ldr	r3, [r3, #0]
    148c:	3318      	adds	r3, #24
    148e:	681b      	ldr	r3, [r3, #0]
    1490:	4848      	ldr	r0, [pc, #288]	@ (15b4 <setup_uarts+0x13c>)
    1492:	4798      	blx	r3
    MAP_SysCtlPeripheralEnable(SYSCTL_PERIPH_GPIOA);
    1494:	4b45      	ldr	r3, [pc, #276]	@ (15ac <setup_uarts+0x134>)
    1496:	681b      	ldr	r3, [r3, #0]
    1498:	3318      	adds	r3, #24
    149a:	681b      	ldr	r3, [r3, #0]
    149c:	4846      	ldr	r0, [pc, #280]	@ (15b8 <setup_uarts+0x140>)
    149e:	4798      	blx	r3
    MAP_SysCtlPeripheralEnable(SYSCTL_PERIPH_GPIOJ);
    14a0:	4b42      	ldr	r3, [pc, #264]	@ (15ac <setup_uarts+0x134>)
    14a2:	681b      	ldr	r3, [r3, #0]
    14a4:	3318      	adds	r3, #24
    14a6:	681b      	ldr	r3, [r3, #0]
    14a8:	4844      	ldr	r0, [pc, #272]	@ (15bc <setup_uarts+0x144>)
    14aa:	4798      	blx	r3
    MAP_SysCtlPeripheralEnable(SYSCTL_PERIPH_GPION);
    14ac:	4b3f      	ldr	r3, [pc, #252]	@ (15ac <setup_uarts+0x134>)
    14ae:	681b      	ldr	r3, [r3, #0]
    14b0:	3318      	adds	r3, #24
    14b2:	681b      	ldr	r3, [r3, #0]
    14b4:	4842      	ldr	r0, [pc, #264]	@ (15c0 <setup_uarts+0x148>)
    14b6:	4798      	blx	r3
    MAP_SysCtlPeripheralEnable(SYSCTL_PERIPH_GPIOQ);
    14b8:	4b3c      	ldr	r3, [pc, #240]	@ (15ac <setup_uarts+0x134>)
    14ba:	681b      	ldr	r3, [r3, #0]
    14bc:	3318      	adds	r3, #24
    14be:	681b      	ldr	r3, [r3, #0]
    14c0:	4840      	ldr	r0, [pc, #256]	@ (15c4 <setup_uarts+0x14c>)
    14c2:	4798      	blx	r3
    MAP_SysCtlPeripheralEnable(SYSCTL_PERIPH_GPIOF);
    14c4:	4b39      	ldr	r3, [pc, #228]	@ (15ac <setup_uarts+0x134>)
    14c6:	681b      	ldr	r3, [r3, #0]
    14c8:	3318      	adds	r3, #24
    14ca:	681b      	ldr	r3, [r3, #0]
    14cc:	483e      	ldr	r0, [pc, #248]	@ (15c8 <setup_uarts+0x150>)
    14ce:	4798      	blx	r3

    GPIOPinConfigure(GPIO_PA0_U0RX);
    14d0:	2001      	movs	r0, #1
    14d2:	f000 fcad 	bl	1e30 <GPIOPinConfigure>
    GPIOPinConfigure(GPIO_PA1_U0TX);
    14d6:	f240 4001 	movw	r0, #1025	@ 0x401
    14da:	f000 fca9 	bl	1e30 <GPIOPinConfigure>
    MAP_GPIOPinTypeUART(GPIO_PORTA_BASE, GPIO_PIN_0 | GPIO_PIN_1);
    14de:	4b3b      	ldr	r3, [pc, #236]	@ (15cc <setup_uarts+0x154>)
    14e0:	681b      	ldr	r3, [r3, #0]
    14e2:	3354      	adds	r3, #84	@ 0x54
    14e4:	681b      	ldr	r3, [r3, #0]
    14e6:	2103      	movs	r1, #3
    14e8:	f04f 2040 	mov.w	r0, #1073758208	@ 0x40004000
    14ec:	4798      	blx	r3

    GPIOPinConfigure(GPIO_PJ0_U3RX);
    14ee:	4838      	ldr	r0, [pc, #224]	@ (15d0 <setup_uarts+0x158>)
    14f0:	f000 fc9e 	bl	1e30 <GPIOPinConfigure>
    GPIOPinConfigure(GPIO_PJ1_U3TX);
    14f4:	4837      	ldr	r0, [pc, #220]	@ (15d4 <setup_uarts+0x15c>)
    14f6:	f000 fc9b 	bl	1e30 <GPIOPinConfigure>
    MAP_GPIOPinTypeUART(GPIO_PORTJ_BASE, GPIO_PIN_0 | GPIO_PIN_1);
    14fa:	4b34      	ldr	r3, [pc, #208]	@ (15cc <setup_uarts+0x154>)
    14fc:	681b      	ldr	r3, [r3, #0]
    14fe:	3354      	adds	r3, #84	@ 0x54
    1500:	681b      	ldr	r3, [r3, #0]
    1502:	2103      	movs	r1, #3
    1504:	4834      	ldr	r0, [pc, #208]	@ (15d8 <setup_uarts+0x160>)
    1506:	4798      	blx	r3

    /* PF4 LED for RX activity */
    ROM_GPIOPinTypeGPIOOutput(GPIO_PORTF_BASE, GPIO_PIN_4);
    1508:	4b30      	ldr	r3, [pc, #192]	@ (15cc <setup_uarts+0x154>)
    150a:	681b      	ldr	r3, [r3, #0]
    150c:	333c      	adds	r3, #60	@ 0x3c
    150e:	681b      	ldr	r3, [r3, #0]
    1510:	2110      	movs	r1, #16
    1512:	4832      	ldr	r0, [pc, #200]	@ (15dc <setup_uarts+0x164>)
    1514:	4798      	blx	r3
    ROM_GPIOPinWrite(GPIO_PORTF_BASE, GPIO_PIN_4, 0);
    1516:	4b2d      	ldr	r3, [pc, #180]	@ (15cc <setup_uarts+0x154>)
    1518:	681b      	ldr	r3, [r3, #0]
    151a:	681b      	ldr	r3, [r3, #0]
    151c:	2200      	movs	r2, #0
    151e:	2110      	movs	r1, #16
    1520:	482e      	ldr	r0, [pc, #184]	@ (15dc <setup_uarts+0x164>)
    1522:	4798      	blx	r3

    /* PQ1 DTR detection */
    GPIOPadConfigSet(GPIO_PORTQ_BASE, GPIO_PIN_1, GPIO_STRENGTH_2MA, GPIO_PIN_TYPE_STD_WPU);
    1524:	230a      	movs	r3, #10
    1526:	2201      	movs	r2, #1
    1528:	2102      	movs	r1, #2
    152a:	482d      	ldr	r0, [pc, #180]	@ (15e0 <setup_uarts+0x168>)
    152c:	f000 fbeb 	bl	1d06 <GPIOPadConfigSet>
    ROM_GPIOPinTypeGPIOInput(GPIO_PORTQ_BASE, GPIO_PIN_1);
    1530:	4b26      	ldr	r3, [pc, #152]	@ (15cc <setup_uarts+0x154>)
    1532:	681b      	ldr	r3, [r3, #0]
    1534:	3338      	adds	r3, #56	@ 0x38
    1536:	681b      	ldr	r3, [r3, #0]
    1538:	2102      	movs	r1, #2
    153a:	4829      	ldr	r0, [pc, #164]	@ (15e0 <setup_uarts+0x168>)
    153c:	4798      	blx	r3

    ROM_UARTConfigSetExpClk(UART0_BASE, g_ui32SysClock, 9600,
    153e:	4b29      	ldr	r3, [pc, #164]	@ (15e4 <setup_uarts+0x16c>)
    1540:	681b      	ldr	r3, [r3, #0]
    1542:	3314      	adds	r3, #20
    1544:	681b      	ldr	r3, [r3, #0]
    1546:	461c      	mov	r4, r3
    1548:	4b27      	ldr	r3, [pc, #156]	@ (15e8 <setup_uarts+0x170>)
    154a:	6819      	ldr	r1, [r3, #0]
    154c:	2360      	movs	r3, #96	@ 0x60
    154e:	f44f 5216 	mov.w	r2, #9600	@ 0x2580
    1552:	4826      	ldr	r0, [pc, #152]	@ (15ec <setup_uarts+0x174>)
    1554:	47a0      	blx	r4
                            (UART_CONFIG_WLEN_8 | UART_CONFIG_STOP_ONE | UART_CONFIG_PAR_NONE));
    ROM_UARTConfigSetExpClk(UART3_BASE, g_ui32SysClock, 115200,
    1556:	4b23      	ldr	r3, [pc, #140]	@ (15e4 <setup_uarts+0x16c>)
    1558:	681b      	ldr	r3, [r3, #0]
    155a:	3314      	adds	r3, #20
    155c:	681b      	ldr	r3, [r3, #0]
    155e:	461c      	mov	r4, r3
    1560:	4b21      	ldr	r3, [pc, #132]	@ (15e8 <setup_uarts+0x170>)
    1562:	6819      	ldr	r1, [r3, #0]
    1564:	2360      	movs	r3, #96	@ 0x60
    1566:	f44f 32e1 	mov.w	r2, #115200	@ 0x1c200
    156a:	4821      	ldr	r0, [pc, #132]	@ (15f0 <setup_uarts+0x178>)
    156c:	47a0      	blx	r4
                            (UART_CONFIG_WLEN_8 | UART_CONFIG_STOP_ONE | UART_CONFIG_PAR_NONE));

    MAP_IntMasterEnable();
    156e:	4b21      	ldr	r3, [pc, #132]	@ (15f4 <setup_uarts+0x17c>)
    1570:	681b      	ldr	r3, [r3, #0]
    1572:	3304      	adds	r3, #4
    1574:	681b      	ldr	r3, [r3, #0]
    1576:	4798      	blx	r3
    ROM_IntEnable(INT_UART0);
    1578:	4b1e      	ldr	r3, [pc, #120]	@ (15f4 <setup_uarts+0x17c>)
    157a:	681b      	ldr	r3, [r3, #0]
    157c:	681b      	ldr	r3, [r3, #0]
    157e:	2015      	movs	r0, #21
    1580:	4798      	blx	r3
    ROM_UARTIntEnable(UART0_BASE, UART_INT_RX | UART_INT_RT);
    1582:	4b18      	ldr	r3, [pc, #96]	@ (15e4 <setup_uarts+0x16c>)
    1584:	681b      	ldr	r3, [r3, #0]
    1586:	3344      	adds	r3, #68	@ 0x44
    1588:	681b      	ldr	r3, [r3, #0]
    158a:	2150      	movs	r1, #80	@ 0x50
    158c:	4817      	ldr	r0, [pc, #92]	@ (15ec <setup_uarts+0x174>)
    158e:	4798      	blx	r3
    ROM_IntEnable(INT_UART3);
    1590:	4b18      	ldr	r3, [pc, #96]	@ (15f4 <setup_uarts+0x17c>)
    1592:	681b      	ldr	r3, [r3, #0]
    1594:	681b      	ldr	r3, [r3, #0]
    1596:	2048      	movs	r0, #72	@ 0x48
    1598:	4798      	blx	r3
    ROM_UARTIntEnable(UART3_BASE, UART_INT_RX | UART_INT_RT);
    159a:	4b12      	ldr	r3, [pc, #72]	@ (15e4 <setup_uarts+0x16c>)
    159c:	681b      	ldr	r3, [r3, #0]
    159e:	3344      	adds	r3, #68	@ 0x44
    15a0:	681b      	ldr	r3, [r3, #0]
    15a2:	2150      	movs	r1, #80	@ 0x50
    15a4:	4812      	ldr	r0, [pc, #72]	@ (15f0 <setup_uarts+0x178>)
    15a6:	4798      	blx	r3
}
    15a8:	bf00      	nop
    15aa:	bd98      	pop	{r3, r4, r7, pc}
    15ac:	01000044 	.word	0x01000044
    15b0:	f0001800 	.word	0xf0001800
    15b4:	f0001803 	.word	0xf0001803
    15b8:	f0000800 	.word	0xf0000800
    15bc:	f0000808 	.word	0xf0000808
    15c0:	f000080c 	.word	0xf000080c
    15c4:	f000080e 	.word	0xf000080e
    15c8:	f0000805 	.word	0xf0000805
    15cc:	01000020 	.word	0x01000020
    15d0:	00080001 	.word	0x00080001
    15d4:	00080401 	.word	0x00080401
    15d8:	4003d000 	.word	0x4003d000
    15dc:	40025000 	.word	0x40025000
    15e0:	40066000 	.word	0x40066000
    15e4:	01000014 	.word	0x01000014
    15e8:	20000128 	.word	0x20000128
    15ec:	4000c000 	.word	0x4000c000
    15f0:	4000f000 	.word	0x4000f000
    15f4:	01000048 	.word	0x01000048

000015f8 <example_dynamic_cmd_copy_and_process>:
}
*/


void example_dynamic_cmd_copy_and_process(const volatile char *user_rx_buf, uint32_t len)
{
    15f8:	b580      	push	{r7, lr}
    15fa:	b0da      	sub	sp, #360	@ 0x168
    15fc:	af02      	add	r7, sp, #8
    15fe:	f507 73b0 	add.w	r3, r7, #352	@ 0x160
    1602:	f5a3 73ae 	sub.w	r3, r3, #348	@ 0x15c
    1606:	6018      	str	r0, [r3, #0]
    1608:	f507 73b0 	add.w	r3, r7, #352	@ 0x160
    160c:	f5a3 73b0 	sub.w	r3, r3, #352	@ 0x160
    1610:	6019      	str	r1, [r3, #0]

    /* allocate len+1 bytes */
    char *cmd_local = (char *)malloc((size_t)len + 1);
    1612:	f507 73b0 	add.w	r3, r7, #352	@ 0x160
    1616:	f5a3 73b0 	sub.w	r3, r3, #352	@ 0x160
    161a:	681b      	ldr	r3, [r3, #0]
    161c:	3301      	adds	r3, #1
    161e:	4618      	mov	r0, r3
    1620:	f000 fa74 	bl	1b0c <malloc>
    1624:	4603      	mov	r3, r0
    1626:	f8c7 315c 	str.w	r3, [r7, #348]	@ 0x15c
    if (!cmd_local) {
    162a:	f8d7 315c 	ldr.w	r3, [r7, #348]	@ 0x15c
    162e:	2b00      	cmp	r3, #0
    1630:	d103      	bne.n	163a <example_dynamic_cmd_copy_and_process+0x42>
        diag_puts("ERROR: malloc for cmd_local failed\r\n");
    1632:	4876      	ldr	r0, [pc, #472]	@ (180c <example_dynamic_cmd_copy_and_process+0x214>)
    1634:	f7ff f912 	bl	85c <diag_puts>
        return;
    1638:	e0e4      	b.n	1804 <example_dynamic_cmd_copy_and_process+0x20c>
    }

    /* copy and NUL-terminate */
    if (len > 0) {
    163a:	f507 73b0 	add.w	r3, r7, #352	@ 0x160
    163e:	f5a3 73b0 	sub.w	r3, r3, #352	@ 0x160
    1642:	681b      	ldr	r3, [r3, #0]
    1644:	2b00      	cmp	r3, #0
    1646:	d00d      	beq.n	1664 <example_dynamic_cmd_copy_and_process+0x6c>
        memcpy(cmd_local, (const void *)user_rx_buf, len);
    1648:	f507 73b0 	add.w	r3, r7, #352	@ 0x160
    164c:	f5a3 72b0 	sub.w	r2, r3, #352	@ 0x160
    1650:	f507 73b0 	add.w	r3, r7, #352	@ 0x160
    1654:	f5a3 73ae 	sub.w	r3, r3, #348	@ 0x15c
    1658:	6812      	ldr	r2, [r2, #0]
    165a:	6819      	ldr	r1, [r3, #0]
    165c:	f8d7 015c 	ldr.w	r0, [r7, #348]	@ 0x15c
    1660:	f001 f8e0 	bl	2824 <memcpy>
    }
    cmd_local[len] = '\0';
    1664:	f507 73b0 	add.w	r3, r7, #352	@ 0x160
    1668:	f5a3 73b0 	sub.w	r3, r3, #352	@ 0x160
    166c:	f8d7 215c 	ldr.w	r2, [r7, #348]	@ 0x15c
    1670:	681b      	ldr	r3, [r3, #0]
    1672:	4413      	add	r3, r2
    1674:	2200      	movs	r2, #0
    1676:	701a      	strb	r2, [r3, #0]

    /* Print the pointer and length for diagnostics (ICDI UART) */
    diag_puts("cmd_local ptr = ");
    1678:	4865      	ldr	r0, [pc, #404]	@ (1810 <example_dynamic_cmd_copy_and_process+0x218>)
    167a:	f7ff f8ef 	bl	85c <diag_puts>
    diag_put_ptr((void *)cmd_local);
    167e:	f8d7 015c 	ldr.w	r0, [r7, #348]	@ 0x15c
    1682:	f7ff f935 	bl	8f0 <diag_put_ptr>
    diag_puts(" ; len = ");
    1686:	4863      	ldr	r0, [pc, #396]	@ (1814 <example_dynamic_cmd_copy_and_process+0x21c>)
    1688:	f7ff f8e8 	bl	85c <diag_puts>
    diag_put_hex32(len);
    168c:	f507 73b0 	add.w	r3, r7, #352	@ 0x160
    1690:	f5a3 73b0 	sub.w	r3, r3, #352	@ 0x160
    1694:	6818      	ldr	r0, [r3, #0]
    1696:	f7ff f8f9 	bl	88c <diag_put_hex32>
    diag_puts("\n");
    169a:	485f      	ldr	r0, [pc, #380]	@ (1818 <example_dynamic_cmd_copy_and_process+0x220>)
    169c:	f7ff f8de 	bl	85c <diag_puts>

    /* simple decimal print helper assumed available; otherwise print small number */
    /* call your process function */
    process_user_line(cmd_local);
    16a0:	f8d7 015c 	ldr.w	r0, [r7, #348]	@ 0x15c
    16a4:	f7ff fd4e 	bl	1144 <process_user_line>

    /* spew out some diagnostic summaries... */
    diag_print_variable("g_pwmPeriod", (const void *)&g_pwmPeriod, sizeof(g_pwmPeriod), DIAG_PREVIEW_LIMIT);
    16a8:	2320      	movs	r3, #32
    16aa:	2204      	movs	r2, #4
    16ac:	495b      	ldr	r1, [pc, #364]	@ (181c <example_dynamic_cmd_copy_and_process+0x224>)
    16ae:	485c      	ldr	r0, [pc, #368]	@ (1820 <example_dynamic_cmd_copy_and_process+0x228>)
    16b0:	f7ff fa9c 	bl	bec <diag_print_variable>
    diag_print_variable("g_pwmPulse", (const void *)&g_pwmPulse, sizeof(g_pwmPulse), DIAG_PREVIEW_LIMIT);
    16b4:	2320      	movs	r3, #32
    16b6:	2204      	movs	r2, #4
    16b8:	495a      	ldr	r1, [pc, #360]	@ (1824 <example_dynamic_cmd_copy_and_process+0x22c>)
    16ba:	485b      	ldr	r0, [pc, #364]	@ (1828 <example_dynamic_cmd_copy_and_process+0x230>)
    16bc:	f7ff fa96 	bl	bec <diag_print_variable>

    /* Temporary: Test specific parts to find the exact problem */
    diag_puts("DEBUG: After PWM variables, testing malloc...\r\n");
    16c0:	485a      	ldr	r0, [pc, #360]	@ (182c <example_dynamic_cmd_copy_and_process+0x234>)
    16c2:	f7ff f8cb 	bl	85c <diag_puts>
    
    /* Test 1: strlen */
    const char *lit = "DYN_TEST: Hello from dynamic buffer!";
    16c6:	4b5a      	ldr	r3, [pc, #360]	@ (1830 <example_dynamic_cmd_copy_and_process+0x238>)
    16c8:	f8c7 3158 	str.w	r3, [r7, #344]	@ 0x158
    size_t lit_len = strlen(lit);
    16cc:	f8d7 0158 	ldr.w	r0, [r7, #344]	@ 0x158
    16d0:	f000 fdd6 	bl	2280 <strlen>
    16d4:	f8c7 0154 	str.w	r0, [r7, #340]	@ 0x154
    diag_puts("DEBUG: strlen completed, lit_len=");
    16d8:	4856      	ldr	r0, [pc, #344]	@ (1834 <example_dynamic_cmd_copy_and_process+0x23c>)
    16da:	f7ff f8bf 	bl	85c <diag_puts>
    diag_put_u32_dec((uint32_t)lit_len);
    16de:	f8d7 0154 	ldr.w	r0, [r7, #340]	@ 0x154
    16e2:	f7ff f911 	bl	908 <diag_put_u32_dec>
    diag_puts("\r\n");
    16e6:	4854      	ldr	r0, [pc, #336]	@ (1838 <example_dynamic_cmd_copy_and_process+0x240>)
    16e8:	f7ff f8b8 	bl	85c <diag_puts>
    
    /* Test 2: malloc */
    char* dyn = (char *)malloc(lit_len + 1);
    16ec:	f8d7 3154 	ldr.w	r3, [r7, #340]	@ 0x154
    16f0:	3301      	adds	r3, #1
    16f2:	4618      	mov	r0, r3
    16f4:	f000 fa0a 	bl	1b0c <malloc>
    16f8:	4603      	mov	r3, r0
    16fa:	f8c7 3150 	str.w	r3, [r7, #336]	@ 0x150
    if (!dyn) {
    16fe:	f8d7 3150 	ldr.w	r3, [r7, #336]	@ 0x150
    1702:	2b00      	cmp	r3, #0
    1704:	d103      	bne.n	170e <example_dynamic_cmd_copy_and_process+0x116>
        diag_puts("ERROR: malloc failed\r\n");
    1706:	484d      	ldr	r0, [pc, #308]	@ (183c <example_dynamic_cmd_copy_and_process+0x244>)
    1708:	f7ff f8a8 	bl	85c <diag_puts>
    170c:	e068      	b.n	17e0 <example_dynamic_cmd_copy_and_process+0x1e8>
    } else {
        diag_puts("DEBUG: malloc succeeded, ptr=");
    170e:	484c      	ldr	r0, [pc, #304]	@ (1840 <example_dynamic_cmd_copy_and_process+0x248>)
    1710:	f7ff f8a4 	bl	85c <diag_puts>
        diag_put_ptr((void *)dyn);
    1714:	f8d7 0150 	ldr.w	r0, [r7, #336]	@ 0x150
    1718:	f7ff f8ea 	bl	8f0 <diag_put_ptr>
        diag_puts("\r\n");
    171c:	4846      	ldr	r0, [pc, #280]	@ (1838 <example_dynamic_cmd_copy_and_process+0x240>)
    171e:	f7ff f89d 	bl	85c <diag_puts>
        
        /* Test 3: memcpy */
        memcpy(dyn, lit, lit_len + 1);
    1722:	f8d7 3154 	ldr.w	r3, [r7, #340]	@ 0x154
    1726:	3301      	adds	r3, #1
    1728:	461a      	mov	r2, r3
    172a:	f8d7 1158 	ldr.w	r1, [r7, #344]	@ 0x158
    172e:	f8d7 0150 	ldr.w	r0, [r7, #336]	@ 0x150
    1732:	f001 f877 	bl	2824 <memcpy>
        diag_puts("DEBUG: memcpy completed\r\n");
    1736:	4843      	ldr	r0, [pc, #268]	@ (1844 <example_dynamic_cmd_copy_and_process+0x24c>)
    1738:	f7ff f890 	bl	85c <diag_puts>
        
        /* Test 4: diag_print_variable with NOLIMIT (WORKS!) */
        diag_puts("DEBUG: About to call diag_print_variable with NOLIMIT...\r\n");
    173c:	4842      	ldr	r0, [pc, #264]	@ (1848 <example_dynamic_cmd_copy_and_process+0x250>)
    173e:	f7ff f88d 	bl	85c <diag_puts>
        diag_print_variable("dyn_str", (const void *)dyn, (size_t)(lit_len + 1), DIAG_PREVIEW_NOLIMIT);
    1742:	f8d7 3154 	ldr.w	r3, [r7, #340]	@ 0x154
    1746:	1c5a      	adds	r2, r3, #1
    1748:	f04f 33ff 	mov.w	r3, #4294967295	@ 0xffffffff
    174c:	f8d7 1150 	ldr.w	r1, [r7, #336]	@ 0x150
    1750:	483e      	ldr	r0, [pc, #248]	@ (184c <example_dynamic_cmd_copy_and_process+0x254>)
    1752:	f7ff fa4b 	bl	bec <diag_print_variable>
        diag_puts("DEBUG: diag_print_variable completed\r\n");
    1756:	483e      	ldr	r0, [pc, #248]	@ (1850 <example_dynamic_cmd_copy_and_process+0x258>)
    1758:	f7ff f880 	bl	85c <diag_puts>
        
        /* Memory integrity check before stack-heavy operations */
        diag_check_memory_integrity("pre-sprintf-test");
    175c:	483d      	ldr	r0, [pc, #244]	@ (1854 <example_dynamic_cmd_copy_and_process+0x25c>)
    175e:	f7fe fef7 	bl	550 <diag_check_memory_integrity>
        
        /* Test 5: Stack usage test - declare msgbuf array (WORKS!) */
        diag_puts("DEBUG: About to declare msgbuf[320]...\r\n");
    1762:	483d      	ldr	r0, [pc, #244]	@ (1858 <example_dynamic_cmd_copy_and_process+0x260>)
    1764:	f7ff f87a 	bl	85c <diag_puts>
        diag_check_stack_usage("before-msgbuf-declaration");
    1768:	483c      	ldr	r0, [pc, #240]	@ (185c <example_dynamic_cmd_copy_and_process+0x264>)
    176a:	f7fe ffcb 	bl	704 <diag_check_stack_usage>
        char msgbuf[320];
        diag_check_stack_usage("after-msgbuf-declaration");
    176e:	483c      	ldr	r0, [pc, #240]	@ (1860 <example_dynamic_cmd_copy_and_process+0x268>)
    1770:	f7fe ffc8 	bl	704 <diag_check_stack_usage>
        diag_puts("DEBUG: msgbuf declared, testing our sprintf replacement...\r\n");
    1774:	483b      	ldr	r0, [pc, #236]	@ (1864 <example_dynamic_cmd_copy_and_process+0x26c>)
    1776:	f7ff f871 	bl	85c <diag_puts>
        
        /* Test 6: Use our custom sprintf replacement */
        int n = sprintf(msgbuf, "SPRINTF: dyn@%p len=%u contents='%s'\r\n",
    177a:	f107 0008 	add.w	r0, r7, #8
    177e:	f8d7 3150 	ldr.w	r3, [r7, #336]	@ 0x150
    1782:	9300      	str	r3, [sp, #0]
    1784:	f8d7 3154 	ldr.w	r3, [r7, #340]	@ 0x154
    1788:	f8d7 2150 	ldr.w	r2, [r7, #336]	@ 0x150
    178c:	4936      	ldr	r1, [pc, #216]	@ (1868 <example_dynamic_cmd_copy_and_process+0x270>)
    178e:	f7fe febb 	bl	508 <sprintf>
    1792:	f8c7 014c 	str.w	r0, [r7, #332]	@ 0x14c
            (void *)dyn, (unsigned)lit_len, dyn);
        if (n > 0) {
    1796:	f8d7 314c 	ldr.w	r3, [r7, #332]	@ 0x14c
    179a:	2b00      	cmp	r3, #0
    179c:	dd16      	ble.n	17cc <example_dynamic_cmd_copy_and_process+0x1d4>
            diag_puts("DEBUG: sprintf replacement succeeded, n=");
    179e:	4833      	ldr	r0, [pc, #204]	@ (186c <example_dynamic_cmd_copy_and_process+0x274>)
    17a0:	f7ff f85c 	bl	85c <diag_puts>
            diag_put_u32_dec((uint32_t)n);
    17a4:	f8d7 314c 	ldr.w	r3, [r7, #332]	@ 0x14c
    17a8:	4618      	mov	r0, r3
    17aa:	f7ff f8ad 	bl	908 <diag_put_u32_dec>
            diag_puts("\r\n");
    17ae:	4822      	ldr	r0, [pc, #136]	@ (1838 <example_dynamic_cmd_copy_and_process+0x240>)
    17b0:	f7ff f854 	bl	85c <diag_puts>
            // Send the formatted string to ICDI (UART0) using UARTSend
            UARTSend((const uint8_t *)msgbuf, (uint32_t)n, UARTDEV_ICDI);
    17b4:	f8d7 114c 	ldr.w	r1, [r7, #332]	@ 0x14c
    17b8:	f107 0308 	add.w	r3, r7, #8
    17bc:	2200      	movs	r2, #0
    17be:	4618      	mov	r0, r3
    17c0:	f7fe fd1e 	bl	200 <UARTSend>
            diag_puts("DEBUG: UARTSend completed\r\n");
    17c4:	482a      	ldr	r0, [pc, #168]	@ (1870 <example_dynamic_cmd_copy_and_process+0x278>)
    17c6:	f7ff f849 	bl	85c <diag_puts>
    17ca:	e002      	b.n	17d2 <example_dynamic_cmd_copy_and_process+0x1da>
        } else {
            diag_puts("ERROR: sprintf replacement failed\r\n");
    17cc:	4829      	ldr	r0, [pc, #164]	@ (1874 <example_dynamic_cmd_copy_and_process+0x27c>)
    17ce:	f7ff f845 	bl	85c <diag_puts>
        }
        
        /* Free immediately */
        free(dyn);
    17d2:	f8d7 0150 	ldr.w	r0, [r7, #336]	@ 0x150
    17d6:	f000 f9c7 	bl	1b68 <free>
        diag_puts("DEBUG: free completed\r\n");
    17da:	4827      	ldr	r0, [pc, #156]	@ (1878 <example_dynamic_cmd_copy_and_process+0x280>)
    17dc:	f7ff f83e 	bl	85c <diag_puts>
        diag_puts("DYN ALLOC freed\r\n");

    }        /* --- end dynamic test ---
    */

    void *cur_brk = _sbrk(0);
    17e0:	2000      	movs	r0, #0
    17e2:	f000 f9cb 	bl	1b7c <_sbrk>
    17e6:	f8c7 0148 	str.w	r0, [r7, #328]	@ 0x148
    diag_print_variable("sbrk(0)", cur_brk, 16, DIAG_PREVIEW_LIMIT); /* preview 16 bytes at current brk */
    17ea:	2320      	movs	r3, #32
    17ec:	2210      	movs	r2, #16
    17ee:	f8d7 1148 	ldr.w	r1, [r7, #328]	@ 0x148
    17f2:	4822      	ldr	r0, [pc, #136]	@ (187c <example_dynamic_cmd_copy_and_process+0x284>)
    17f4:	f7ff f9fa 	bl	bec <diag_print_variable>

    diag_print_variables_summary();
    17f8:	f7ff faf0 	bl	ddc <diag_print_variables_summary>

    /* free when done */
    free(cmd_local);
    17fc:	f8d7 015c 	ldr.w	r0, [r7, #348]	@ 0x15c
    1800:	f000 f9b2 	bl	1b68 <free>

}
    1804:	f507 77b0 	add.w	r7, r7, #352	@ 0x160
    1808:	46bd      	mov	sp, r7
    180a:	bd80      	pop	{r7, pc}
    180c:	000033d8 	.word	0x000033d8
    1810:	00003400 	.word	0x00003400
    1814:	00003414 	.word	0x00003414
    1818:	00003420 	.word	0x00003420
    181c:	2000012c 	.word	0x2000012c
    1820:	00003424 	.word	0x00003424
    1824:	20000130 	.word	0x20000130
    1828:	00003430 	.word	0x00003430
    182c:	0000343c 	.word	0x0000343c
    1830:	0000346c 	.word	0x0000346c
    1834:	00003494 	.word	0x00003494
    1838:	000034b8 	.word	0x000034b8
    183c:	000034bc 	.word	0x000034bc
    1840:	000034d4 	.word	0x000034d4
    1844:	000034f4 	.word	0x000034f4
    1848:	00003510 	.word	0x00003510
    184c:	0000354c 	.word	0x0000354c
    1850:	00003554 	.word	0x00003554
    1854:	0000357c 	.word	0x0000357c
    1858:	00003590 	.word	0x00003590
    185c:	000035bc 	.word	0x000035bc
    1860:	000035d8 	.word	0x000035d8
    1864:	000035f4 	.word	0x000035f4
    1868:	00003634 	.word	0x00003634
    186c:	0000365c 	.word	0x0000365c
    1870:	00003688 	.word	0x00003688
    1874:	000036a4 	.word	0x000036a4
    1878:	000036c8 	.word	0x000036c8
    187c:	000036e0 	.word	0x000036e0

00001880 <main>:


int main(void)
{
    1880:	b580      	push	{r7, lr}
    1882:	b094      	sub	sp, #80	@ 0x50
    1884:	af00      	add	r7, sp, #0

    unsigned int currCopyCharIdx = 0;
    1886:	2300      	movs	r3, #0
    1888:	64fb      	str	r3, [r7, #76]	@ 0x4c
    unsigned char currCopyChar = 0x00;
    188a:	2300      	movs	r3, #0
    188c:	f887 3047 	strb.w	r3, [r7, #71]	@ 0x47

    setup_system_clock();
    1890:	f7ff fde0 	bl	1454 <setup_system_clock>

    // Check if we had a hard fault (bit 31 of SCB->HFSR)
    if (HWREG(0xE000ED2C) & 0x80000000) {
    1894:	4b7f      	ldr	r3, [pc, #508]	@ (1a94 <main+0x214>)
    1896:	681b      	ldr	r3, [r3, #0]
    1898:	2b00      	cmp	r3, #0
    189a:	da21      	bge.n	18e0 <main+0x60>
        // Hard fault occurred! Likely stack overflow
        while(1) {
            // Blink PN0 rapidly as a warning
            ROM_GPIOPinWrite(GPIO_PORTN_BASE, GPIO_PIN_0, GPIO_PIN_0);
    189c:	4b7e      	ldr	r3, [pc, #504]	@ (1a98 <main+0x218>)
    189e:	681b      	ldr	r3, [r3, #0]
    18a0:	681b      	ldr	r3, [r3, #0]
    18a2:	2201      	movs	r2, #1
    18a4:	2101      	movs	r1, #1
    18a6:	487d      	ldr	r0, [pc, #500]	@ (1a9c <main+0x21c>)
    18a8:	4798      	blx	r3
            SysCtlDelay(g_ui32SysClock / 100);
    18aa:	4b7d      	ldr	r3, [pc, #500]	@ (1aa0 <main+0x220>)
    18ac:	681b      	ldr	r3, [r3, #0]
    18ae:	4a7d      	ldr	r2, [pc, #500]	@ (1aa4 <main+0x224>)
    18b0:	fba2 2303 	umull	r2, r3, r2, r3
    18b4:	095b      	lsrs	r3, r3, #5
    18b6:	4618      	mov	r0, r3
    18b8:	f000 fb74 	bl	1fa4 <SysCtlDelay>
            ROM_GPIOPinWrite(GPIO_PORTN_BASE, GPIO_PIN_0, 0);
    18bc:	4b76      	ldr	r3, [pc, #472]	@ (1a98 <main+0x218>)
    18be:	681b      	ldr	r3, [r3, #0]
    18c0:	681b      	ldr	r3, [r3, #0]
    18c2:	2200      	movs	r2, #0
    18c4:	2101      	movs	r1, #1
    18c6:	4875      	ldr	r0, [pc, #468]	@ (1a9c <main+0x21c>)
    18c8:	4798      	blx	r3
            SysCtlDelay(g_ui32SysClock / 100);
    18ca:	4b75      	ldr	r3, [pc, #468]	@ (1aa0 <main+0x220>)
    18cc:	681b      	ldr	r3, [r3, #0]
    18ce:	4a75      	ldr	r2, [pc, #468]	@ (1aa4 <main+0x224>)
    18d0:	fba2 2303 	umull	r2, r3, r2, r3
    18d4:	095b      	lsrs	r3, r3, #5
    18d6:	4618      	mov	r0, r3
    18d8:	f000 fb64 	bl	1fa4 <SysCtlDelay>
            ROM_GPIOPinWrite(GPIO_PORTN_BASE, GPIO_PIN_0, GPIO_PIN_0);
    18dc:	bf00      	nop
    18de:	e7dd      	b.n	189c <main+0x1c>
        }
    }

    ROM_SysCtlPeripheralEnable(SYSCTL_PERIPH_GPION);
    18e0:	4b71      	ldr	r3, [pc, #452]	@ (1aa8 <main+0x228>)
    18e2:	681b      	ldr	r3, [r3, #0]
    18e4:	3318      	adds	r3, #24
    18e6:	681b      	ldr	r3, [r3, #0]
    18e8:	4870      	ldr	r0, [pc, #448]	@ (1aac <main+0x22c>)
    18ea:	4798      	blx	r3
    ROM_GPIOPinTypeGPIOOutput(GPIO_PORTN_BASE, GPIO_PIN_0);
    18ec:	4b6a      	ldr	r3, [pc, #424]	@ (1a98 <main+0x218>)
    18ee:	681b      	ldr	r3, [r3, #0]
    18f0:	333c      	adds	r3, #60	@ 0x3c
    18f2:	681b      	ldr	r3, [r3, #0]
    18f4:	2101      	movs	r1, #1
    18f6:	4869      	ldr	r0, [pc, #420]	@ (1a9c <main+0x21c>)
    18f8:	4798      	blx	r3

    setup_pwm_pf2();
    18fa:	f7ff fd03 	bl	1304 <setup_pwm_pf2>
    setup_uarts();
    18fe:	f7ff fdbb 	bl	1478 <setup_uarts>


    for (;;) {

        /* Wait for DTR session */
        UARTSend((const uint8_t *)"NO SESSION ACTIVE\r\n", 20, UARTDEV_ICDI);
    1902:	2200      	movs	r2, #0
    1904:	2114      	movs	r1, #20
    1906:	486a      	ldr	r0, [pc, #424]	@ (1ab0 <main+0x230>)
    1908:	f7fe fc7a 	bl	200 <UARTSend>

        while (ROM_GPIOPinRead(DTR_PORT, DTR_PIN)) {
    190c:	e009      	b.n	1922 <main+0xa2>
            SysCtlDelay(g_ui32SysClock / (1000 * 100));
    190e:	4b64      	ldr	r3, [pc, #400]	@ (1aa0 <main+0x220>)
    1910:	681b      	ldr	r3, [r3, #0]
    1912:	095b      	lsrs	r3, r3, #5
    1914:	4a67      	ldr	r2, [pc, #412]	@ (1ab4 <main+0x234>)
    1916:	fba2 2303 	umull	r2, r3, r2, r3
    191a:	09db      	lsrs	r3, r3, #7
    191c:	4618      	mov	r0, r3
    191e:	f000 fb41 	bl	1fa4 <SysCtlDelay>
        while (ROM_GPIOPinRead(DTR_PORT, DTR_PIN)) {
    1922:	4b5d      	ldr	r3, [pc, #372]	@ (1a98 <main+0x218>)
    1924:	681b      	ldr	r3, [r3, #0]
    1926:	332c      	adds	r3, #44	@ 0x2c
    1928:	681b      	ldr	r3, [r3, #0]
    192a:	2102      	movs	r1, #2
    192c:	4862      	ldr	r0, [pc, #392]	@ (1ab8 <main+0x238>)
    192e:	4798      	blx	r3
    1930:	4603      	mov	r3, r0
    1932:	2b00      	cmp	r3, #0
    1934:	d1eb      	bne.n	190e <main+0x8e>
        }

        UARTSend((const uint8_t *)"SESSION WAS INITIATED\r\n", 24, UARTDEV_ICDI);
    1936:	2200      	movs	r2, #0
    1938:	2118      	movs	r1, #24
    193a:	4860      	ldr	r0, [pc, #384]	@ (1abc <main+0x23c>)
    193c:	f7fe fc60 	bl	200 <UARTSend>
        SysCtlDelay(g_ui32SysClock / (1000 * 12));
    1940:	4b57      	ldr	r3, [pc, #348]	@ (1aa0 <main+0x220>)
    1942:	681b      	ldr	r3, [r3, #0]
    1944:	4a5e      	ldr	r2, [pc, #376]	@ (1ac0 <main+0x240>)
    1946:	fba2 2303 	umull	r2, r3, r2, r3
    194a:	0a1b      	lsrs	r3, r3, #8
    194c:	4618      	mov	r0, r3
    194e:	f000 fb29 	bl	1fa4 <SysCtlDelay>

        UARTSend((const uint8_t *)"\r\nPWM Ready. Enter command: PSYN n  (n = 5..96)\r\n> ", 52, UARTDEV_USER);
    1952:	2201      	movs	r2, #1
    1954:	2134      	movs	r1, #52	@ 0x34
    1956:	485b      	ldr	r0, [pc, #364]	@ (1ac4 <main+0x244>)
    1958:	f7fe fc52 	bl	200 <UARTSend>

        user_rx_len = 0;
    195c:	4b5a      	ldr	r3, [pc, #360]	@ (1ac8 <main+0x248>)
    195e:	2200      	movs	r2, #0
    1960:	601a      	str	r2, [r3, #0]
        user_cmd_ready = false;
    1962:	4b5a      	ldr	r3, [pc, #360]	@ (1acc <main+0x24c>)
    1964:	2200      	movs	r2, #0
    1966:	701a      	strb	r2, [r3, #0]

        /* Session active */
        while (!ROM_GPIOPinRead(DTR_PORT, DTR_PIN)) {
    1968:	e082      	b.n	1a70 <main+0x1f0>

            if (user_cmd_ready) {
    196a:	4b58      	ldr	r3, [pc, #352]	@ (1acc <main+0x24c>)
    196c:	781b      	ldrb	r3, [r3, #0]
    196e:	b2db      	uxtb	r3, r3
    1970:	2b00      	cmp	r3, #0
    1972:	d074      	beq.n	1a5e <main+0x1de>

                ROM_IntDisable(INT_UART3);
    1974:	4b56      	ldr	r3, [pc, #344]	@ (1ad0 <main+0x250>)
    1976:	681b      	ldr	r3, [r3, #0]
    1978:	330c      	adds	r3, #12
    197a:	681b      	ldr	r3, [r3, #0]
    197c:	2048      	movs	r0, #72	@ 0x48
    197e:	4798      	blx	r3

                // So, before THAT happens, let's launch this dynamic vector
                // or buffer allocation, made by explicit calls to our helpers:

                example_dynamic_cmd_copy_and_process(user_rx_buf,  \
                  (user_rx_len < UART_RX_BUF_SIZE ? user_rx_len : UART_RX_BUF_SIZE - 1));
    1980:	4b51      	ldr	r3, [pc, #324]	@ (1ac8 <main+0x248>)
    1982:	681b      	ldr	r3, [r3, #0]
                example_dynamic_cmd_copy_and_process(user_rx_buf,  \
    1984:	2b3f      	cmp	r3, #63	@ 0x3f
    1986:	d802      	bhi.n	198e <main+0x10e>
    1988:	4b4f      	ldr	r3, [pc, #316]	@ (1ac8 <main+0x248>)
    198a:	681b      	ldr	r3, [r3, #0]
    198c:	e000      	b.n	1990 <main+0x110>
    198e:	233f      	movs	r3, #63	@ 0x3f
    1990:	4619      	mov	r1, r3
    1992:	4850      	ldr	r0, [pc, #320]	@ (1ad4 <main+0x254>)
    1994:	f7ff fe30 	bl	15f8 <example_dynamic_cmd_copy_and_process>

                user_rx_len = 0;
    1998:	4b4b      	ldr	r3, [pc, #300]	@ (1ac8 <main+0x248>)
    199a:	2200      	movs	r2, #0
    199c:	601a      	str	r2, [r3, #0]
                user_cmd_ready = false;
    199e:	4b4b      	ldr	r3, [pc, #300]	@ (1acc <main+0x24c>)
    19a0:	2200      	movs	r2, #0
    19a2:	701a      	strb	r2, [r3, #0]

                ROM_IntEnable(INT_UART3);
    19a4:	4b4a      	ldr	r3, [pc, #296]	@ (1ad0 <main+0x250>)
    19a6:	681b      	ldr	r3, [r3, #0]
    19a8:	681b      	ldr	r3, [r3, #0]
    19aa:	2048      	movs	r0, #72	@ 0x48
    19ac:	4798      	blx	r3

                /* Print again the (updated) memory layout with direct UART writes */
                diag_print_memory_layout();
    19ae:	f7fe ffe9 	bl	984 <diag_print_memory_layout>


                // ***** NOTE **** STALLS HAPPEN FROM HERE ON !!! *****

                uint32_t len = user_rx_len;
    19b2:	4b45      	ldr	r3, [pc, #276]	@ (1ac8 <main+0x248>)
    19b4:	681b      	ldr	r3, [r3, #0]
    19b6:	64bb      	str	r3, [r7, #72]	@ 0x48
                char cmd_local[UART_RX_BUF_SIZE];

                if (len >= UART_RX_BUF_SIZE) len = UART_RX_BUF_SIZE - 1;
    19b8:	6cbb      	ldr	r3, [r7, #72]	@ 0x48
    19ba:	2b3f      	cmp	r3, #63	@ 0x3f
    19bc:	d901      	bls.n	19c2 <main+0x142>
    19be:	233f      	movs	r3, #63	@ 0x3f
    19c0:	64bb      	str	r3, [r7, #72]	@ 0x48

                if (len > 0) {
    19c2:	6cbb      	ldr	r3, [r7, #72]	@ 0x48
    19c4:	2b00      	cmp	r3, #0
    19c6:	d03b      	beq.n	1a40 <main+0x1c0>

                    UARTSend((const uint8_t *)"cmd_local BEFORE memcpy: ", 25, UARTDEV_ICDI);
    19c8:	2200      	movs	r2, #0
    19ca:	2119      	movs	r1, #25
    19cc:	4842      	ldr	r0, [pc, #264]	@ (1ad8 <main+0x258>)
    19ce:	f7fe fc17 	bl	200 <UARTSend>
                    UARTSend((const uint8_t *)cmd_local, len, UARTDEV_ICDI);
    19d2:	1d3b      	adds	r3, r7, #4
    19d4:	2200      	movs	r2, #0
    19d6:	6cb9      	ldr	r1, [r7, #72]	@ 0x48
    19d8:	4618      	mov	r0, r3
    19da:	f7fe fc11 	bl	200 <UARTSend>
                    UARTSend((const uint8_t *)"\r\n", 2, UARTDEV_ICDI);
    19de:	2200      	movs	r2, #0
    19e0:	2102      	movs	r1, #2
    19e2:	483e      	ldr	r0, [pc, #248]	@ (1adc <main+0x25c>)
    19e4:	f7fe fc0c 	bl	200 <UARTSend>

                    //static unsigned int i;

                    for (currCopyCharIdx = 0; currCopyCharIdx < len; currCopyCharIdx++) {
    19e8:	2300      	movs	r3, #0
    19ea:	64fb      	str	r3, [r7, #76]	@ 0x4c
    19ec:	e00e      	b.n	1a0c <main+0x18c>

                        currCopyChar = user_rx_buf[currCopyCharIdx];
    19ee:	4a39      	ldr	r2, [pc, #228]	@ (1ad4 <main+0x254>)
    19f0:	6cfb      	ldr	r3, [r7, #76]	@ 0x4c
    19f2:	4413      	add	r3, r2
    19f4:	781b      	ldrb	r3, [r3, #0]
    19f6:	f887 3047 	strb.w	r3, [r7, #71]	@ 0x47

                        //while (hexShowBuf[i]) MAP_UARTCharPutNonBlocking(UART0_BASE, hexShowBuf[i++]);
                        //MAP_UARTCharPut(UART0_BASE, hexShowBuf[9]);
                        //MAP_UARTCharPutNonBlocking(UART0_BASE, hexShowBuf[10]);

                        cmd_local[currCopyCharIdx] = currCopyChar;
    19fa:	1d3a      	adds	r2, r7, #4
    19fc:	6cfb      	ldr	r3, [r7, #76]	@ 0x4c
    19fe:	4413      	add	r3, r2
    1a00:	f897 2047 	ldrb.w	r2, [r7, #71]	@ 0x47
    1a04:	701a      	strb	r2, [r3, #0]
                    for (currCopyCharIdx = 0; currCopyCharIdx < len; currCopyCharIdx++) {
    1a06:	6cfb      	ldr	r3, [r7, #76]	@ 0x4c
    1a08:	3301      	adds	r3, #1
    1a0a:	64fb      	str	r3, [r7, #76]	@ 0x4c
    1a0c:	6cfa      	ldr	r2, [r7, #76]	@ 0x4c
    1a0e:	6cbb      	ldr	r3, [r7, #72]	@ 0x48
    1a10:	429a      	cmp	r2, r3
    1a12:	d3ec      	bcc.n	19ee <main+0x16e>
                    }

                    //memcpy(cmd_local, (const void *)user_rx_buf, len); -- MEMCPY CORRUPTS!!!
                    cmd_local[len] = '\0';
    1a14:	1d3a      	adds	r2, r7, #4
    1a16:	6cbb      	ldr	r3, [r7, #72]	@ 0x48
    1a18:	4413      	add	r3, r2
    1a1a:	2200      	movs	r2, #0
    1a1c:	701a      	strb	r2, [r3, #0]

                    UARTSend((const uint8_t *)"PARSED THIS COMMAND: ", 21, UARTDEV_ICDI);
    1a1e:	2200      	movs	r2, #0
    1a20:	2115      	movs	r1, #21
    1a22:	482f      	ldr	r0, [pc, #188]	@ (1ae0 <main+0x260>)
    1a24:	f7fe fbec 	bl	200 <UARTSend>
                    UARTSend((const uint8_t *)cmd_local, len, UARTDEV_ICDI);
    1a28:	1d3b      	adds	r3, r7, #4
    1a2a:	2200      	movs	r2, #0
    1a2c:	6cb9      	ldr	r1, [r7, #72]	@ 0x48
    1a2e:	4618      	mov	r0, r3
    1a30:	f7fe fbe6 	bl	200 <UARTSend>
                    UARTSend((const uint8_t *)"\r\n", 2, UARTDEV_ICDI);
    1a34:	2200      	movs	r2, #0
    1a36:	2102      	movs	r1, #2
    1a38:	4828      	ldr	r0, [pc, #160]	@ (1adc <main+0x25c>)
    1a3a:	f7fe fbe1 	bl	200 <UARTSend>
    1a3e:	e001      	b.n	1a44 <main+0x1c4>

                } else {

                    cmd_local[0] = '\0';
    1a40:	2300      	movs	r3, #0
    1a42:	713b      	strb	r3, [r7, #4]

                }

                user_rx_len = 0;
    1a44:	4b20      	ldr	r3, [pc, #128]	@ (1ac8 <main+0x248>)
    1a46:	2200      	movs	r2, #0
    1a48:	601a      	str	r2, [r3, #0]
                user_cmd_ready = false;
    1a4a:	4b20      	ldr	r3, [pc, #128]	@ (1acc <main+0x24c>)
    1a4c:	2200      	movs	r2, #0
    1a4e:	701a      	strb	r2, [r3, #0]

                if (cmd_local[0] != '\0') {
    1a50:	793b      	ldrb	r3, [r7, #4]
    1a52:	2b00      	cmp	r3, #0
    1a54:	d003      	beq.n	1a5e <main+0x1de>
                    process_user_line(cmd_local);
    1a56:	1d3b      	adds	r3, r7, #4
    1a58:	4618      	mov	r0, r3
    1a5a:	f7ff fb73 	bl	1144 <process_user_line>
                }

            }

            ROM_IntEnable(INT_UART3);
    1a5e:	4b1c      	ldr	r3, [pc, #112]	@ (1ad0 <main+0x250>)
    1a60:	681b      	ldr	r3, [r3, #0]
    1a62:	681b      	ldr	r3, [r3, #0]
    1a64:	2048      	movs	r0, #72	@ 0x48
    1a66:	4798      	blx	r3

            ROM_SysCtlSleep();
    1a68:	4b0f      	ldr	r3, [pc, #60]	@ (1aa8 <main+0x228>)
    1a6a:	681b      	ldr	r3, [r3, #0]
    1a6c:	681b      	ldr	r3, [r3, #0]
    1a6e:	4798      	blx	r3
        while (!ROM_GPIOPinRead(DTR_PORT, DTR_PIN)) {
    1a70:	4b09      	ldr	r3, [pc, #36]	@ (1a98 <main+0x218>)
    1a72:	681b      	ldr	r3, [r3, #0]
    1a74:	332c      	adds	r3, #44	@ 0x2c
    1a76:	681b      	ldr	r3, [r3, #0]
    1a78:	2102      	movs	r1, #2
    1a7a:	480f      	ldr	r0, [pc, #60]	@ (1ab8 <main+0x238>)
    1a7c:	4798      	blx	r3
    1a7e:	4603      	mov	r3, r0
    1a80:	2b00      	cmp	r3, #0
    1a82:	f43f af72 	beq.w	196a <main+0xea>

        }

        UARTSend((const uint8_t *)"SESSION WAS DISCONNECTED\r\n", 27, UARTDEV_ICDI);
    1a86:	2200      	movs	r2, #0
    1a88:	211b      	movs	r1, #27
    1a8a:	4816      	ldr	r0, [pc, #88]	@ (1ae4 <main+0x264>)
    1a8c:	f7fe fbb8 	bl	200 <UARTSend>
        UARTSend((const uint8_t *)"NO SESSION ACTIVE\r\n", 20, UARTDEV_ICDI);
    1a90:	e737      	b.n	1902 <main+0x82>
    1a92:	bf00      	nop
    1a94:	e000ed2c 	.word	0xe000ed2c
    1a98:	01000020 	.word	0x01000020
    1a9c:	40064000 	.word	0x40064000
    1aa0:	20000128 	.word	0x20000128
    1aa4:	51eb851f 	.word	0x51eb851f
    1aa8:	01000044 	.word	0x01000044
    1aac:	f000080c 	.word	0xf000080c
    1ab0:	000036e8 	.word	0x000036e8
    1ab4:	0a7c5ac5 	.word	0x0a7c5ac5
    1ab8:	40066000 	.word	0x40066000
    1abc:	000036fc 	.word	0x000036fc
    1ac0:	057619f1 	.word	0x057619f1
    1ac4:	00003714 	.word	0x00003714
    1ac8:	20000174 	.word	0x20000174
    1acc:	20000178 	.word	0x20000178
    1ad0:	01000048 	.word	0x01000048
    1ad4:	20000134 	.word	0x20000134
    1ad8:	00003748 	.word	0x00003748
    1adc:	000034b8 	.word	0x000034b8
    1ae0:	00003764 	.word	0x00003764
    1ae4:	0000377c 	.word	0x0000377c

00001ae8 <align_up>:
/* block header placed immediately before returned pointer */
typedef struct {
    size_t size;
} ms_header_t;

static inline size_t align_up(size_t v, size_t a) {
    1ae8:	b480      	push	{r7}
    1aea:	b083      	sub	sp, #12
    1aec:	af00      	add	r7, sp, #0
    1aee:	6078      	str	r0, [r7, #4]
    1af0:	6039      	str	r1, [r7, #0]
    return (v + (a - 1)) & ~(a - 1);
    1af2:	683a      	ldr	r2, [r7, #0]
    1af4:	687b      	ldr	r3, [r7, #4]
    1af6:	4413      	add	r3, r2
    1af8:	1e5a      	subs	r2, r3, #1
    1afa:	683b      	ldr	r3, [r7, #0]
    1afc:	425b      	negs	r3, r3
    1afe:	4013      	ands	r3, r2
}
    1b00:	4618      	mov	r0, r3
    1b02:	370c      	adds	r7, #12
    1b04:	46bd      	mov	sp, r7
    1b06:	f85d 7b04 	ldr.w	r7, [sp], #4
    1b0a:	4770      	bx	lr

00001b0c <malloc>:


/* malloc: request size bytes, return pointer or NULL + errno=ENOMEM */
void * malloc(size_t size)
{
    1b0c:	b580      	push	{r7, lr}
    1b0e:	b088      	sub	sp, #32
    1b10:	af00      	add	r7, sp, #0
    1b12:	6078      	str	r0, [r7, #4]
    if (size == 0) size = 1;
    1b14:	687b      	ldr	r3, [r7, #4]
    1b16:	2b00      	cmp	r3, #0
    1b18:	d101      	bne.n	1b1e <malloc+0x12>
    1b1a:	2301      	movs	r3, #1
    1b1c:	607b      	str	r3, [r7, #4]
    size_t asize = align_up(size, MALLOC_ALIGN);
    1b1e:	2108      	movs	r1, #8
    1b20:	6878      	ldr	r0, [r7, #4]
    1b22:	f7ff ffe1 	bl	1ae8 <align_up>
    1b26:	61f8      	str	r0, [r7, #28]
    size_t total = sizeof(ms_header_t) + asize;
    1b28:	69fb      	ldr	r3, [r7, #28]
    1b2a:	3304      	adds	r3, #4
    1b2c:	61bb      	str	r3, [r7, #24]
    void *p = _sbrk((ptrdiff_t)total);
    1b2e:	69bb      	ldr	r3, [r7, #24]
    1b30:	4618      	mov	r0, r3
    1b32:	f000 f823 	bl	1b7c <_sbrk>
    1b36:	6178      	str	r0, [r7, #20]
    if (p == (void*)-1) {
    1b38:	697b      	ldr	r3, [r7, #20]
    1b3a:	f1b3 3fff 	cmp.w	r3, #4294967295	@ 0xffffffff
    1b3e:	d106      	bne.n	1b4e <malloc+0x42>
        errno = ENOMEM;
    1b40:	f000 fd7e 	bl	2640 <__errno>
    1b44:	4603      	mov	r3, r0
    1b46:	220c      	movs	r2, #12
    1b48:	601a      	str	r2, [r3, #0]
        return NULL;
    1b4a:	2300      	movs	r3, #0
    1b4c:	e008      	b.n	1b60 <malloc+0x54>
    }
    ms_header_t *h = (ms_header_t *)p;
    1b4e:	697b      	ldr	r3, [r7, #20]
    1b50:	613b      	str	r3, [r7, #16]
    h->size = asize;
    1b52:	693b      	ldr	r3, [r7, #16]
    1b54:	69fa      	ldr	r2, [r7, #28]
    1b56:	601a      	str	r2, [r3, #0]
    void *user = (void *)(h + 1);
    1b58:	693b      	ldr	r3, [r7, #16]
    1b5a:	3304      	adds	r3, #4
    1b5c:	60fb      	str	r3, [r7, #12]
    return user;
    1b5e:	68fb      	ldr	r3, [r7, #12]
}
    1b60:	4618      	mov	r0, r3
    1b62:	3720      	adds	r7, #32
    1b64:	46bd      	mov	sp, r7
    1b66:	bd80      	pop	{r7, pc}

00001b68 <free>:


/* free: noop in this simple allocator */
void free(void *ptr)
{
    1b68:	b480      	push	{r7}
    1b6a:	b083      	sub	sp, #12
    1b6c:	af00      	add	r7, sp, #0
    1b6e:	6078      	str	r0, [r7, #4]
    (void)ptr;
}
    1b70:	bf00      	nop
    1b72:	370c      	adds	r7, #12
    1b74:	46bd      	mov	sp, r7
    1b76:	f85d 7b04 	ldr.w	r7, [sp], #4
    1b7a:	4770      	bx	lr

00001b7c <_sbrk>:

static char *heap_ptr = NULL;      /* current program break (next free byte) */
volatile unsigned int sbrk_calls = 0; /* debug counter - optional */

void * _sbrk(ptrdiff_t incr)
{
    1b7c:	b580      	push	{r7, lr}
    1b7e:	b08c      	sub	sp, #48	@ 0x30
    1b80:	af00      	add	r7, sp, #0
    1b82:	6078      	str	r0, [r7, #4]
    char *start = &_heap_start;
    1b84:	4b35      	ldr	r3, [pc, #212]	@ (1c5c <_sbrk+0xe0>)
    1b86:	62fb      	str	r3, [r7, #44]	@ 0x2c
    char *limit = &_heap_end;
    1b88:	4b35      	ldr	r3, [pc, #212]	@ (1c60 <_sbrk+0xe4>)
    1b8a:	62bb      	str	r3, [r7, #40]	@ 0x28

    if (heap_ptr == NULL) {
    1b8c:	4b35      	ldr	r3, [pc, #212]	@ (1c64 <_sbrk+0xe8>)
    1b8e:	681b      	ldr	r3, [r3, #0]
    1b90:	2b00      	cmp	r3, #0
    1b92:	d102      	bne.n	1b9a <_sbrk+0x1e>
        heap_ptr = start;
    1b94:	4a33      	ldr	r2, [pc, #204]	@ (1c64 <_sbrk+0xe8>)
    1b96:	6afb      	ldr	r3, [r7, #44]	@ 0x2c
    1b98:	6013      	str	r3, [r2, #0]
    }

    /* handle zero request: return current break (after alignment) */
    if (incr == 0) {
    1b9a:	687b      	ldr	r3, [r7, #4]
    1b9c:	2b00      	cmp	r3, #0
    1b9e:	d109      	bne.n	1bb4 <_sbrk+0x38>
        /* return aligned current break */
        uintptr_t cur = (uintptr_t)heap_ptr;
    1ba0:	4b30      	ldr	r3, [pc, #192]	@ (1c64 <_sbrk+0xe8>)
    1ba2:	681b      	ldr	r3, [r3, #0]
    1ba4:	613b      	str	r3, [r7, #16]
        uintptr_t aligned = (cur + (SBRK_ALIGNMENT - 1)) & ~(uintptr_t)(SBRK_ALIGNMENT - 1);
    1ba6:	693b      	ldr	r3, [r7, #16]
    1ba8:	3307      	adds	r3, #7
    1baa:	f023 0307 	bic.w	r3, r3, #7
    1bae:	60fb      	str	r3, [r7, #12]
        return (void *)aligned;
    1bb0:	68fb      	ldr	r3, [r7, #12]
    1bb2:	e04f      	b.n	1c54 <_sbrk+0xd8>
    }

    /* compute an aligned base where the returned pointer will point */
    uintptr_t cur = (uintptr_t)heap_ptr;
    1bb4:	4b2b      	ldr	r3, [pc, #172]	@ (1c64 <_sbrk+0xe8>)
    1bb6:	681b      	ldr	r3, [r3, #0]
    1bb8:	627b      	str	r3, [r7, #36]	@ 0x24
    uintptr_t aligned = (cur + (SBRK_ALIGNMENT - 1)) & ~(uintptr_t)(SBRK_ALIGNMENT - 1);
    1bba:	6a7b      	ldr	r3, [r7, #36]	@ 0x24
    1bbc:	3307      	adds	r3, #7
    1bbe:	f023 0307 	bic.w	r3, r3, #7
    1bc2:	623b      	str	r3, [r7, #32]
    char *aligned_ptr = (char *)aligned;
    1bc4:	6a3b      	ldr	r3, [r7, #32]
    1bc6:	61fb      	str	r3, [r7, #28]

    if (incr > 0) {
    1bc8:	687b      	ldr	r3, [r7, #4]
    1bca:	2b00      	cmp	r3, #0
    1bcc:	dd29      	ble.n	1c22 <_sbrk+0xa6>
        /* check for overflow in pointer arithmetic */
        if ((uintptr_t)aligned_ptr + (uintptr_t)incr < (uintptr_t)aligned_ptr) {
    1bce:	69fa      	ldr	r2, [r7, #28]
    1bd0:	687b      	ldr	r3, [r7, #4]
    1bd2:	441a      	add	r2, r3
    1bd4:	69fb      	ldr	r3, [r7, #28]
    1bd6:	429a      	cmp	r2, r3
    1bd8:	d207      	bcs.n	1bea <_sbrk+0x6e>
            errno = ENOMEM;
    1bda:	f000 fd31 	bl	2640 <__errno>
    1bde:	4603      	mov	r3, r0
    1be0:	220c      	movs	r2, #12
    1be2:	601a      	str	r2, [r3, #0]
            return (void *) -1;
    1be4:	f04f 33ff 	mov.w	r3, #4294967295	@ 0xffffffff
    1be8:	e034      	b.n	1c54 <_sbrk+0xd8>
        }
        char *new_break = aligned_ptr + incr;
    1bea:	687b      	ldr	r3, [r7, #4]
    1bec:	69fa      	ldr	r2, [r7, #28]
    1bee:	4413      	add	r3, r2
    1bf0:	61bb      	str	r3, [r7, #24]
        if (new_break > limit) {
    1bf2:	69ba      	ldr	r2, [r7, #24]
    1bf4:	6abb      	ldr	r3, [r7, #40]	@ 0x28
    1bf6:	429a      	cmp	r2, r3
    1bf8:	d907      	bls.n	1c0a <_sbrk+0x8e>
            errno = ENOMEM;
    1bfa:	f000 fd21 	bl	2640 <__errno>
    1bfe:	4603      	mov	r3, r0
    1c00:	220c      	movs	r2, #12
    1c02:	601a      	str	r2, [r3, #0]
            return (void *) -1;
    1c04:	f04f 33ff 	mov.w	r3, #4294967295	@ 0xffffffff
    1c08:	e024      	b.n	1c54 <_sbrk+0xd8>
        }
        char *prev = aligned_ptr;
    1c0a:	69fb      	ldr	r3, [r7, #28]
    1c0c:	617b      	str	r3, [r7, #20]
        heap_ptr = new_break;
    1c0e:	4a15      	ldr	r2, [pc, #84]	@ (1c64 <_sbrk+0xe8>)
    1c10:	69bb      	ldr	r3, [r7, #24]
    1c12:	6013      	str	r3, [r2, #0]
        sbrk_calls++;
    1c14:	4b14      	ldr	r3, [pc, #80]	@ (1c68 <_sbrk+0xec>)
    1c16:	681b      	ldr	r3, [r3, #0]
    1c18:	3301      	adds	r3, #1
    1c1a:	4a13      	ldr	r2, [pc, #76]	@ (1c68 <_sbrk+0xec>)
    1c1c:	6013      	str	r3, [r2, #0]
        return (void *) prev;
    1c1e:	697b      	ldr	r3, [r7, #20]
    1c20:	e018      	b.n	1c54 <_sbrk+0xd8>
    } else { /* incr < 0 -- shrinking request */
        /* Do not allow shrinking below start */
        if ((uintptr_t)aligned_ptr + (intptr_t)incr < (uintptr_t)start) {
    1c22:	69fa      	ldr	r2, [r7, #28]
    1c24:	687b      	ldr	r3, [r7, #4]
    1c26:	441a      	add	r2, r3
    1c28:	6afb      	ldr	r3, [r7, #44]	@ 0x2c
    1c2a:	429a      	cmp	r2, r3
    1c2c:	d207      	bcs.n	1c3e <_sbrk+0xc2>
            errno = EINVAL;
    1c2e:	f000 fd07 	bl	2640 <__errno>
    1c32:	4603      	mov	r3, r0
    1c34:	2216      	movs	r2, #22
    1c36:	601a      	str	r2, [r3, #0]
            return (void *) -1;
    1c38:	f04f 33ff 	mov.w	r3, #4294967295	@ 0xffffffff
    1c3c:	e00a      	b.n	1c54 <_sbrk+0xd8>
        }
        heap_ptr = aligned_ptr + incr;
    1c3e:	687b      	ldr	r3, [r7, #4]
    1c40:	69fa      	ldr	r2, [r7, #28]
    1c42:	4413      	add	r3, r2
    1c44:	4a07      	ldr	r2, [pc, #28]	@ (1c64 <_sbrk+0xe8>)
    1c46:	6013      	str	r3, [r2, #0]
        sbrk_calls++;
    1c48:	4b07      	ldr	r3, [pc, #28]	@ (1c68 <_sbrk+0xec>)
    1c4a:	681b      	ldr	r3, [r3, #0]
    1c4c:	3301      	adds	r3, #1
    1c4e:	4a06      	ldr	r2, [pc, #24]	@ (1c68 <_sbrk+0xec>)
    1c50:	6013      	str	r3, [r2, #0]
        return (void *) aligned_ptr;
    1c52:	69fb      	ldr	r3, [r7, #28]
    }
}
    1c54:	4618      	mov	r0, r3
    1c56:	3730      	adds	r7, #48	@ 0x30
    1c58:	46bd      	mov	sp, r7
    1c5a:	bd80      	pop	{r7, pc}
    1c5c:	200002c0 	.word	0x200002c0
    1c60:	20006000 	.word	0x20006000
    1c64:	2000017c 	.word	0x2000017c
    1c68:	20000180 	.word	0x20000180

00001c6c <rst_handler>:
    empty_def_handler       // GPIO Port T              124
};

/* Reset handler: copy .data from flash to RAM and zero .bss, then call main */
void rst_handler(void)
{
    1c6c:	b580      	push	{r7, lr}
    1c6e:	b082      	sub	sp, #8
    1c70:	af00      	add	r7, sp, #0
    unsigned long *src = &_end_text;    /* load address for .data (in flash) */
    1c72:	4b10      	ldr	r3, [pc, #64]	@ (1cb4 <rst_handler+0x48>)
    1c74:	607b      	str	r3, [r7, #4]
    unsigned long *dest = &_start_data; /* runtime address in RAM */
    1c76:	4b10      	ldr	r3, [pc, #64]	@ (1cb8 <rst_handler+0x4c>)
    1c78:	603b      	str	r3, [r7, #0]

    /* Copy initialized data from flash to RAM */
    while (dest < &_end_data) {
    1c7a:	e007      	b.n	1c8c <rst_handler+0x20>
        *dest++ = *src++;
    1c7c:	687a      	ldr	r2, [r7, #4]
    1c7e:	1d13      	adds	r3, r2, #4
    1c80:	607b      	str	r3, [r7, #4]
    1c82:	683b      	ldr	r3, [r7, #0]
    1c84:	1d19      	adds	r1, r3, #4
    1c86:	6039      	str	r1, [r7, #0]
    1c88:	6812      	ldr	r2, [r2, #0]
    1c8a:	601a      	str	r2, [r3, #0]
    while (dest < &_end_data) {
    1c8c:	683b      	ldr	r3, [r7, #0]
    1c8e:	4a0b      	ldr	r2, [pc, #44]	@ (1cbc <rst_handler+0x50>)
    1c90:	4293      	cmp	r3, r2
    1c92:	d3f3      	bcc.n	1c7c <rst_handler+0x10>
    }

    /* Zero BSS */
    dest = &_start_bss;
    1c94:	4b0a      	ldr	r3, [pc, #40]	@ (1cc0 <rst_handler+0x54>)
    1c96:	603b      	str	r3, [r7, #0]
    while (dest < &_end_bss) {
    1c98:	e004      	b.n	1ca4 <rst_handler+0x38>
        *dest++ = 0;
    1c9a:	683b      	ldr	r3, [r7, #0]
    1c9c:	1d1a      	adds	r2, r3, #4
    1c9e:	603a      	str	r2, [r7, #0]
    1ca0:	2200      	movs	r2, #0
    1ca2:	601a      	str	r2, [r3, #0]
    while (dest < &_end_bss) {
    1ca4:	683b      	ldr	r3, [r7, #0]
    1ca6:	4a07      	ldr	r2, [pc, #28]	@ (1cc4 <rst_handler+0x58>)
    1ca8:	4293      	cmp	r3, r2
    1caa:	d3f6      	bcc.n	1c9a <rst_handler+0x2e>
    }

    /* Call the user entry (does not return under normal operation) */
    main();
    1cac:	f7ff fde8 	bl	1880 <main>

    /* If main returns, loop forever */
    while (1) {}
    1cb0:	bf00      	nop
    1cb2:	e7fd      	b.n	1cb0 <rst_handler+0x44>
    1cb4:	00003b7d 	.word	0x00003b7d
    1cb8:	20000000 	.word	0x20000000
    1cbc:	20000128 	.word	0x20000128
    1cc0:	20000128 	.word	0x20000128
    1cc4:	200002c0 	.word	0x200002c0

00001cc8 <nmi_handler>:
}

/* Minimal handlers */
void nmi_handler(void) { while (1) {} }
    1cc8:	b480      	push	{r7}
    1cca:	af00      	add	r7, sp, #0
    1ccc:	bf00      	nop
    1cce:	e7fd      	b.n	1ccc <nmi_handler+0x4>

00001cd0 <hardfault_handler>:
void hardfault_handler(void) { while (1) {} }
    1cd0:	b480      	push	{r7}
    1cd2:	af00      	add	r7, sp, #0
    1cd4:	bf00      	nop
    1cd6:	e7fd      	b.n	1cd4 <hardfault_handler+0x4>

00001cd8 <empty_def_handler>:
void empty_def_handler(void) { while (1) {} }
    1cd8:	b480      	push	{r7}
    1cda:	af00      	add	r7, sp, #0
    1cdc:	bf00      	nop
    1cde:	e7fd      	b.n	1cdc <empty_def_handler+0x4>

00001ce0 <GPIODirModeSet>:
    1ce0:	f8d0 3400 	ldr.w	r3, [r0, #1024]	@ 0x400
    1ce4:	f012 0f01 	tst.w	r2, #1
    1ce8:	bf14      	ite	ne
    1cea:	430b      	orrne	r3, r1
    1cec:	438b      	biceq	r3, r1
    1cee:	f8c0 3400 	str.w	r3, [r0, #1024]	@ 0x400
    1cf2:	f8d0 3420 	ldr.w	r3, [r0, #1056]	@ 0x420
    1cf6:	0792      	lsls	r2, r2, #30
    1cf8:	bf4c      	ite	mi
    1cfa:	4319      	orrmi	r1, r3
    1cfc:	ea23 0101 	bicpl.w	r1, r3, r1
    1d00:	f8c0 1420 	str.w	r1, [r0, #1056]	@ 0x420
    1d04:	4770      	bx	lr

00001d06 <GPIOPadConfigSet>:
    1d06:	b5f0      	push	{r4, r5, r6, r7, lr}
    1d08:	f04f 0c03 	mov.w	ip, #3
    1d0c:	f3c2 1741 	ubfx	r7, r2, #5, #2
    1d10:	2500      	movs	r5, #0
    1d12:	fa41 f405 	asr.w	r4, r1, r5
    1d16:	07e6      	lsls	r6, r4, #31
    1d18:	d50f      	bpl.n	1d3a <GPIOPadConfigSet+0x34>
    1d1a:	f8d0 6fc4 	ldr.w	r6, [r0, #4036]	@ 0xfc4
    1d1e:	006c      	lsls	r4, r5, #1
    1d20:	fa0c fe04 	lsl.w	lr, ip, r4
    1d24:	ea26 060e 	bic.w	r6, r6, lr
    1d28:	f8c0 6fc4 	str.w	r6, [r0, #4036]	@ 0xfc4
    1d2c:	f8d0 6fc4 	ldr.w	r6, [r0, #4036]	@ 0xfc4
    1d30:	fa07 f404 	lsl.w	r4, r7, r4
    1d34:	4334      	orrs	r4, r6
    1d36:	f8c0 4fc4 	str.w	r4, [r0, #4036]	@ 0xfc4
    1d3a:	3501      	adds	r5, #1
    1d3c:	2d08      	cmp	r5, #8
    1d3e:	d1e8      	bne.n	1d12 <GPIOPadConfigSet+0xc>
    1d40:	f8d0 4500 	ldr.w	r4, [r0, #1280]	@ 0x500
    1d44:	07d5      	lsls	r5, r2, #31
    1d46:	bf4c      	ite	mi
    1d48:	430c      	orrmi	r4, r1
    1d4a:	438c      	bicpl	r4, r1
    1d4c:	f8c0 4500 	str.w	r4, [r0, #1280]	@ 0x500
    1d50:	f8d0 4504 	ldr.w	r4, [r0, #1284]	@ 0x504
    1d54:	0797      	lsls	r7, r2, #30
    1d56:	bf4c      	ite	mi
    1d58:	430c      	orrmi	r4, r1
    1d5a:	438c      	bicpl	r4, r1
    1d5c:	f8c0 4504 	str.w	r4, [r0, #1284]	@ 0x504
    1d60:	f8d0 4508 	ldr.w	r4, [r0, #1288]	@ 0x508
    1d64:	0756      	lsls	r6, r2, #29
    1d66:	bf4c      	ite	mi
    1d68:	430c      	orrmi	r4, r1
    1d6a:	438c      	bicpl	r4, r1
    1d6c:	f8c0 4508 	str.w	r4, [r0, #1288]	@ 0x508
    1d70:	f8d0 4518 	ldr.w	r4, [r0, #1304]	@ 0x518
    1d74:	0715      	lsls	r5, r2, #28
    1d76:	bf4c      	ite	mi
    1d78:	430c      	orrmi	r4, r1
    1d7a:	438c      	bicpl	r4, r1
    1d7c:	f8c0 4518 	str.w	r4, [r0, #1304]	@ 0x518
    1d80:	f012 0f10 	tst.w	r2, #16
    1d84:	f8d0 253c 	ldr.w	r2, [r0, #1340]	@ 0x53c
    1d88:	bf14      	ite	ne
    1d8a:	430a      	orrne	r2, r1
    1d8c:	438a      	biceq	r2, r1
    1d8e:	f8c0 253c 	str.w	r2, [r0, #1340]	@ 0x53c
    1d92:	f8d0 250c 	ldr.w	r2, [r0, #1292]	@ 0x50c
    1d96:	07dc      	lsls	r4, r3, #31
    1d98:	bf4c      	ite	mi
    1d9a:	430a      	orrmi	r2, r1
    1d9c:	438a      	bicpl	r2, r1
    1d9e:	f8c0 250c 	str.w	r2, [r0, #1292]	@ 0x50c
    1da2:	f8d0 2510 	ldr.w	r2, [r0, #1296]	@ 0x510
    1da6:	079f      	lsls	r7, r3, #30
    1da8:	bf4c      	ite	mi
    1daa:	430a      	orrmi	r2, r1
    1dac:	438a      	bicpl	r2, r1
    1dae:	f8c0 2510 	str.w	r2, [r0, #1296]	@ 0x510
    1db2:	f8d0 2514 	ldr.w	r2, [r0, #1300]	@ 0x514
    1db6:	075e      	lsls	r6, r3, #29
    1db8:	bf4c      	ite	mi
    1dba:	430a      	orrmi	r2, r1
    1dbc:	438a      	bicpl	r2, r1
    1dbe:	f8c0 2514 	str.w	r2, [r0, #1300]	@ 0x514
    1dc2:	f8d0 251c 	ldr.w	r2, [r0, #1308]	@ 0x51c
    1dc6:	071d      	lsls	r5, r3, #28
    1dc8:	bf4c      	ite	mi
    1dca:	430a      	orrmi	r2, r1
    1dcc:	438a      	bicpl	r2, r1
    1dce:	f8c0 251c 	str.w	r2, [r0, #1308]	@ 0x51c
    1dd2:	f8d0 2544 	ldr.w	r2, [r0, #1348]	@ 0x544
    1dd6:	059c      	lsls	r4, r3, #22
    1dd8:	bf4c      	ite	mi
    1dda:	430a      	orrmi	r2, r1
    1ddc:	438a      	bicpl	r2, r1
    1dde:	f8c0 2544 	str.w	r2, [r0, #1348]	@ 0x544
    1de2:	f8d0 2540 	ldr.w	r2, [r0, #1344]	@ 0x540
    1de6:	f413 7f40 	tst.w	r3, #768	@ 0x300
    1dea:	bf14      	ite	ne
    1dec:	430a      	orrne	r2, r1
    1dee:	438a      	biceq	r2, r1
    1df0:	f8c0 2540 	str.w	r2, [r0, #1344]	@ 0x540
    1df4:	b92b      	cbnz	r3, 1e02 <GPIOPadConfigSet+0xfc>
    1df6:	f8d0 3528 	ldr.w	r3, [r0, #1320]	@ 0x528
    1dfa:	4319      	orrs	r1, r3
    1dfc:	f8c0 1528 	str.w	r1, [r0, #1320]	@ 0x528
    1e00:	bdf0      	pop	{r4, r5, r6, r7, pc}
    1e02:	f8d0 3528 	ldr.w	r3, [r0, #1320]	@ 0x528
    1e06:	ea23 0101 	bic.w	r1, r3, r1
    1e0a:	e7f7      	b.n	1dfc <GPIOPadConfigSet+0xf6>

00001e0c <GPIOPinWrite>:
    1e0c:	f840 2021 	str.w	r2, [r0, r1, lsl #2]
    1e10:	4770      	bx	lr

00001e12 <GPIOPinTypeComparatorOutput>:
    1e12:	b510      	push	{r4, lr}
    1e14:	2202      	movs	r2, #2
    1e16:	460c      	mov	r4, r1
    1e18:	f7ff ff62 	bl	1ce0 <GPIODirModeSet>
    1e1c:	4621      	mov	r1, r4
    1e1e:	2308      	movs	r3, #8
    1e20:	e8bd 4010 	ldmia.w	sp!, {r4, lr}
    1e24:	2201      	movs	r2, #1
    1e26:	f7ff bf6e 	b.w	1d06 <GPIOPadConfigSet>

00001e2a <GPIOPinTypePWM>:
    1e2a:	f7ff bff2 	b.w	1e12 <GPIOPinTypeComparatorOutput>
	...

00001e30 <GPIOPinConfigure>:
    1e30:	4b0e      	ldr	r3, [pc, #56]	@ (1e6c <GPIOPinConfigure+0x3c>)
    1e32:	f3c0 4107 	ubfx	r1, r0, #16, #8
    1e36:	b510      	push	{r4, lr}
    1e38:	2201      	movs	r2, #1
    1e3a:	6edc      	ldr	r4, [r3, #108]	@ 0x6c
    1e3c:	408a      	lsls	r2, r1
    1e3e:	004b      	lsls	r3, r1, #1
    1e40:	4222      	tst	r2, r4
    1e42:	bf18      	it	ne
    1e44:	3301      	addne	r3, #1
    1e46:	4a0a      	ldr	r2, [pc, #40]	@ (1e70 <GPIOPinConfigure+0x40>)
    1e48:	f852 2023 	ldr.w	r2, [r2, r3, lsl #2]
    1e4c:	f3c0 2407 	ubfx	r4, r0, #8, #8
    1e50:	f8d2 352c 	ldr.w	r3, [r2, #1324]	@ 0x52c
    1e54:	210f      	movs	r1, #15
    1e56:	40a1      	lsls	r1, r4
    1e58:	f000 000f 	and.w	r0, r0, #15
    1e5c:	ea23 0301 	bic.w	r3, r3, r1
    1e60:	40a0      	lsls	r0, r4
    1e62:	4303      	orrs	r3, r0
    1e64:	f8c2 352c 	str.w	r3, [r2, #1324]	@ 0x52c
    1e68:	bd10      	pop	{r4, pc}
    1e6a:	bf00      	nop
    1e6c:	400fe000 	.word	0x400fe000
    1e70:	00003798 	.word	0x00003798

00001e74 <PWMGenConfigure>:
    1e74:	5843      	ldr	r3, [r0, r1]
    1e76:	b510      	push	{r4, lr}
    1e78:	f36f 0352 	bfc	r3, #1, #18
    1e7c:	4313      	orrs	r3, r2
    1e7e:	5043      	str	r3, [r0, r1]
    1e80:	1844      	adds	r4, r0, r1
    1e82:	0793      	lsls	r3, r2, #30
    1e84:	bf4b      	itete	mi
    1e86:	23b0      	movmi	r3, #176	@ 0xb0
    1e88:	238c      	movpl	r3, #140	@ 0x8c
    1e8a:	6223      	strmi	r3, [r4, #32]
    1e8c:	6223      	strpl	r3, [r4, #32]
    1e8e:	bf4c      	ite	mi
    1e90:	f44f 6330 	movmi.w	r3, #2816	@ 0xb00
    1e94:	f640 030c 	movwpl	r3, #2060	@ 0x80c
    1e98:	6263      	str	r3, [r4, #36]	@ 0x24
    1e9a:	bd10      	pop	{r4, pc}

00001e9c <PWMGenPeriodSet>:
    1e9c:	1843      	adds	r3, r0, r1
    1e9e:	5841      	ldr	r1, [r0, r1]
    1ea0:	0789      	lsls	r1, r1, #30
    1ea2:	bf4c      	ite	mi
    1ea4:	0852      	lsrmi	r2, r2, #1
    1ea6:	f102 32ff 	addpl.w	r2, r2, #4294967295	@ 0xffffffff
    1eaa:	611a      	str	r2, [r3, #16]
    1eac:	4770      	bx	lr

00001eae <PWMGenEnable>:
    1eae:	5843      	ldr	r3, [r0, r1]
    1eb0:	f043 0301 	orr.w	r3, r3, #1
    1eb4:	5043      	str	r3, [r0, r1]
    1eb6:	4770      	bx	lr

00001eb8 <PWMPulseWidthSet>:
    1eb8:	f021 033f 	bic.w	r3, r1, #63	@ 0x3f
    1ebc:	b510      	push	{r4, lr}
    1ebe:	181c      	adds	r4, r3, r0
    1ec0:	581b      	ldr	r3, [r3, r0]
    1ec2:	0798      	lsls	r0, r3, #30
    1ec4:	6923      	ldr	r3, [r4, #16]
    1ec6:	bf48      	it	mi
    1ec8:	0852      	lsrmi	r2, r2, #1
    1eca:	1a9b      	subs	r3, r3, r2
    1ecc:	07ca      	lsls	r2, r1, #31
    1ece:	bf4c      	ite	mi
    1ed0:	61e3      	strmi	r3, [r4, #28]
    1ed2:	61a3      	strpl	r3, [r4, #24]
    1ed4:	bd10      	pop	{r4, pc}

00001ed6 <PWMOutputState>:
    1ed6:	6883      	ldr	r3, [r0, #8]
    1ed8:	b112      	cbz	r2, 1ee0 <PWMOutputState+0xa>
    1eda:	430b      	orrs	r3, r1
    1edc:	6083      	str	r3, [r0, #8]
    1ede:	4770      	bx	lr
    1ee0:	ea23 0301 	bic.w	r3, r3, r1
    1ee4:	e7fa      	b.n	1edc <PWMOutputState+0x6>

00001ee6 <PWMClockSet>:
    1ee6:	f8d0 3fc8 	ldr.w	r3, [r0, #4040]	@ 0xfc8
    1eea:	f423 7383 	bic.w	r3, r3, #262	@ 0x106
    1eee:	f023 0301 	bic.w	r3, r3, #1
    1ef2:	430b      	orrs	r3, r1
    1ef4:	f8c0 3fc8 	str.w	r3, [r0, #4040]	@ 0xfc8
    1ef8:	4770      	bx	lr
	...

00001efc <_SysCtlMemTimingGet>:
    1efc:	4b11      	ldr	r3, [pc, #68]	@ (1f44 <_SysCtlMemTimingGet+0x48>)
    1efe:	4298      	cmp	r0, r3
    1f00:	d914      	bls.n	1f2c <_SysCtlMemTimingGet+0x30>
    1f02:	4b11      	ldr	r3, [pc, #68]	@ (1f48 <_SysCtlMemTimingGet+0x4c>)
    1f04:	4298      	cmp	r0, r3
    1f06:	d913      	bls.n	1f30 <_SysCtlMemTimingGet+0x34>
    1f08:	4b10      	ldr	r3, [pc, #64]	@ (1f4c <_SysCtlMemTimingGet+0x50>)
    1f0a:	4298      	cmp	r0, r3
    1f0c:	d912      	bls.n	1f34 <_SysCtlMemTimingGet+0x38>
    1f0e:	4b10      	ldr	r3, [pc, #64]	@ (1f50 <_SysCtlMemTimingGet+0x54>)
    1f10:	4298      	cmp	r0, r3
    1f12:	d911      	bls.n	1f38 <_SysCtlMemTimingGet+0x3c>
    1f14:	4b0f      	ldr	r3, [pc, #60]	@ (1f54 <_SysCtlMemTimingGet+0x58>)
    1f16:	4298      	cmp	r0, r3
    1f18:	d910      	bls.n	1f3c <_SysCtlMemTimingGet+0x40>
    1f1a:	4b0f      	ldr	r3, [pc, #60]	@ (1f58 <_SysCtlMemTimingGet+0x5c>)
    1f1c:	4298      	cmp	r0, r3
    1f1e:	d80f      	bhi.n	1f40 <_SysCtlMemTimingGet+0x44>
    1f20:	2305      	movs	r3, #5
    1f22:	4a0e      	ldr	r2, [pc, #56]	@ (1f5c <_SysCtlMemTimingGet+0x60>)
    1f24:	eb02 03c3 	add.w	r3, r2, r3, lsl #3
    1f28:	6858      	ldr	r0, [r3, #4]
    1f2a:	4770      	bx	lr
    1f2c:	2300      	movs	r3, #0
    1f2e:	e7f8      	b.n	1f22 <_SysCtlMemTimingGet+0x26>
    1f30:	2301      	movs	r3, #1
    1f32:	e7f6      	b.n	1f22 <_SysCtlMemTimingGet+0x26>
    1f34:	2302      	movs	r3, #2
    1f36:	e7f4      	b.n	1f22 <_SysCtlMemTimingGet+0x26>
    1f38:	2303      	movs	r3, #3
    1f3a:	e7f2      	b.n	1f22 <_SysCtlMemTimingGet+0x26>
    1f3c:	2304      	movs	r3, #4
    1f3e:	e7f0      	b.n	1f22 <_SysCtlMemTimingGet+0x26>
    1f40:	2000      	movs	r0, #0
    1f42:	4770      	bx	lr
    1f44:	00f42400 	.word	0x00f42400
    1f48:	02625a00 	.word	0x02625a00
    1f4c:	03938700 	.word	0x03938700
    1f50:	04c4b400 	.word	0x04c4b400
    1f54:	05f5e100 	.word	0x05f5e100
    1f58:	07270e00 	.word	0x07270e00
    1f5c:	00003830 	.word	0x00003830

00001f60 <SysCtlPeripheralReady>:
    1f60:	4b07      	ldr	r3, [pc, #28]	@ (1f80 <SysCtlPeripheralReady+0x20>)
    1f62:	f3c0 2207 	ubfx	r2, r0, #8, #8
    1f66:	0080      	lsls	r0, r0, #2
    1f68:	4413      	add	r3, r2
    1f6a:	f400 707f 	and.w	r0, r0, #1020	@ 0x3fc
    1f6e:	ea40 1043 	orr.w	r0, r0, r3, lsl #5
    1f72:	f040 4084 	orr.w	r0, r0, #1107296256	@ 0x42000000
    1f76:	6800      	ldr	r0, [r0, #0]
    1f78:	3800      	subs	r0, #0
    1f7a:	bf18      	it	ne
    1f7c:	2001      	movne	r0, #1
    1f7e:	4770      	bx	lr
    1f80:	400fea00 	.word	0x400fea00

00001f84 <SysCtlPeripheralEnable>:
    1f84:	4b06      	ldr	r3, [pc, #24]	@ (1fa0 <SysCtlPeripheralEnable+0x1c>)
    1f86:	f3c0 2207 	ubfx	r2, r0, #8, #8
    1f8a:	0080      	lsls	r0, r0, #2
    1f8c:	4413      	add	r3, r2
    1f8e:	f400 707f 	and.w	r0, r0, #1020	@ 0x3fc
    1f92:	ea40 1043 	orr.w	r0, r0, r3, lsl #5
    1f96:	f040 4084 	orr.w	r0, r0, #1107296256	@ 0x42000000
    1f9a:	2301      	movs	r3, #1
    1f9c:	6003      	str	r3, [r0, #0]
    1f9e:	4770      	bx	lr
    1fa0:	400fe600 	.word	0x400fe600

00001fa4 <SysCtlDelay>:
    1fa4:	3801      	subs	r0, #1
    1fa6:	f47f affd 	bne.w	1fa4 <SysCtlDelay>
    1faa:	4770      	bx	lr

00001fac <SysCtlClockFreqSet>:
    1fac:	4a86      	ldr	r2, [pc, #536]	@ (21c8 <_stack_size+0x1c8>)
    1fae:	4b87      	ldr	r3, [pc, #540]	@ (21cc <_stack_size+0x1cc>)
    1fb0:	e92d 41f0 	stmdb	sp!, {r4, r5, r6, r7, r8, lr}
    1fb4:	6814      	ldr	r4, [r2, #0]
    1fb6:	4023      	ands	r3, r4
    1fb8:	4c85      	ldr	r4, [pc, #532]	@ (21d0 <_stack_size+0x1d0>)
    1fba:	42a3      	cmp	r3, r4
    1fbc:	d102      	bne.n	1fc4 <SysCtlClockFreqSet+0x18>
    1fbe:	2000      	movs	r0, #0
    1fc0:	e8bd 81f0 	ldmia.w	sp!, {r4, r5, r6, r7, r8, pc}
    1fc4:	f000 0338 	and.w	r3, r0, #56	@ 0x38
    1fc8:	2b10      	cmp	r3, #16
    1fca:	f000 80af 	beq.w	212c <_stack_size+0x12c>
    1fce:	2b30      	cmp	r3, #48	@ 0x30
    1fd0:	f3c0 1884 	ubfx	r8, r0, #6, #5
    1fd4:	f000 80af 	beq.w	2136 <_stack_size+0x136>
    1fd8:	2b38      	cmp	r3, #56	@ 0x38
    1fda:	f000 80b1 	beq.w	2140 <_stack_size+0x140>
    1fde:	2b00      	cmp	r3, #0
    1fe0:	f040 80b3 	bne.w	214a <_stack_size+0x14a>
    1fe4:	f1a8 0309 	sub.w	r3, r8, #9
    1fe8:	2b11      	cmp	r3, #17
    1fea:	d8e8      	bhi.n	1fbe <SysCtlClockFreqSet+0x12>
    1fec:	4b79      	ldr	r3, [pc, #484]	@ (21d4 <_stack_size+0x1d4>)
    1fee:	f853 7028 	ldr.w	r7, [r3, r8, lsl #2]
    1ff2:	6fd3      	ldr	r3, [r2, #124]	@ 0x7c
    1ff4:	f023 031c 	bic.w	r3, r3, #28
    1ff8:	f043 0310 	orr.w	r3, r3, #16
    1ffc:	67d3      	str	r3, [r2, #124]	@ 0x7c
    1ffe:	f44f 2300 	mov.w	r3, #524288	@ 0x80000
    2002:	6d14      	ldr	r4, [r2, #80]	@ 0x50
    2004:	05e4      	lsls	r4, r4, #23
    2006:	f140 808d 	bpl.w	2124 <_stack_size+0x124>
    200a:	f04f 764c 	mov.w	r6, #53477376	@ 0x3300000
    200e:	f410 5f60 	tst.w	r0, #14336	@ 0x3800
    2012:	f040 809d 	bne.w	2150 <_stack_size+0x150>
    2016:	f010 0f28 	tst.w	r0, #40	@ 0x28
    201a:	d1d0      	bne.n	1fbe <SysCtlClockFreqSet+0x12>
    201c:	f3c0 6402 	ubfx	r4, r0, #24, #3
    2020:	486d      	ldr	r0, [pc, #436]	@ (21d8 <_stack_size+0x1d8>)
    2022:	4d69      	ldr	r5, [pc, #420]	@ (21c8 <_stack_size+0x1c8>)
    2024:	f7ff ff6a 	bl	1efc <_SysCtlMemTimingGet>
    2028:	f8c5 00c0 	str.w	r0, [r5, #192]	@ 0xc0
    202c:	f8d5 20b0 	ldr.w	r2, [r5, #176]	@ 0xb0
    2030:	4b6a      	ldr	r3, [pc, #424]	@ (21dc <_stack_size+0x1dc>)
    2032:	4013      	ands	r3, r2
    2034:	f043 4300 	orr.w	r3, r3, #2147483648	@ 0x80000000
    2038:	f8c5 30b0 	str.w	r3, [r5, #176]	@ 0xb0
    203c:	4b68      	ldr	r3, [pc, #416]	@ (21e0 <_stack_size+0x1e0>)
    203e:	f853 3024 	ldr.w	r3, [r3, r4, lsl #2]
    2042:	1e4a      	subs	r2, r1, #1
    2044:	441a      	add	r2, r3
    2046:	f8d5 30b0 	ldr.w	r3, [r5, #176]	@ 0xb0
    204a:	fbb2 f2f1 	udiv	r2, r2, r1
    204e:	4333      	orrs	r3, r6
    2050:	f8c5 30b0 	str.w	r3, [r5, #176]	@ 0xb0
    2054:	23d8      	movs	r3, #216	@ 0xd8
    2056:	4963      	ldr	r1, [pc, #396]	@ (21e4 <_stack_size+0x1e4>)
    2058:	fb03 f004 	mul.w	r0, r3, r4
    205c:	f1a8 0809 	sub.w	r8, r8, #9
    2060:	230c      	movs	r3, #12
    2062:	fb03 0008 	mla	r0, r3, r8, r0
    2066:	180b      	adds	r3, r1, r0
    2068:	3a01      	subs	r2, #1
    206a:	685b      	ldr	r3, [r3, #4]
    206c:	f8c5 3164 	str.w	r3, [r5, #356]	@ 0x164
    2070:	f8d5 3164 	ldr.w	r3, [r5, #356]	@ 0x164
    2074:	ea43 2302 	orr.w	r3, r3, r2, lsl #8
    2078:	f8c5 3164 	str.w	r3, [r5, #356]	@ 0x164
    207c:	f8d5 3160 	ldr.w	r3, [r5, #352]	@ 0x160
    2080:	580a      	ldr	r2, [r1, r0]
    2082:	f403 0300 	and.w	r3, r3, #8388608	@ 0x800000
    2086:	4313      	orrs	r3, r2
    2088:	f8c5 3160 	str.w	r3, [r5, #352]	@ 0x160
    208c:	f8d5 3160 	ldr.w	r3, [r5, #352]	@ 0x160
    2090:	f8d5 4160 	ldr.w	r4, [r5, #352]	@ 0x160
    2094:	f8d5 0164 	ldr.w	r0, [r5, #356]	@ 0x164
    2098:	f8d5 1164 	ldr.w	r1, [r5, #356]	@ 0x164
    209c:	0a9a      	lsrs	r2, r3, #10
    209e:	f001 011f 	and.w	r1, r1, #31
    20a2:	f3c3 2389 	ubfx	r3, r3, #10, #10
    20a6:	3101      	adds	r1, #1
    20a8:	f402 7278 	and.w	r2, r2, #992	@ 0x3e0
    20ac:	fbb7 f1f1 	udiv	r1, r7, r1
    20b0:	f3c4 0709 	ubfx	r7, r4, #0, #10
    20b4:	095c      	lsrs	r4, r3, #5
    20b6:	1a9a      	subs	r2, r3, r2
    20b8:	434c      	muls	r4, r1
    20ba:	434a      	muls	r2, r1
    20bc:	0964      	lsrs	r4, r4, #5
    20be:	eb04 2492 	add.w	r4, r4, r2, lsr #10
    20c2:	f3c0 2004 	ubfx	r0, r0, #8, #5
    20c6:	3001      	adds	r0, #1
    20c8:	fb01 4407 	mla	r4, r1, r7, r4
    20cc:	fbb4 f4f0 	udiv	r4, r4, r0
    20d0:	0864      	lsrs	r4, r4, #1
    20d2:	4620      	mov	r0, r4
    20d4:	f7ff ff12 	bl	1efc <_SysCtlMemTimingGet>
    20d8:	f8c5 00c0 	str.w	r0, [r5, #192]	@ 0xc0
    20dc:	f8d5 3160 	ldr.w	r3, [r5, #352]	@ 0x160
    20e0:	4a39      	ldr	r2, [pc, #228]	@ (21c8 <_stack_size+0x1c8>)
    20e2:	021b      	lsls	r3, r3, #8
    20e4:	bf4b      	itete	mi
    20e6:	f8d5 30b0 	ldrmi.w	r3, [r5, #176]	@ 0xb0
    20ea:	f8d5 3160 	ldrpl.w	r3, [r5, #352]	@ 0x160
    20ee:	f043 4380 	orrmi.w	r3, r3, #1073741824	@ 0x40000000
    20f2:	f443 0300 	orrpl.w	r3, r3, #8388608	@ 0x800000
    20f6:	bf4c      	ite	mi
    20f8:	f8c5 30b0 	strmi.w	r3, [r5, #176]	@ 0xb0
    20fc:	f8c5 3160 	strpl.w	r3, [r5, #352]	@ 0x160
    2100:	f44f 4300 	mov.w	r3, #32768	@ 0x8000
    2104:	f8d2 1168 	ldr.w	r1, [r2, #360]	@ 0x168
    2108:	f011 0101 	ands.w	r1, r1, #1
    210c:	d150      	bne.n	21b0 <_stack_size+0x1b0>
    210e:	3b01      	subs	r3, #1
    2110:	d1f8      	bne.n	2104 <_stack_size+0x104>
    2112:	4a2d      	ldr	r2, [pc, #180]	@ (21c8 <_stack_size+0x1c8>)
    2114:	f8d2 30b0 	ldr.w	r3, [r2, #176]	@ 0xb0
    2118:	f423 0370 	bic.w	r3, r3, #15728640	@ 0xf00000
    211c:	f8c2 30b0 	str.w	r3, [r2, #176]	@ 0xb0
    2120:	4608      	mov	r0, r1
    2122:	e74d      	b.n	1fc0 <SysCtlClockFreqSet+0x14>
    2124:	3b01      	subs	r3, #1
    2126:	f47f af6c 	bne.w	2002 <_stack_size+0x2>
    212a:	e748      	b.n	1fbe <SysCtlClockFreqSet+0x12>
    212c:	4f2e      	ldr	r7, [pc, #184]	@ (21e8 <_stack_size+0x1e8>)
    212e:	2600      	movs	r6, #0
    2130:	f04f 0815 	mov.w	r8, #21
    2134:	e76b      	b.n	200e <_stack_size+0xe>
    2136:	f44f 1600 	mov.w	r6, #2097152	@ 0x200000
    213a:	f247 5730 	movw	r7, #30000	@ 0x7530
    213e:	e766      	b.n	200e <_stack_size+0xe>
    2140:	f44f 0680 	mov.w	r6, #4194304	@ 0x400000
    2144:	f44f 4700 	mov.w	r7, #32768	@ 0x8000
    2148:	e761      	b.n	200e <_stack_size+0xe>
    214a:	2600      	movs	r6, #0
    214c:	4637      	mov	r7, r6
    214e:	e75e      	b.n	200e <_stack_size+0xe>
    2150:	4825      	ldr	r0, [pc, #148]	@ (21e8 <_stack_size+0x1e8>)
    2152:	f7ff fed3 	bl	1efc <_SysCtlMemTimingGet>
    2156:	4b1c      	ldr	r3, [pc, #112]	@ (21c8 <_stack_size+0x1c8>)
    2158:	f8c3 00c0 	str.w	r0, [r3, #192]	@ 0xc0
    215c:	f8d3 2160 	ldr.w	r2, [r3, #352]	@ 0x160
    2160:	f422 0200 	bic.w	r2, r2, #8388608	@ 0x800000
    2164:	f8c3 2160 	str.w	r2, [r3, #352]	@ 0x160
    2168:	f8d3 00b0 	ldr.w	r0, [r3, #176]	@ 0xb0
    216c:	4a1f      	ldr	r2, [pc, #124]	@ (21ec <_stack_size+0x1ec>)
    216e:	4002      	ands	r2, r0
    2170:	f042 4200 	orr.w	r2, r2, #2147483648	@ 0x80000000
    2174:	f8c3 20b0 	str.w	r2, [r3, #176]	@ 0xb0
    2178:	b1c1      	cbz	r1, 21ac <_stack_size+0x1ac>
    217a:	fbb7 f4f1 	udiv	r4, r7, r1
    217e:	428f      	cmp	r7, r1
    2180:	bf28      	it	cs
    2182:	f104 34ff 	addcs.w	r4, r4, #4294967295	@ 0xffffffff
    2186:	1c61      	adds	r1, r4, #1
    2188:	fbb7 f1f1 	udiv	r1, r7, r1
    218c:	4608      	mov	r0, r1
    218e:	f7ff feb5 	bl	1efc <_SysCtlMemTimingGet>
    2192:	4a0d      	ldr	r2, [pc, #52]	@ (21c8 <_stack_size+0x1c8>)
    2194:	f8c2 00c0 	str.w	r0, [r2, #192]	@ 0xc0
    2198:	f8d2 30b0 	ldr.w	r3, [r2, #176]	@ 0xb0
    219c:	ea43 2384 	orr.w	r3, r3, r4, lsl #10
    21a0:	4333      	orrs	r3, r6
    21a2:	f043 4300 	orr.w	r3, r3, #2147483648	@ 0x80000000
    21a6:	f8c2 30b0 	str.w	r3, [r2, #176]	@ 0xb0
    21aa:	e7b2      	b.n	2112 <_stack_size+0x112>
    21ac:	460c      	mov	r4, r1
    21ae:	e7ed      	b.n	218c <_stack_size+0x18c>
    21b0:	f8d2 30b0 	ldr.w	r3, [r2, #176]	@ 0xb0
    21b4:	4333      	orrs	r3, r6
    21b6:	f043 4310 	orr.w	r3, r3, #2415919104	@ 0x90000000
    21ba:	f043 0301 	orr.w	r3, r3, #1
    21be:	f8c2 30b0 	str.w	r3, [r2, #176]	@ 0xb0
    21c2:	4621      	mov	r1, r4
    21c4:	e7a5      	b.n	2112 <_stack_size+0x112>
    21c6:	bf00      	nop
    21c8:	400fe000 	.word	0x400fe000
    21cc:	70ff0000 	.word	0x70ff0000
    21d0:	10050000 	.word	0x10050000
    21d4:	00003a10 	.word	0x00003a10
    21d8:	017d7840 	.word	0x017d7840
    21dc:	e00ffc00 	.word	0xe00ffc00
    21e0:	00003828 	.word	0x00003828
    21e4:	00003860 	.word	0x00003860
    21e8:	00f42400 	.word	0x00f42400
    21ec:	ef0003ff 	.word	0xef0003ff

000021f0 <strncpy>:
    21f0:	ea40 0301 	orr.w	r3, r0, r1
    21f4:	079b      	lsls	r3, r3, #30
    21f6:	b510      	push	{r4, lr}
    21f8:	d101      	bne.n	21fe <strncpy+0xe>
    21fa:	2a03      	cmp	r2, #3
    21fc:	d817      	bhi.n	222e <strncpy+0x3e>
    21fe:	4684      	mov	ip, r0
    2200:	f101 3eff 	add.w	lr, r1, #4294967295	@ 0xffffffff
    2204:	e007      	b.n	2216 <strncpy+0x26>
    2206:	f81e 1f01 	ldrb.w	r1, [lr, #1]!
    220a:	f803 1b01 	strb.w	r1, [r3], #1
    220e:	1e54      	subs	r4, r2, #1
    2210:	b129      	cbz	r1, 221e <strncpy+0x2e>
    2212:	469c      	mov	ip, r3
    2214:	4622      	mov	r2, r4
    2216:	4663      	mov	r3, ip
    2218:	2a00      	cmp	r2, #0
    221a:	d1f4      	bne.n	2206 <strncpy+0x16>
    221c:	bd10      	pop	{r4, pc}
    221e:	4494      	add	ip, r2
    2220:	2c00      	cmp	r4, #0
    2222:	d0fb      	beq.n	221c <strncpy+0x2c>
    2224:	f803 1b01 	strb.w	r1, [r3], #1
    2228:	4563      	cmp	r3, ip
    222a:	d1fb      	bne.n	2224 <strncpy+0x34>
    222c:	bd10      	pop	{r4, pc}
    222e:	468e      	mov	lr, r1
    2230:	4684      	mov	ip, r0
    2232:	f8de 4000 	ldr.w	r4, [lr]
    2236:	f1a4 3301 	sub.w	r3, r4, #16843009	@ 0x1010101
    223a:	ea23 0304 	bic.w	r3, r3, r4
    223e:	f013 3f80 	tst.w	r3, #2155905152	@ 0x80808080
    2242:	4671      	mov	r1, lr
    2244:	f10e 0e04 	add.w	lr, lr, #4
    2248:	d1da      	bne.n	2200 <strncpy+0x10>
    224a:	3a04      	subs	r2, #4
    224c:	2a03      	cmp	r2, #3
    224e:	f84c 4b04 	str.w	r4, [ip], #4
    2252:	d8ee      	bhi.n	2232 <strncpy+0x42>
    2254:	4671      	mov	r1, lr
    2256:	e7d3      	b.n	2200 <strncpy+0x10>
	...

00002280 <strlen>:
    2280:	b430      	push	{r4, r5}
    2282:	f890 f000 	pld	[r0]
    2286:	f020 0107 	bic.w	r1, r0, #7
    228a:	f06f 0c00 	mvn.w	ip, #0
    228e:	f010 0407 	ands.w	r4, r0, #7
    2292:	f891 f020 	pld	[r1, #32]
    2296:	f040 8048 	bne.w	232a <strlen+0xaa>
    229a:	f04f 0400 	mov.w	r4, #0
    229e:	f06f 0007 	mvn.w	r0, #7
    22a2:	e9d1 2300 	ldrd	r2, r3, [r1]
    22a6:	f891 f040 	pld	[r1, #64]	@ 0x40
    22aa:	f100 0008 	add.w	r0, r0, #8
    22ae:	fa82 f24c 	uadd8	r2, r2, ip
    22b2:	faa4 f28c 	sel	r2, r4, ip
    22b6:	fa83 f34c 	uadd8	r3, r3, ip
    22ba:	faa2 f38c 	sel	r3, r2, ip
    22be:	bb4b      	cbnz	r3, 2314 <strlen+0x94>
    22c0:	e9d1 2302 	ldrd	r2, r3, [r1, #8]
    22c4:	fa82 f24c 	uadd8	r2, r2, ip
    22c8:	f100 0008 	add.w	r0, r0, #8
    22cc:	faa4 f28c 	sel	r2, r4, ip
    22d0:	fa83 f34c 	uadd8	r3, r3, ip
    22d4:	faa2 f38c 	sel	r3, r2, ip
    22d8:	b9e3      	cbnz	r3, 2314 <strlen+0x94>
    22da:	e9d1 2304 	ldrd	r2, r3, [r1, #16]
    22de:	fa82 f24c 	uadd8	r2, r2, ip
    22e2:	f100 0008 	add.w	r0, r0, #8
    22e6:	faa4 f28c 	sel	r2, r4, ip
    22ea:	fa83 f34c 	uadd8	r3, r3, ip
    22ee:	faa2 f38c 	sel	r3, r2, ip
    22f2:	b97b      	cbnz	r3, 2314 <strlen+0x94>
    22f4:	e9d1 2306 	ldrd	r2, r3, [r1, #24]
    22f8:	f101 0120 	add.w	r1, r1, #32
    22fc:	fa82 f24c 	uadd8	r2, r2, ip
    2300:	f100 0008 	add.w	r0, r0, #8
    2304:	faa4 f28c 	sel	r2, r4, ip
    2308:	fa83 f34c 	uadd8	r3, r3, ip
    230c:	faa2 f38c 	sel	r3, r2, ip
    2310:	2b00      	cmp	r3, #0
    2312:	d0c6      	beq.n	22a2 <strlen+0x22>
    2314:	2a00      	cmp	r2, #0
    2316:	bf04      	itt	eq
    2318:	3004      	addeq	r0, #4
    231a:	461a      	moveq	r2, r3
    231c:	ba12      	rev	r2, r2
    231e:	fab2 f282 	clz	r2, r2
    2322:	eb00 00d2 	add.w	r0, r0, r2, lsr #3
    2326:	bc30      	pop	{r4, r5}
    2328:	4770      	bx	lr
    232a:	e9d1 2300 	ldrd	r2, r3, [r1]
    232e:	f004 0503 	and.w	r5, r4, #3
    2332:	f1c4 0000 	rsb	r0, r4, #0
    2336:	ea4f 05c5 	mov.w	r5, r5, lsl #3
    233a:	f014 0f04 	tst.w	r4, #4
    233e:	f891 f040 	pld	[r1, #64]	@ 0x40
    2342:	fa0c f505 	lsl.w	r5, ip, r5
    2346:	ea62 0205 	orn	r2, r2, r5
    234a:	bf1c      	itt	ne
    234c:	ea63 0305 	ornne	r3, r3, r5
    2350:	4662      	movne	r2, ip
    2352:	f04f 0400 	mov.w	r4, #0
    2356:	e7aa      	b.n	22ae <strlen+0x2e>
	...

00002360 <strcmp>:
    2360:	7802      	ldrb	r2, [r0, #0]
    2362:	780b      	ldrb	r3, [r1, #0]
    2364:	2a01      	cmp	r2, #1
    2366:	bf28      	it	cs
    2368:	429a      	cmpcs	r2, r3
    236a:	f040 80d8 	bne.w	251e <strcmp+0x1be>
    236e:	e96d 4504 	strd	r4, r5, [sp, #-16]!
    2372:	ea40 0401 	orr.w	r4, r0, r1
    2376:	e9cd 6702 	strd	r6, r7, [sp, #8]
    237a:	f06f 0c00 	mvn.w	ip, #0
    237e:	ea4f 7244 	mov.w	r2, r4, lsl #29
    2382:	b31a      	cbz	r2, 23cc <strcmp+0x6c>
    2384:	ea80 0401 	eor.w	r4, r0, r1
    2388:	f014 0f07 	tst.w	r4, #7
    238c:	d16b      	bne.n	2466 <strcmp+0x106>
    238e:	f000 0407 	and.w	r4, r0, #7
    2392:	f020 0007 	bic.w	r0, r0, #7
    2396:	f004 0503 	and.w	r5, r4, #3
    239a:	f021 0107 	bic.w	r1, r1, #7
    239e:	ea4f 05c5 	mov.w	r5, r5, lsl #3
    23a2:	e8f0 2304 	ldrd	r2, r3, [r0], #16
    23a6:	f014 0f04 	tst.w	r4, #4
    23aa:	e8f1 6704 	ldrd	r6, r7, [r1], #16
    23ae:	fa0c f405 	lsl.w	r4, ip, r5
    23b2:	ea62 0204 	orn	r2, r2, r4
    23b6:	ea66 0604 	orn	r6, r6, r4
    23ba:	d00b      	beq.n	23d4 <strcmp+0x74>
    23bc:	ea63 0304 	orn	r3, r3, r4
    23c0:	4662      	mov	r2, ip
    23c2:	ea67 0704 	orn	r7, r7, r4
    23c6:	4666      	mov	r6, ip
    23c8:	e004      	b.n	23d4 <strcmp+0x74>
    23ca:	bf00      	nop
    23cc:	e8f0 2304 	ldrd	r2, r3, [r0], #16
    23d0:	e8f1 6704 	ldrd	r6, r7, [r1], #16
    23d4:	fa82 f54c 	uadd8	r5, r2, ip
    23d8:	ea82 0406 	eor.w	r4, r2, r6
    23dc:	faa4 f48c 	sel	r4, r4, ip
    23e0:	bb6c      	cbnz	r4, 243e <strcmp+0xde>
    23e2:	fa83 f54c 	uadd8	r5, r3, ip
    23e6:	ea83 0507 	eor.w	r5, r3, r7
    23ea:	faa5 f58c 	sel	r5, r5, ip
    23ee:	b995      	cbnz	r5, 2416 <strcmp+0xb6>
    23f0:	e950 2302 	ldrd	r2, r3, [r0, #-8]
    23f4:	e951 6702 	ldrd	r6, r7, [r1, #-8]
    23f8:	fa82 f54c 	uadd8	r5, r2, ip
    23fc:	ea82 0406 	eor.w	r4, r2, r6
    2400:	faa4 f48c 	sel	r4, r4, ip
    2404:	fa83 f54c 	uadd8	r5, r3, ip
    2408:	ea83 0507 	eor.w	r5, r3, r7
    240c:	faa5 f58c 	sel	r5, r5, ip
    2410:	4325      	orrs	r5, r4
    2412:	d0db      	beq.n	23cc <strcmp+0x6c>
    2414:	b99c      	cbnz	r4, 243e <strcmp+0xde>
    2416:	ba2d      	rev	r5, r5
    2418:	fab5 f485 	clz	r4, r5
    241c:	f024 0407 	bic.w	r4, r4, #7
    2420:	fa27 f104 	lsr.w	r1, r7, r4
    2424:	e9dd 6702 	ldrd	r6, r7, [sp, #8]
    2428:	fa23 f304 	lsr.w	r3, r3, r4
    242c:	f003 00ff 	and.w	r0, r3, #255	@ 0xff
    2430:	f001 01ff 	and.w	r1, r1, #255	@ 0xff
    2434:	e8fd 4504 	ldrd	r4, r5, [sp], #16
    2438:	eba0 0001 	sub.w	r0, r0, r1
    243c:	4770      	bx	lr
    243e:	ba24      	rev	r4, r4
    2440:	fab4 f484 	clz	r4, r4
    2444:	f024 0407 	bic.w	r4, r4, #7
    2448:	fa26 f104 	lsr.w	r1, r6, r4
    244c:	e9dd 6702 	ldrd	r6, r7, [sp, #8]
    2450:	fa22 f204 	lsr.w	r2, r2, r4
    2454:	f002 00ff 	and.w	r0, r2, #255	@ 0xff
    2458:	f001 01ff 	and.w	r1, r1, #255	@ 0xff
    245c:	e8fd 4504 	ldrd	r4, r5, [sp], #16
    2460:	eba0 0001 	sub.w	r0, r0, r1
    2464:	4770      	bx	lr
    2466:	f014 0f03 	tst.w	r4, #3
    246a:	d13c      	bne.n	24e6 <strcmp+0x186>
    246c:	f010 0403 	ands.w	r4, r0, #3
    2470:	d128      	bne.n	24c4 <strcmp+0x164>
    2472:	f850 2b08 	ldr.w	r2, [r0], #8
    2476:	f851 3b08 	ldr.w	r3, [r1], #8
    247a:	fa82 f54c 	uadd8	r5, r2, ip
    247e:	ea82 0503 	eor.w	r5, r2, r3
    2482:	faa5 f58c 	sel	r5, r5, ip
    2486:	b95d      	cbnz	r5, 24a0 <strcmp+0x140>
    2488:	f850 2c04 	ldr.w	r2, [r0, #-4]
    248c:	f851 3c04 	ldr.w	r3, [r1, #-4]
    2490:	fa82 f54c 	uadd8	r5, r2, ip
    2494:	ea82 0503 	eor.w	r5, r2, r3
    2498:	faa5 f58c 	sel	r5, r5, ip
    249c:	2d00      	cmp	r5, #0
    249e:	d0e8      	beq.n	2472 <strcmp+0x112>
    24a0:	ba2d      	rev	r5, r5
    24a2:	fab5 f485 	clz	r4, r5
    24a6:	f024 0407 	bic.w	r4, r4, #7
    24aa:	fa23 f104 	lsr.w	r1, r3, r4
    24ae:	fa22 f204 	lsr.w	r2, r2, r4
    24b2:	f002 00ff 	and.w	r0, r2, #255	@ 0xff
    24b6:	f001 01ff 	and.w	r1, r1, #255	@ 0xff
    24ba:	e8fd 4504 	ldrd	r4, r5, [sp], #16
    24be:	eba0 0001 	sub.w	r0, r0, r1
    24c2:	4770      	bx	lr
    24c4:	ea4f 04c4 	mov.w	r4, r4, lsl #3
    24c8:	f020 0003 	bic.w	r0, r0, #3
    24cc:	f850 2b08 	ldr.w	r2, [r0], #8
    24d0:	f021 0103 	bic.w	r1, r1, #3
    24d4:	f851 3b08 	ldr.w	r3, [r1], #8
    24d8:	fa0c f404 	lsl.w	r4, ip, r4
    24dc:	ea62 0204 	orn	r2, r2, r4
    24e0:	ea63 0304 	orn	r3, r3, r4
    24e4:	e7c9      	b.n	247a <strcmp+0x11a>
    24e6:	f010 0403 	ands.w	r4, r0, #3
    24ea:	d01d      	beq.n	2528 <strcmp+0x1c8>
    24ec:	eba1 0104 	sub.w	r1, r1, r4
    24f0:	f020 0003 	bic.w	r0, r0, #3
    24f4:	07e4      	lsls	r4, r4, #31
    24f6:	f850 2b04 	ldr.w	r2, [r0], #4
    24fa:	d006      	beq.n	250a <strcmp+0x1aa>
    24fc:	d212      	bcs.n	2524 <strcmp+0x1c4>
    24fe:	788b      	ldrb	r3, [r1, #2]
    2500:	fa5f f4a2 	uxtb.w	r4, r2, ror #16
    2504:	1ae4      	subs	r4, r4, r3
    2506:	d106      	bne.n	2516 <strcmp+0x1b6>
    2508:	b12b      	cbz	r3, 2516 <strcmp+0x1b6>
    250a:	78cb      	ldrb	r3, [r1, #3]
    250c:	fa5f f4b2 	uxtb.w	r4, r2, ror #24
    2510:	1ae4      	subs	r4, r4, r3
    2512:	d100      	bne.n	2516 <strcmp+0x1b6>
    2514:	b933      	cbnz	r3, 2524 <strcmp+0x1c4>
    2516:	4620      	mov	r0, r4
    2518:	f85d 4b10 	ldr.w	r4, [sp], #16
    251c:	4770      	bx	lr
    251e:	eba2 0003 	sub.w	r0, r2, r3
    2522:	4770      	bx	lr
    2524:	f101 0104 	add.w	r1, r1, #4
    2528:	f850 2b04 	ldr.w	r2, [r0], #4
    252c:	07cc      	lsls	r4, r1, #31
    252e:	f021 0103 	bic.w	r1, r1, #3
    2532:	f851 3b04 	ldr.w	r3, [r1], #4
    2536:	d848      	bhi.n	25ca <strcmp+0x26a>
    2538:	d224      	bcs.n	2584 <strcmp+0x224>
    253a:	f022 447f 	bic.w	r4, r2, #4278190080	@ 0xff000000
    253e:	fa82 f54c 	uadd8	r5, r2, ip
    2542:	ea94 2513 	eors.w	r5, r4, r3, lsr #8
    2546:	faa5 f58c 	sel	r5, r5, ip
    254a:	d10a      	bne.n	2562 <strcmp+0x202>
    254c:	b965      	cbnz	r5, 2568 <strcmp+0x208>
    254e:	f851 3b04 	ldr.w	r3, [r1], #4
    2552:	ea84 0402 	eor.w	r4, r4, r2
    2556:	ebb4 6f03 	cmp.w	r4, r3, lsl #24
    255a:	d10e      	bne.n	257a <strcmp+0x21a>
    255c:	f850 2b04 	ldr.w	r2, [r0], #4
    2560:	e7eb      	b.n	253a <strcmp+0x1da>
    2562:	ea4f 2313 	mov.w	r3, r3, lsr #8
    2566:	e055      	b.n	2614 <strcmp+0x2b4>
    2568:	f035 457f 	bics.w	r5, r5, #4278190080	@ 0xff000000
    256c:	d14d      	bne.n	260a <strcmp+0x2aa>
    256e:	7808      	ldrb	r0, [r1, #0]
    2570:	e8fd 4504 	ldrd	r4, r5, [sp], #16
    2574:	f1c0 0000 	rsb	r0, r0, #0
    2578:	4770      	bx	lr
    257a:	ea4f 6212 	mov.w	r2, r2, lsr #24
    257e:	f003 03ff 	and.w	r3, r3, #255	@ 0xff
    2582:	e047      	b.n	2614 <strcmp+0x2b4>
    2584:	ea02 441c 	and.w	r4, r2, ip, lsr #16
    2588:	fa82 f54c 	uadd8	r5, r2, ip
    258c:	ea94 4513 	eors.w	r5, r4, r3, lsr #16
    2590:	faa5 f58c 	sel	r5, r5, ip
    2594:	d10a      	bne.n	25ac <strcmp+0x24c>
    2596:	b965      	cbnz	r5, 25b2 <strcmp+0x252>
    2598:	f851 3b04 	ldr.w	r3, [r1], #4
    259c:	ea84 0402 	eor.w	r4, r4, r2
    25a0:	ebb4 4f03 	cmp.w	r4, r3, lsl #16
    25a4:	d10c      	bne.n	25c0 <strcmp+0x260>
    25a6:	f850 2b04 	ldr.w	r2, [r0], #4
    25aa:	e7eb      	b.n	2584 <strcmp+0x224>
    25ac:	ea4f 4313 	mov.w	r3, r3, lsr #16
    25b0:	e030      	b.n	2614 <strcmp+0x2b4>
    25b2:	ea15 451c 	ands.w	r5, r5, ip, lsr #16
    25b6:	d128      	bne.n	260a <strcmp+0x2aa>
    25b8:	880b      	ldrh	r3, [r1, #0]
    25ba:	ea4f 4212 	mov.w	r2, r2, lsr #16
    25be:	e029      	b.n	2614 <strcmp+0x2b4>
    25c0:	ea4f 4212 	mov.w	r2, r2, lsr #16
    25c4:	ea03 431c 	and.w	r3, r3, ip, lsr #16
    25c8:	e024      	b.n	2614 <strcmp+0x2b4>
    25ca:	f002 04ff 	and.w	r4, r2, #255	@ 0xff
    25ce:	fa82 f54c 	uadd8	r5, r2, ip
    25d2:	ea94 6513 	eors.w	r5, r4, r3, lsr #24
    25d6:	faa5 f58c 	sel	r5, r5, ip
    25da:	d10a      	bne.n	25f2 <strcmp+0x292>
    25dc:	b965      	cbnz	r5, 25f8 <strcmp+0x298>
    25de:	f851 3b04 	ldr.w	r3, [r1], #4
    25e2:	ea84 0402 	eor.w	r4, r4, r2
    25e6:	ebb4 2f03 	cmp.w	r4, r3, lsl #8
    25ea:	d109      	bne.n	2600 <strcmp+0x2a0>
    25ec:	f850 2b04 	ldr.w	r2, [r0], #4
    25f0:	e7eb      	b.n	25ca <strcmp+0x26a>
    25f2:	ea4f 6313 	mov.w	r3, r3, lsr #24
    25f6:	e00d      	b.n	2614 <strcmp+0x2b4>
    25f8:	f015 0fff 	tst.w	r5, #255	@ 0xff
    25fc:	d105      	bne.n	260a <strcmp+0x2aa>
    25fe:	680b      	ldr	r3, [r1, #0]
    2600:	ea4f 2212 	mov.w	r2, r2, lsr #8
    2604:	f023 437f 	bic.w	r3, r3, #4278190080	@ 0xff000000
    2608:	e004      	b.n	2614 <strcmp+0x2b4>
    260a:	f04f 0000 	mov.w	r0, #0
    260e:	e8fd 4504 	ldrd	r4, r5, [sp], #16
    2612:	4770      	bx	lr
    2614:	ba12      	rev	r2, r2
    2616:	ba1b      	rev	r3, r3
    2618:	fa82 f44c 	uadd8	r4, r2, ip
    261c:	ea82 0403 	eor.w	r4, r2, r3
    2620:	faa4 f58c 	sel	r5, r4, ip
    2624:	fab5 f485 	clz	r4, r5
    2628:	fa02 f204 	lsl.w	r2, r2, r4
    262c:	fa03 f304 	lsl.w	r3, r3, r4
    2630:	ea4f 6012 	mov.w	r0, r2, lsr #24
    2634:	e8fd 4504 	ldrd	r4, r5, [sp], #16
    2638:	eba0 6013 	sub.w	r0, r0, r3, lsr #24
    263c:	4770      	bx	lr
    263e:	bf00      	nop

00002640 <__errno>:
    2640:	4b01      	ldr	r3, [pc, #4]	@ (2648 <__errno+0x8>)
    2642:	6818      	ldr	r0, [r3, #0]
    2644:	4770      	bx	lr
    2646:	bf00      	nop
    2648:	20000000 	.word	0x20000000

0000264c <__strtok_r>:
    264c:	b318      	cbz	r0, 2696 <__strtok_r+0x4a>
    264e:	b4f0      	push	{r4, r5, r6, r7}
    2650:	4607      	mov	r7, r0
    2652:	468c      	mov	ip, r1
    2654:	f817 5b01 	ldrb.w	r5, [r7], #1
    2658:	e001      	b.n	265e <__strtok_r+0x12>
    265a:	42a5      	cmp	r5, r4
    265c:	d014      	beq.n	2688 <__strtok_r+0x3c>
    265e:	f81c 4b01 	ldrb.w	r4, [ip], #1
    2662:	2c00      	cmp	r4, #0
    2664:	d1f9      	bne.n	265a <__strtok_r+0xe>
    2666:	b1dd      	cbz	r5, 26a0 <__strtok_r+0x54>
    2668:	463e      	mov	r6, r7
    266a:	460c      	mov	r4, r1
    266c:	f816 5b01 	ldrb.w	r5, [r6], #1
    2670:	e000      	b.n	2674 <__strtok_r+0x28>
    2672:	b163      	cbz	r3, 268e <__strtok_r+0x42>
    2674:	f814 3b01 	ldrb.w	r3, [r4], #1
    2678:	429d      	cmp	r5, r3
    267a:	d1fa      	bne.n	2672 <__strtok_r+0x26>
    267c:	b14d      	cbz	r5, 2692 <__strtok_r+0x46>
    267e:	2300      	movs	r3, #0
    2680:	703b      	strb	r3, [r7, #0]
    2682:	6016      	str	r6, [r2, #0]
    2684:	bcf0      	pop	{r4, r5, r6, r7}
    2686:	4770      	bx	lr
    2688:	b173      	cbz	r3, 26a8 <__strtok_r+0x5c>
    268a:	4638      	mov	r0, r7
    268c:	e7e0      	b.n	2650 <__strtok_r+0x4>
    268e:	4637      	mov	r7, r6
    2690:	e7ea      	b.n	2668 <__strtok_r+0x1c>
    2692:	462e      	mov	r6, r5
    2694:	e7f5      	b.n	2682 <__strtok_r+0x36>
    2696:	6810      	ldr	r0, [r2, #0]
    2698:	2800      	cmp	r0, #0
    269a:	d1d8      	bne.n	264e <__strtok_r+0x2>
    269c:	2000      	movs	r0, #0
    269e:	4770      	bx	lr
    26a0:	6015      	str	r5, [r2, #0]
    26a2:	2000      	movs	r0, #0
    26a4:	bcf0      	pop	{r4, r5, r6, r7}
    26a6:	4770      	bx	lr
    26a8:	6017      	str	r7, [r2, #0]
    26aa:	7003      	strb	r3, [r0, #0]
    26ac:	e7ea      	b.n	2684 <__strtok_r+0x38>
    26ae:	bf00      	nop

000026b0 <strtok_r>:
    26b0:	2301      	movs	r3, #1
    26b2:	f7ff bfcb 	b.w	264c <__strtok_r>
    26b6:	bf00      	nop

000026b8 <_strtol_l.isra.0>:
    26b8:	2b24      	cmp	r3, #36	@ 0x24
    26ba:	e92d 4ff8 	stmdb	sp!, {r3, r4, r5, r6, r7, r8, r9, sl, fp, lr}
    26be:	d843      	bhi.n	2748 <_strtol_l.isra.0+0x90>
    26c0:	2b01      	cmp	r3, #1
    26c2:	d041      	beq.n	2748 <_strtol_l.isra.0+0x90>
    26c4:	4680      	mov	r8, r0
    26c6:	4849      	ldr	r0, [pc, #292]	@ (27ec <_strtol_l.isra.0+0x134>)
    26c8:	461f      	mov	r7, r3
    26ca:	468e      	mov	lr, r1
    26cc:	4675      	mov	r5, lr
    26ce:	f81e bb01 	ldrb.w	fp, [lr], #1
    26d2:	f810 400b 	ldrb.w	r4, [r0, fp]
    26d6:	f014 0408 	ands.w	r4, r4, #8
    26da:	d1f7      	bne.n	26cc <_strtol_l.isra.0+0x14>
    26dc:	f1bb 0f2d 	cmp.w	fp, #45	@ 0x2d
    26e0:	d06f      	beq.n	27c2 <_strtol_l.isra.0+0x10a>
    26e2:	f1bb 0f2b 	cmp.w	fp, #43	@ 0x2b
    26e6:	bf08      	it	eq
    26e8:	f89e b000 	ldrbeq.w	fp, [lr]
    26ec:	f06f 4900 	mvn.w	r9, #2147483648	@ 0x80000000
    26f0:	bf08      	it	eq
    26f2:	f105 0e02 	addeq.w	lr, r5, #2
    26f6:	bb73      	cbnz	r3, 2756 <_strtol_l.isra.0+0x9e>
    26f8:	f1bb 0f30 	cmp.w	fp, #48	@ 0x30
    26fc:	d04b      	beq.n	2796 <_strtol_l.isra.0+0xde>
    26fe:	270a      	movs	r7, #10
    2700:	463b      	mov	r3, r7
    2702:	2500      	movs	r5, #0
    2704:	fbb9 f6f7 	udiv	r6, r9, r7
    2708:	4628      	mov	r0, r5
    270a:	fb07 9a16 	mls	sl, r7, r6, r9
    270e:	e005      	b.n	271c <_strtol_l.isra.0+0x64>
    2710:	d03a      	beq.n	2788 <_strtol_l.isra.0+0xd0>
    2712:	fb07 c000 	mla	r0, r7, r0, ip
    2716:	2501      	movs	r5, #1
    2718:	f81e bb01 	ldrb.w	fp, [lr], #1
    271c:	f1ab 0c30 	sub.w	ip, fp, #48	@ 0x30
    2720:	f1bc 0f09 	cmp.w	ip, #9
    2724:	d906      	bls.n	2734 <_strtol_l.isra.0+0x7c>
    2726:	f1ab 0c41 	sub.w	ip, fp, #65	@ 0x41
    272a:	f1bc 0f19 	cmp.w	ip, #25
    272e:	d819      	bhi.n	2764 <_strtol_l.isra.0+0xac>
    2730:	f1ab 0c37 	sub.w	ip, fp, #55	@ 0x37
    2734:	4563      	cmp	r3, ip
    2736:	dd1e      	ble.n	2776 <_strtol_l.isra.0+0xbe>
    2738:	f1b5 3fff 	cmp.w	r5, #4294967295	@ 0xffffffff
    273c:	d0ec      	beq.n	2718 <_strtol_l.isra.0+0x60>
    273e:	4286      	cmp	r6, r0
    2740:	d2e6      	bcs.n	2710 <_strtol_l.isra.0+0x58>
    2742:	f04f 35ff 	mov.w	r5, #4294967295	@ 0xffffffff
    2746:	e7e7      	b.n	2718 <_strtol_l.isra.0+0x60>
    2748:	f7ff ff7a 	bl	2640 <__errno>
    274c:	2316      	movs	r3, #22
    274e:	6003      	str	r3, [r0, #0]
    2750:	2000      	movs	r0, #0
    2752:	e8bd 8ff8 	ldmia.w	sp!, {r3, r4, r5, r6, r7, r8, r9, sl, fp, pc}
    2756:	2b10      	cmp	r3, #16
    2758:	d1d3      	bne.n	2702 <_strtol_l.isra.0+0x4a>
    275a:	f1bb 0f30 	cmp.w	fp, #48	@ 0x30
    275e:	d023      	beq.n	27a8 <_strtol_l.isra.0+0xf0>
    2760:	461f      	mov	r7, r3
    2762:	e7ce      	b.n	2702 <_strtol_l.isra.0+0x4a>
    2764:	f1ab 0c61 	sub.w	ip, fp, #97	@ 0x61
    2768:	f1bc 0f19 	cmp.w	ip, #25
    276c:	d803      	bhi.n	2776 <_strtol_l.isra.0+0xbe>
    276e:	f1ab 0c57 	sub.w	ip, fp, #87	@ 0x57
    2772:	4563      	cmp	r3, ip
    2774:	dce0      	bgt.n	2738 <_strtol_l.isra.0+0x80>
    2776:	1c6b      	adds	r3, r5, #1
    2778:	d02b      	beq.n	27d2 <_strtol_l.isra.0+0x11a>
    277a:	b954      	cbnz	r4, 2792 <_strtol_l.isra.0+0xda>
    277c:	2a00      	cmp	r2, #0
    277e:	d0e8      	beq.n	2752 <_strtol_l.isra.0+0x9a>
    2780:	bb85      	cbnz	r5, 27e4 <_strtol_l.isra.0+0x12c>
    2782:	6011      	str	r1, [r2, #0]
    2784:	e8bd 8ff8 	ldmia.w	sp!, {r3, r4, r5, r6, r7, r8, r9, sl, fp, pc}
    2788:	45e2      	cmp	sl, ip
    278a:	dac2      	bge.n	2712 <_strtol_l.isra.0+0x5a>
    278c:	f04f 35ff 	mov.w	r5, #4294967295	@ 0xffffffff
    2790:	e7c2      	b.n	2718 <_strtol_l.isra.0+0x60>
    2792:	4240      	negs	r0, r0
    2794:	e7f2      	b.n	277c <_strtol_l.isra.0+0xc4>
    2796:	f89e 3000 	ldrb.w	r3, [lr]
    279a:	f003 03df 	and.w	r3, r3, #223	@ 0xdf
    279e:	2b58      	cmp	r3, #88	@ 0x58
    27a0:	d008      	beq.n	27b4 <_strtol_l.isra.0+0xfc>
    27a2:	2708      	movs	r7, #8
    27a4:	463b      	mov	r3, r7
    27a6:	e7ac      	b.n	2702 <_strtol_l.isra.0+0x4a>
    27a8:	f89e 0000 	ldrb.w	r0, [lr]
    27ac:	f000 00df 	and.w	r0, r0, #223	@ 0xdf
    27b0:	2858      	cmp	r0, #88	@ 0x58
    27b2:	d1d5      	bne.n	2760 <_strtol_l.isra.0+0xa8>
    27b4:	2710      	movs	r7, #16
    27b6:	f89e b001 	ldrb.w	fp, [lr, #1]
    27ba:	463b      	mov	r3, r7
    27bc:	f10e 0e02 	add.w	lr, lr, #2
    27c0:	e79f      	b.n	2702 <_strtol_l.isra.0+0x4a>
    27c2:	f89e b000 	ldrb.w	fp, [lr]
    27c6:	f04f 4900 	mov.w	r9, #2147483648	@ 0x80000000
    27ca:	f105 0e02 	add.w	lr, r5, #2
    27ce:	2401      	movs	r4, #1
    27d0:	e791      	b.n	26f6 <_strtol_l.isra.0+0x3e>
    27d2:	2322      	movs	r3, #34	@ 0x22
    27d4:	f8c8 3000 	str.w	r3, [r8]
    27d8:	b132      	cbz	r2, 27e8 <_strtol_l.isra.0+0x130>
    27da:	f10e 31ff 	add.w	r1, lr, #4294967295	@ 0xffffffff
    27de:	4648      	mov	r0, r9
    27e0:	6011      	str	r1, [r2, #0]
    27e2:	e7cf      	b.n	2784 <_strtol_l.isra.0+0xcc>
    27e4:	4681      	mov	r9, r0
    27e6:	e7f8      	b.n	27da <_strtol_l.isra.0+0x122>
    27e8:	4648      	mov	r0, r9
    27ea:	e7b2      	b.n	2752 <_strtol_l.isra.0+0x9a>
    27ec:	00003a7d 	.word	0x00003a7d

000027f0 <_strtol_r>:
    27f0:	e762      	b.n	26b8 <_strtol_l.isra.0>
    27f2:	bf00      	nop

000027f4 <strtol_l>:
    27f4:	b410      	push	{r4}
    27f6:	4c04      	ldr	r4, [pc, #16]	@ (2808 <strtol_l+0x14>)
    27f8:	4684      	mov	ip, r0
    27fa:	4613      	mov	r3, r2
    27fc:	6820      	ldr	r0, [r4, #0]
    27fe:	f85d 4b04 	ldr.w	r4, [sp], #4
    2802:	460a      	mov	r2, r1
    2804:	4661      	mov	r1, ip
    2806:	e757      	b.n	26b8 <_strtol_l.isra.0>
    2808:	20000000 	.word	0x20000000

0000280c <strtol>:
    280c:	b410      	push	{r4}
    280e:	4c04      	ldr	r4, [pc, #16]	@ (2820 <strtol+0x14>)
    2810:	4684      	mov	ip, r0
    2812:	4613      	mov	r3, r2
    2814:	6820      	ldr	r0, [r4, #0]
    2816:	f85d 4b04 	ldr.w	r4, [sp], #4
    281a:	460a      	mov	r2, r1
    281c:	4661      	mov	r1, ip
    281e:	e74b      	b.n	26b8 <_strtol_l.isra.0>
    2820:	20000000 	.word	0x20000000

00002824 <memcpy>:
    2824:	4684      	mov	ip, r0
    2826:	ea41 0300 	orr.w	r3, r1, r0
    282a:	f013 0303 	ands.w	r3, r3, #3
    282e:	d16d      	bne.n	290c <memcpy+0xe8>
    2830:	3a40      	subs	r2, #64	@ 0x40
    2832:	d341      	bcc.n	28b8 <memcpy+0x94>
    2834:	f851 3b04 	ldr.w	r3, [r1], #4
    2838:	f840 3b04 	str.w	r3, [r0], #4
    283c:	f851 3b04 	ldr.w	r3, [r1], #4
    2840:	f840 3b04 	str.w	r3, [r0], #4
    2844:	f851 3b04 	ldr.w	r3, [r1], #4
    2848:	f840 3b04 	str.w	r3, [r0], #4
    284c:	f851 3b04 	ldr.w	r3, [r1], #4
    2850:	f840 3b04 	str.w	r3, [r0], #4
    2854:	f851 3b04 	ldr.w	r3, [r1], #4
    2858:	f840 3b04 	str.w	r3, [r0], #4
    285c:	f851 3b04 	ldr.w	r3, [r1], #4
    2860:	f840 3b04 	str.w	r3, [r0], #4
    2864:	f851 3b04 	ldr.w	r3, [r1], #4
    2868:	f840 3b04 	str.w	r3, [r0], #4
    286c:	f851 3b04 	ldr.w	r3, [r1], #4
    2870:	f840 3b04 	str.w	r3, [r0], #4
    2874:	f851 3b04 	ldr.w	r3, [r1], #4
    2878:	f840 3b04 	str.w	r3, [r0], #4
    287c:	f851 3b04 	ldr.w	r3, [r1], #4
    2880:	f840 3b04 	str.w	r3, [r0], #4
    2884:	f851 3b04 	ldr.w	r3, [r1], #4
    2888:	f840 3b04 	str.w	r3, [r0], #4
    288c:	f851 3b04 	ldr.w	r3, [r1], #4
    2890:	f840 3b04 	str.w	r3, [r0], #4
    2894:	f851 3b04 	ldr.w	r3, [r1], #4
    2898:	f840 3b04 	str.w	r3, [r0], #4
    289c:	f851 3b04 	ldr.w	r3, [r1], #4
    28a0:	f840 3b04 	str.w	r3, [r0], #4
    28a4:	f851 3b04 	ldr.w	r3, [r1], #4
    28a8:	f840 3b04 	str.w	r3, [r0], #4
    28ac:	f851 3b04 	ldr.w	r3, [r1], #4
    28b0:	f840 3b04 	str.w	r3, [r0], #4
    28b4:	3a40      	subs	r2, #64	@ 0x40
    28b6:	d2bd      	bcs.n	2834 <memcpy+0x10>
    28b8:	3230      	adds	r2, #48	@ 0x30
    28ba:	d311      	bcc.n	28e0 <memcpy+0xbc>
    28bc:	f851 3b04 	ldr.w	r3, [r1], #4
    28c0:	f840 3b04 	str.w	r3, [r0], #4
    28c4:	f851 3b04 	ldr.w	r3, [r1], #4
    28c8:	f840 3b04 	str.w	r3, [r0], #4
    28cc:	f851 3b04 	ldr.w	r3, [r1], #4
    28d0:	f840 3b04 	str.w	r3, [r0], #4
    28d4:	f851 3b04 	ldr.w	r3, [r1], #4
    28d8:	f840 3b04 	str.w	r3, [r0], #4
    28dc:	3a10      	subs	r2, #16
    28de:	d2ed      	bcs.n	28bc <memcpy+0x98>
    28e0:	320c      	adds	r2, #12
    28e2:	d305      	bcc.n	28f0 <memcpy+0xcc>
    28e4:	f851 3b04 	ldr.w	r3, [r1], #4
    28e8:	f840 3b04 	str.w	r3, [r0], #4
    28ec:	3a04      	subs	r2, #4
    28ee:	d2f9      	bcs.n	28e4 <memcpy+0xc0>
    28f0:	3204      	adds	r2, #4
    28f2:	d008      	beq.n	2906 <memcpy+0xe2>
    28f4:	07d2      	lsls	r2, r2, #31
    28f6:	bf1c      	itt	ne
    28f8:	f811 3b01 	ldrbne.w	r3, [r1], #1
    28fc:	f800 3b01 	strbne.w	r3, [r0], #1
    2900:	d301      	bcc.n	2906 <memcpy+0xe2>
    2902:	880b      	ldrh	r3, [r1, #0]
    2904:	8003      	strh	r3, [r0, #0]
    2906:	4660      	mov	r0, ip
    2908:	4770      	bx	lr
    290a:	bf00      	nop
    290c:	2a08      	cmp	r2, #8
    290e:	d313      	bcc.n	2938 <memcpy+0x114>
    2910:	078b      	lsls	r3, r1, #30
    2912:	d08d      	beq.n	2830 <memcpy+0xc>
    2914:	f010 0303 	ands.w	r3, r0, #3
    2918:	d08a      	beq.n	2830 <memcpy+0xc>
    291a:	f1c3 0304 	rsb	r3, r3, #4
    291e:	1ad2      	subs	r2, r2, r3
    2920:	07db      	lsls	r3, r3, #31
    2922:	bf1c      	itt	ne
    2924:	f811 3b01 	ldrbne.w	r3, [r1], #1
    2928:	f800 3b01 	strbne.w	r3, [r0], #1
    292c:	d380      	bcc.n	2830 <memcpy+0xc>
    292e:	f831 3b02 	ldrh.w	r3, [r1], #2
    2932:	f820 3b02 	strh.w	r3, [r0], #2
    2936:	e77b      	b.n	2830 <memcpy+0xc>
    2938:	3a04      	subs	r2, #4
    293a:	d3d9      	bcc.n	28f0 <memcpy+0xcc>
    293c:	3a01      	subs	r2, #1
    293e:	f811 3b01 	ldrb.w	r3, [r1], #1
    2942:	f800 3b01 	strb.w	r3, [r0], #1
    2946:	d2f9      	bcs.n	293c <memcpy+0x118>
    2948:	780b      	ldrb	r3, [r1, #0]
    294a:	7003      	strb	r3, [r0, #0]
    294c:	784b      	ldrb	r3, [r1, #1]
    294e:	7043      	strb	r3, [r0, #1]
    2950:	788b      	ldrb	r3, [r1, #2]
    2952:	7083      	strb	r3, [r0, #2]
    2954:	4660      	mov	r0, ip
    2956:	4770      	bx	lr

00002958 <__aeabi_uldivmod>:
    2958:	b953      	cbnz	r3, 2970 <__aeabi_uldivmod+0x18>
    295a:	b94a      	cbnz	r2, 2970 <__aeabi_uldivmod+0x18>
    295c:	2900      	cmp	r1, #0
    295e:	bf08      	it	eq
    2960:	2800      	cmpeq	r0, #0
    2962:	bf1c      	itt	ne
    2964:	f04f 31ff 	movne.w	r1, #4294967295	@ 0xffffffff
    2968:	f04f 30ff 	movne.w	r0, #4294967295	@ 0xffffffff
    296c:	f000 b96a 	b.w	2c44 <__aeabi_idiv0>
    2970:	f1ad 0c08 	sub.w	ip, sp, #8
    2974:	e96d ce04 	strd	ip, lr, [sp, #-16]!
    2978:	f000 f806 	bl	2988 <__udivmoddi4>
    297c:	f8dd e004 	ldr.w	lr, [sp, #4]
    2980:	e9dd 2302 	ldrd	r2, r3, [sp, #8]
    2984:	b004      	add	sp, #16
    2986:	4770      	bx	lr

00002988 <__udivmoddi4>:
    2988:	e92d 47f0 	stmdb	sp!, {r4, r5, r6, r7, r8, r9, sl, lr}
    298c:	9d08      	ldr	r5, [sp, #32]
    298e:	460e      	mov	r6, r1
    2990:	4604      	mov	r4, r0
    2992:	460f      	mov	r7, r1
    2994:	2b00      	cmp	r3, #0
    2996:	d14a      	bne.n	2a2e <__udivmoddi4+0xa6>
    2998:	4694      	mov	ip, r2
    299a:	458c      	cmp	ip, r1
    299c:	fab2 f282 	clz	r2, r2
    29a0:	d960      	bls.n	2a64 <__udivmoddi4+0xdc>
    29a2:	b142      	cbz	r2, 29b6 <__udivmoddi4+0x2e>
    29a4:	f1c2 0320 	rsb	r3, r2, #32
    29a8:	4097      	lsls	r7, r2
    29aa:	fa20 f303 	lsr.w	r3, r0, r3
    29ae:	fa0c fc02 	lsl.w	ip, ip, r2
    29b2:	431f      	orrs	r7, r3
    29b4:	4094      	lsls	r4, r2
    29b6:	ea4f 4e1c 	mov.w	lr, ip, lsr #16
    29ba:	fa1f f68c 	uxth.w	r6, ip
    29be:	fbb7 f1fe 	udiv	r1, r7, lr
    29c2:	0c23      	lsrs	r3, r4, #16
    29c4:	fb0e 7711 	mls	r7, lr, r1, r7
    29c8:	ea43 4307 	orr.w	r3, r3, r7, lsl #16
    29cc:	fb01 f006 	mul.w	r0, r1, r6
    29d0:	4298      	cmp	r0, r3
    29d2:	d90a      	bls.n	29ea <__udivmoddi4+0x62>
    29d4:	eb1c 0303 	adds.w	r3, ip, r3
    29d8:	f101 37ff 	add.w	r7, r1, #4294967295	@ 0xffffffff
    29dc:	f080 8115 	bcs.w	2c0a <__udivmoddi4+0x282>
    29e0:	4298      	cmp	r0, r3
    29e2:	f240 8112 	bls.w	2c0a <__udivmoddi4+0x282>
    29e6:	3902      	subs	r1, #2
    29e8:	4463      	add	r3, ip
    29ea:	1a1b      	subs	r3, r3, r0
    29ec:	b2a4      	uxth	r4, r4
    29ee:	fbb3 f0fe 	udiv	r0, r3, lr
    29f2:	fb0e 3310 	mls	r3, lr, r0, r3
    29f6:	ea44 4403 	orr.w	r4, r4, r3, lsl #16
    29fa:	fb00 f606 	mul.w	r6, r0, r6
    29fe:	42a6      	cmp	r6, r4
    2a00:	d90a      	bls.n	2a18 <__udivmoddi4+0x90>
    2a02:	eb1c 0404 	adds.w	r4, ip, r4
    2a06:	f100 33ff 	add.w	r3, r0, #4294967295	@ 0xffffffff
    2a0a:	f080 8100 	bcs.w	2c0e <__udivmoddi4+0x286>
    2a0e:	42a6      	cmp	r6, r4
    2a10:	f240 80fd 	bls.w	2c0e <__udivmoddi4+0x286>
    2a14:	4464      	add	r4, ip
    2a16:	3802      	subs	r0, #2
    2a18:	ea40 4001 	orr.w	r0, r0, r1, lsl #16
    2a1c:	1ba4      	subs	r4, r4, r6
    2a1e:	2100      	movs	r1, #0
    2a20:	b11d      	cbz	r5, 2a2a <__udivmoddi4+0xa2>
    2a22:	40d4      	lsrs	r4, r2
    2a24:	2300      	movs	r3, #0
    2a26:	e9c5 4300 	strd	r4, r3, [r5]
    2a2a:	e8bd 87f0 	ldmia.w	sp!, {r4, r5, r6, r7, r8, r9, sl, pc}
    2a2e:	428b      	cmp	r3, r1
    2a30:	d905      	bls.n	2a3e <__udivmoddi4+0xb6>
    2a32:	b10d      	cbz	r5, 2a38 <__udivmoddi4+0xb0>
    2a34:	e9c5 0100 	strd	r0, r1, [r5]
    2a38:	2100      	movs	r1, #0
    2a3a:	4608      	mov	r0, r1
    2a3c:	e7f5      	b.n	2a2a <__udivmoddi4+0xa2>
    2a3e:	fab3 f183 	clz	r1, r3
    2a42:	2900      	cmp	r1, #0
    2a44:	d146      	bne.n	2ad4 <__udivmoddi4+0x14c>
    2a46:	42b3      	cmp	r3, r6
    2a48:	d302      	bcc.n	2a50 <__udivmoddi4+0xc8>
    2a4a:	4282      	cmp	r2, r0
    2a4c:	f200 80f5 	bhi.w	2c3a <__udivmoddi4+0x2b2>
    2a50:	1a84      	subs	r4, r0, r2
    2a52:	eb66 0203 	sbc.w	r2, r6, r3
    2a56:	2001      	movs	r0, #1
    2a58:	4617      	mov	r7, r2
    2a5a:	2d00      	cmp	r5, #0
    2a5c:	d0e5      	beq.n	2a2a <__udivmoddi4+0xa2>
    2a5e:	e9c5 4700 	strd	r4, r7, [r5]
    2a62:	e7e2      	b.n	2a2a <__udivmoddi4+0xa2>
    2a64:	2a00      	cmp	r2, #0
    2a66:	f040 8093 	bne.w	2b90 <__udivmoddi4+0x208>
    2a6a:	eba1 030c 	sub.w	r3, r1, ip
    2a6e:	ea4f 471c 	mov.w	r7, ip, lsr #16
    2a72:	fa1f fe8c 	uxth.w	lr, ip
    2a76:	2101      	movs	r1, #1
    2a78:	fbb3 f6f7 	udiv	r6, r3, r7
    2a7c:	fb07 3016 	mls	r0, r7, r6, r3
    2a80:	0c23      	lsrs	r3, r4, #16
    2a82:	ea43 4300 	orr.w	r3, r3, r0, lsl #16
    2a86:	fb0e f006 	mul.w	r0, lr, r6
    2a8a:	4298      	cmp	r0, r3
    2a8c:	d908      	bls.n	2aa0 <__udivmoddi4+0x118>
    2a8e:	eb1c 0303 	adds.w	r3, ip, r3
    2a92:	f106 38ff 	add.w	r8, r6, #4294967295	@ 0xffffffff
    2a96:	d202      	bcs.n	2a9e <__udivmoddi4+0x116>
    2a98:	4298      	cmp	r0, r3
    2a9a:	f200 80d0 	bhi.w	2c3e <__udivmoddi4+0x2b6>
    2a9e:	4646      	mov	r6, r8
    2aa0:	1a1b      	subs	r3, r3, r0
    2aa2:	b2a4      	uxth	r4, r4
    2aa4:	fbb3 f0f7 	udiv	r0, r3, r7
    2aa8:	fb07 3310 	mls	r3, r7, r0, r3
    2aac:	ea44 4403 	orr.w	r4, r4, r3, lsl #16
    2ab0:	fb0e fe00 	mul.w	lr, lr, r0
    2ab4:	45a6      	cmp	lr, r4
    2ab6:	d908      	bls.n	2aca <__udivmoddi4+0x142>
    2ab8:	eb1c 0404 	adds.w	r4, ip, r4
    2abc:	f100 33ff 	add.w	r3, r0, #4294967295	@ 0xffffffff
    2ac0:	d202      	bcs.n	2ac8 <__udivmoddi4+0x140>
    2ac2:	45a6      	cmp	lr, r4
    2ac4:	f200 80b6 	bhi.w	2c34 <__udivmoddi4+0x2ac>
    2ac8:	4618      	mov	r0, r3
    2aca:	eba4 040e 	sub.w	r4, r4, lr
    2ace:	ea40 4006 	orr.w	r0, r0, r6, lsl #16
    2ad2:	e7a5      	b.n	2a20 <__udivmoddi4+0x98>
    2ad4:	f1c1 0720 	rsb	r7, r1, #32
    2ad8:	408b      	lsls	r3, r1
    2ada:	fa22 fc07 	lsr.w	ip, r2, r7
    2ade:	ea4c 0c03 	orr.w	ip, ip, r3
    2ae2:	fa06 fe01 	lsl.w	lr, r6, r1
    2ae6:	fa20 f407 	lsr.w	r4, r0, r7
    2aea:	fa26 f307 	lsr.w	r3, r6, r7
    2aee:	ea44 040e 	orr.w	r4, r4, lr
    2af2:	fa00 f801 	lsl.w	r8, r0, r1
    2af6:	ea4f 401c 	mov.w	r0, ip, lsr #16
    2afa:	ea4f 4914 	mov.w	r9, r4, lsr #16
    2afe:	fbb3 fef0 	udiv	lr, r3, r0
    2b02:	fa1f f68c 	uxth.w	r6, ip
    2b06:	fb00 331e 	mls	r3, r0, lr, r3
    2b0a:	ea49 4303 	orr.w	r3, r9, r3, lsl #16
    2b0e:	fb0e f906 	mul.w	r9, lr, r6
    2b12:	4599      	cmp	r9, r3
    2b14:	fa02 f201 	lsl.w	r2, r2, r1
    2b18:	d90b      	bls.n	2b32 <__udivmoddi4+0x1aa>
    2b1a:	eb1c 0303 	adds.w	r3, ip, r3
    2b1e:	f10e 3aff 	add.w	sl, lr, #4294967295	@ 0xffffffff
    2b22:	f080 8085 	bcs.w	2c30 <__udivmoddi4+0x2a8>
    2b26:	4599      	cmp	r9, r3
    2b28:	f240 8082 	bls.w	2c30 <__udivmoddi4+0x2a8>
    2b2c:	f1ae 0e02 	sub.w	lr, lr, #2
    2b30:	4463      	add	r3, ip
    2b32:	eba3 0909 	sub.w	r9, r3, r9
    2b36:	b2a4      	uxth	r4, r4
    2b38:	fbb9 f3f0 	udiv	r3, r9, r0
    2b3c:	fb00 9913 	mls	r9, r0, r3, r9
    2b40:	ea44 4409 	orr.w	r4, r4, r9, lsl #16
    2b44:	fb03 f606 	mul.w	r6, r3, r6
    2b48:	42a6      	cmp	r6, r4
    2b4a:	d908      	bls.n	2b5e <__udivmoddi4+0x1d6>
    2b4c:	eb1c 0404 	adds.w	r4, ip, r4
    2b50:	f103 30ff 	add.w	r0, r3, #4294967295	@ 0xffffffff
    2b54:	d268      	bcs.n	2c28 <__udivmoddi4+0x2a0>
    2b56:	42a6      	cmp	r6, r4
    2b58:	d966      	bls.n	2c28 <__udivmoddi4+0x2a0>
    2b5a:	3b02      	subs	r3, #2
    2b5c:	4464      	add	r4, ip
    2b5e:	ea43 400e 	orr.w	r0, r3, lr, lsl #16
    2b62:	1ba4      	subs	r4, r4, r6
    2b64:	fba0 e602 	umull	lr, r6, r0, r2
    2b68:	42b4      	cmp	r4, r6
    2b6a:	4673      	mov	r3, lr
    2b6c:	46b1      	mov	r9, r6
    2b6e:	d352      	bcc.n	2c16 <__udivmoddi4+0x28e>
    2b70:	d04f      	beq.n	2c12 <__udivmoddi4+0x28a>
    2b72:	b15d      	cbz	r5, 2b8c <__udivmoddi4+0x204>
    2b74:	ebb8 0203 	subs.w	r2, r8, r3
    2b78:	eb64 0409 	sbc.w	r4, r4, r9
    2b7c:	fa04 f707 	lsl.w	r7, r4, r7
    2b80:	fa22 f301 	lsr.w	r3, r2, r1
    2b84:	431f      	orrs	r7, r3
    2b86:	40cc      	lsrs	r4, r1
    2b88:	e9c5 7400 	strd	r7, r4, [r5]
    2b8c:	2100      	movs	r1, #0
    2b8e:	e74c      	b.n	2a2a <__udivmoddi4+0xa2>
    2b90:	f1c2 0120 	rsb	r1, r2, #32
    2b94:	fa20 f301 	lsr.w	r3, r0, r1
    2b98:	fa0c fc02 	lsl.w	ip, ip, r2
    2b9c:	fa26 f101 	lsr.w	r1, r6, r1
    2ba0:	4096      	lsls	r6, r2
    2ba2:	4333      	orrs	r3, r6
    2ba4:	ea4f 471c 	mov.w	r7, ip, lsr #16
    2ba8:	fa1f fe8c 	uxth.w	lr, ip
    2bac:	fbb1 f0f7 	udiv	r0, r1, r7
    2bb0:	fb07 1610 	mls	r6, r7, r0, r1
    2bb4:	0c19      	lsrs	r1, r3, #16
    2bb6:	ea41 4106 	orr.w	r1, r1, r6, lsl #16
    2bba:	fb00 f60e 	mul.w	r6, r0, lr
    2bbe:	428e      	cmp	r6, r1
    2bc0:	fa04 f402 	lsl.w	r4, r4, r2
    2bc4:	d908      	bls.n	2bd8 <__udivmoddi4+0x250>
    2bc6:	eb1c 0101 	adds.w	r1, ip, r1
    2bca:	f100 38ff 	add.w	r8, r0, #4294967295	@ 0xffffffff
    2bce:	d22d      	bcs.n	2c2c <__udivmoddi4+0x2a4>
    2bd0:	428e      	cmp	r6, r1
    2bd2:	d92b      	bls.n	2c2c <__udivmoddi4+0x2a4>
    2bd4:	3802      	subs	r0, #2
    2bd6:	4461      	add	r1, ip
    2bd8:	1b89      	subs	r1, r1, r6
    2bda:	b29b      	uxth	r3, r3
    2bdc:	fbb1 f6f7 	udiv	r6, r1, r7
    2be0:	fb07 1116 	mls	r1, r7, r6, r1
    2be4:	ea43 4301 	orr.w	r3, r3, r1, lsl #16
    2be8:	fb06 f10e 	mul.w	r1, r6, lr
    2bec:	4299      	cmp	r1, r3
    2bee:	d908      	bls.n	2c02 <__udivmoddi4+0x27a>
    2bf0:	eb1c 0303 	adds.w	r3, ip, r3
    2bf4:	f106 38ff 	add.w	r8, r6, #4294967295	@ 0xffffffff
    2bf8:	d214      	bcs.n	2c24 <__udivmoddi4+0x29c>
    2bfa:	4299      	cmp	r1, r3
    2bfc:	d912      	bls.n	2c24 <__udivmoddi4+0x29c>
    2bfe:	3e02      	subs	r6, #2
    2c00:	4463      	add	r3, ip
    2c02:	1a5b      	subs	r3, r3, r1
    2c04:	ea46 4100 	orr.w	r1, r6, r0, lsl #16
    2c08:	e736      	b.n	2a78 <__udivmoddi4+0xf0>
    2c0a:	4639      	mov	r1, r7
    2c0c:	e6ed      	b.n	29ea <__udivmoddi4+0x62>
    2c0e:	4618      	mov	r0, r3
    2c10:	e702      	b.n	2a18 <__udivmoddi4+0x90>
    2c12:	45f0      	cmp	r8, lr
    2c14:	d2ad      	bcs.n	2b72 <__udivmoddi4+0x1ea>
    2c16:	ebbe 0302 	subs.w	r3, lr, r2
    2c1a:	eb66 060c 	sbc.w	r6, r6, ip
    2c1e:	3801      	subs	r0, #1
    2c20:	46b1      	mov	r9, r6
    2c22:	e7a6      	b.n	2b72 <__udivmoddi4+0x1ea>
    2c24:	4646      	mov	r6, r8
    2c26:	e7ec      	b.n	2c02 <__udivmoddi4+0x27a>
    2c28:	4603      	mov	r3, r0
    2c2a:	e798      	b.n	2b5e <__udivmoddi4+0x1d6>
    2c2c:	4640      	mov	r0, r8
    2c2e:	e7d3      	b.n	2bd8 <__udivmoddi4+0x250>
    2c30:	46d6      	mov	lr, sl
    2c32:	e77e      	b.n	2b32 <__udivmoddi4+0x1aa>
    2c34:	4464      	add	r4, ip
    2c36:	3802      	subs	r0, #2
    2c38:	e747      	b.n	2aca <__udivmoddi4+0x142>
    2c3a:	4608      	mov	r0, r1
    2c3c:	e70d      	b.n	2a5a <__udivmoddi4+0xd2>
    2c3e:	3e02      	subs	r6, #2
    2c40:	4463      	add	r3, ip
    2c42:	e72d      	b.n	2aa0 <__udivmoddi4+0x118>

00002c44 <__aeabi_idiv0>:
    2c44:	4770      	bx	lr
    2c46:	bf00      	nop
    2c48:	203d3d3d 	.word	0x203d3d3d
    2c4c:	4f4d454d 	.word	0x4f4d454d
    2c50:	49205952 	.word	0x49205952
    2c54:	4745544e 	.word	0x4745544e
    2c58:	59544952 	.word	0x59544952
    2c5c:	45484320 	.word	0x45484320
    2c60:	28204b43 	.word	0x28204b43
    2c64:	00000000 	.word	0x00000000
    2c68:	3d3d2029 	.word	0x3d3d2029
    2c6c:	000a0d3d 	.word	0x000a0d3d
    2c70:	20535342 	.word	0x20535342
    2c74:	3a646e45 	.word	0x3a646e45
    2c78:	20202020 	.word	0x20202020
    2c7c:	30202020 	.word	0x30202020
    2c80:	00000078 	.word	0x00000078
    2c84:	00000a0d 	.word	0x00000a0d
    2c88:	70616548 	.word	0x70616548
    2c8c:	61745320 	.word	0x61745320
    2c90:	203a7472 	.word	0x203a7472
    2c94:	30202020 	.word	0x30202020
    2c98:	00000078 	.word	0x00000078
    2c9c:	70616548 	.word	0x70616548
    2ca0:	646e4520 	.word	0x646e4520
    2ca4:	2020203a 	.word	0x2020203a
    2ca8:	30202020 	.word	0x30202020
    2cac:	00000078 	.word	0x00000078
    2cb0:	63617453 	.word	0x63617453
    2cb4:	6f42206b 	.word	0x6f42206b
    2cb8:	6d6f7474 	.word	0x6d6f7474
    2cbc:	3020203a 	.word	0x3020203a
    2cc0:	00000078 	.word	0x00000078
    2cc4:	63617453 	.word	0x63617453
    2cc8:	6f54206b 	.word	0x6f54206b
    2ccc:	20203a70 	.word	0x20203a70
    2cd0:	30202020 	.word	0x30202020
    2cd4:	00000078 	.word	0x00000078
    2cd8:	72727543 	.word	0x72727543
    2cdc:	20746e65 	.word	0x20746e65
    2ce0:	203a5053 	.word	0x203a5053
    2ce4:	30202020 	.word	0x30202020
    2ce8:	00000078 	.word	0x00000078
    2cec:	202a2a2a 	.word	0x202a2a2a
    2cf0:	54495243 	.word	0x54495243
    2cf4:	4c414349 	.word	0x4c414349
    2cf8:	4548203a 	.word	0x4548203a
    2cfc:	532d5041 	.word	0x532d5041
    2d00:	4b434154 	.word	0x4b434154
    2d04:	45564f20 	.word	0x45564f20
    2d08:	50414c52 	.word	0x50414c52
    2d0c:	2a2a2021 	.word	0x2a2a2021
    2d10:	000a0d2a 	.word	0x000a0d2a
    2d14:	202a2a2a 	.word	0x202a2a2a
    2d18:	54495243 	.word	0x54495243
    2d1c:	4c414349 	.word	0x4c414349
    2d20:	5453203a 	.word	0x5453203a
    2d24:	2d4b4341 	.word	0x2d4b4341
    2d28:	50414548 	.word	0x50414548
    2d2c:	4c4f4320 	.word	0x4c4f4320
    2d30:	4953494c 	.word	0x4953494c
    2d34:	20214e4f 	.word	0x20214e4f
    2d38:	0d2a2a2a 	.word	0x0d2a2a2a
    2d3c:	0000000a 	.word	0x0000000a
    2d40:	202a2a2a 	.word	0x202a2a2a
    2d44:	54495243 	.word	0x54495243
    2d48:	4c414349 	.word	0x4c414349
    2d4c:	5453203a 	.word	0x5453203a
    2d50:	204b4341 	.word	0x204b4341
    2d54:	5245564f 	.word	0x5245564f
    2d58:	574f4c46 	.word	0x574f4c46
    2d5c:	2a2a2021 	.word	0x2a2a2021
    2d60:	000a0d2a 	.word	0x000a0d2a
    2d64:	202a2a2a 	.word	0x202a2a2a
    2d68:	54535953 	.word	0x54535953
    2d6c:	48204d45 	.word	0x48204d45
    2d70:	45544c41 	.word	0x45544c41
    2d74:	202d2044 	.word	0x202d2044
    2d78:	4f4d454d 	.word	0x4f4d454d
    2d7c:	43205952 	.word	0x43205952
    2d80:	5552524f 	.word	0x5552524f
    2d84:	4f495450 	.word	0x4f495450
    2d88:	4544204e 	.word	0x4544204e
    2d8c:	54434554 	.word	0x54434554
    2d90:	2a204445 	.word	0x2a204445
    2d94:	0a0d2a2a 	.word	0x0a0d2a2a
    2d98:	00000000 	.word	0x00000000
    2d9c:	6f6d654d 	.word	0x6f6d654d
    2da0:	69207972 	.word	0x69207972
    2da4:	6765746e 	.word	0x6765746e
    2da8:	79746972 	.word	0x79746972
    2dac:	4b4f203a 	.word	0x4b4f203a
    2db0:	00000a0d 	.word	0x00000a0d
    2db4:	63617453 	.word	0x63617453
    2db8:	7375206b 	.word	0x7375206b
    2dbc:	3a656761 	.word	0x3a656761
    2dc0:	00000020 	.word	0x00000020
    2dc4:	74796220 	.word	0x74796220
    2dc8:	0a0d7365 	.word	0x0a0d7365
    2dcc:	00000000 	.word	0x00000000
    2dd0:	70616548 	.word	0x70616548
    2dd4:	61737520 	.word	0x61737520
    2dd8:	203a6567 	.word	0x203a6567
    2ddc:	00000020 	.word	0x00000020
    2de0:	3d3d3d3d 	.word	0x3d3d3d3d
    2de4:	3d3d3d3d 	.word	0x3d3d3d3d
    2de8:	3d3d3d3d 	.word	0x3d3d3d3d
    2dec:	3d3d3d3d 	.word	0x3d3d3d3d
    2df0:	3d3d3d3d 	.word	0x3d3d3d3d
    2df4:	3d3d3d3d 	.word	0x3d3d3d3d
    2df8:	3d3d3d3d 	.word	0x3d3d3d3d
    2dfc:	3d3d3d3d 	.word	0x3d3d3d3d
    2e00:	00000a0d 	.word	0x00000a0d
    2e04:	63617453 	.word	0x63617453
    2e08:	6863206b 	.word	0x6863206b
    2e0c:	206b6365 	.word	0x206b6365
    2e10:	0000005b 	.word	0x0000005b
    2e14:	00203a5d 	.word	0x00203a5d
    2e18:	0000002f 	.word	0x0000002f
    2e1c:	74796220 	.word	0x74796220
    2e20:	75207365 	.word	0x75207365
    2e24:	20646573 	.word	0x20646573
    2e28:	00000028 	.word	0x00000028
    2e2c:	6d657220 	.word	0x6d657220
    2e30:	696e6961 	.word	0x696e6961
    2e34:	0d29676e 	.word	0x0d29676e
    2e38:	0000000a 	.word	0x0000000a
    2e3c:	202a2a2a 	.word	0x202a2a2a
    2e40:	4e524157 	.word	0x4e524157
    2e44:	3a474e49 	.word	0x3a474e49
    2e48:	61745320 	.word	0x61745320
    2e4c:	75206b63 	.word	0x75206b63
    2e50:	65676173 	.word	0x65676173
    2e54:	37203e20 	.word	0x37203e20
    2e58:	69202535 	.word	0x69202535
    2e5c:	0000206e 	.word	0x0000206e
    2e60:	2a2a2a20 	.word	0x2a2a2a20
    2e64:	00000a0d 	.word	0x00000a0d
    2e68:	202a2a2a 	.word	0x202a2a2a
    2e6c:	54495243 	.word	0x54495243
    2e70:	4c414349 	.word	0x4c414349
    2e74:	7453203a 	.word	0x7453203a
    2e78:	206b6361 	.word	0x206b6361
    2e7c:	67617375 	.word	0x67617375
    2e80:	203e2065 	.word	0x203e2065
    2e84:	20253039 	.word	0x20253039
    2e88:	00206e69 	.word	0x00206e69
    2e8c:	00007830 	.word	0x00007830
    2e90:	33323130 	.word	0x33323130
    2e94:	37363534 	.word	0x37363534
    2e98:	42413938 	.word	0x42413938
    2e9c:	46454443 	.word	0x46454443
    2ea0:	00000000 	.word	0x00000000
    2ea4:	2d2d0a0d 	.word	0x2d2d0a0d
    2ea8:	4253202d 	.word	0x4253202d
    2eac:	50204b52 	.word	0x50204b52
    2eb0:	45424f52 	.word	0x45424f52
    2eb4:	2d2d2d20 	.word	0x2d2d2d20
    2eb8:	00000a0d 	.word	0x00000a0d
    2ebc:	6165685f 	.word	0x6165685f
    2ec0:	74735f70 	.word	0x74735f70
    2ec4:	3d747261 	.word	0x3d747261
    2ec8:	00000020 	.word	0x00000020
    2ecc:	6165685f 	.word	0x6165685f
    2ed0:	6e655f70 	.word	0x6e655f70
    2ed4:	3d202064 	.word	0x3d202064
    2ed8:	00000020 	.word	0x00000020
    2edc:	6b726273 	.word	0x6b726273
    2ee0:	20293028 	.word	0x20293028
    2ee4:	203d2020 	.word	0x203d2020
    2ee8:	00000000 	.word	0x00000000
    2eec:	6b726273 	.word	0x6b726273
    2ef0:	29343628 	.word	0x29343628
    2ef4:	69616620 	.word	0x69616620
    2ef8:	0d64656c 	.word	0x0d64656c
    2efc:	0000000a 	.word	0x0000000a
    2f00:	6b726273 	.word	0x6b726273
    2f04:	29343628 	.word	0x29343628
    2f08:	203e2d20 	.word	0x203e2d20
    2f0c:	00000000 	.word	0x00000000
    2f10:	6b726273 	.word	0x6b726273
    2f14:	20293028 	.word	0x20293028
    2f18:	65746661 	.word	0x65746661
    2f1c:	203d2072 	.word	0x203d2072
    2f20:	00000000 	.word	0x00000000
    2f24:	202d2d2d 	.word	0x202d2d2d
    2f28:	4b524253 	.word	0x4b524253
    2f2c:	4f525020 	.word	0x4f525020
    2f30:	45204542 	.word	0x45204542
    2f34:	2d20444e 	.word	0x2d20444e
    2f38:	0a0d2d2d 	.word	0x0a0d2d2d
    2f3c:	00000000 	.word	0x00000000
    2f40:	2d2d0a0d 	.word	0x2d2d0a0d
    2f44:	414d202d 	.word	0x414d202d
    2f48:	434f4c4c 	.word	0x434f4c4c
    2f4c:	4950472b 	.word	0x4950472b
    2f50:	4554204f 	.word	0x4554204f
    2f54:	2d205453 	.word	0x2d205453
    2f58:	0a0d2d2d 	.word	0x0a0d2d2d
    2f5c:	00000000 	.word	0x00000000
    2f60:	6c616572 	.word	0x6c616572
    2f64:	20636f6c 	.word	0x20636f6c
    2f68:	6c696166 	.word	0x6c696166
    2f6c:	73206465 	.word	0x73206465
    2f70:	3d657a69 	.word	0x3d657a69
    2f74:	00000000 	.word	0x00000000
    2f78:	6c616572 	.word	0x6c616572
    2f7c:	20636f6c 	.word	0x20636f6c
    2f80:	73204b4f 	.word	0x73204b4f
    2f84:	3d657a69 	.word	0x3d657a69
    2f88:	00000000 	.word	0x00000000
    2f8c:	72747020 	.word	0x72747020
    2f90:	0000003d 	.word	0x0000003d
    2f94:	72627320 	.word	0x72627320
    2f98:	2930286b 	.word	0x2930286b
    2f9c:	0000003d 	.word	0x0000003d
    2fa0:	72627320 	.word	0x72627320
    2fa4:	61635f6b 	.word	0x61635f6b
    2fa8:	3d736c6c 	.word	0x3d736c6c
    2fac:	00000000 	.word	0x00000000
    2fb0:	202d2d2d 	.word	0x202d2d2d
    2fb4:	4c4c414d 	.word	0x4c4c414d
    2fb8:	472b434f 	.word	0x472b434f
    2fbc:	204f4950 	.word	0x204f4950
    2fc0:	54534554 	.word	0x54534554
    2fc4:	444e4520 	.word	0x444e4520
    2fc8:	2d2d2d20 	.word	0x2d2d2d20
    2fcc:	00000a0d 	.word	0x00000a0d
    2fd0:	2d2d0a0d 	.word	0x2d2d0a0d
    2fd4:	454d202d 	.word	0x454d202d
    2fd8:	59524f4d 	.word	0x59524f4d
    2fdc:	59414c20 	.word	0x59414c20
    2fe0:	2054554f 	.word	0x2054554f
    2fe4:	0d2d2d2d 	.word	0x0d2d2d2d
    2fe8:	0000000a 	.word	0x0000000a
    2fec:	646e655f 	.word	0x646e655f
    2ff0:	7373625f 	.word	0x7373625f
    2ff4:	3d202020 	.word	0x3d202020
    2ff8:	00000020 	.word	0x00000020
    2ffc:	6174735f 	.word	0x6174735f
    3000:	745f6b63 	.word	0x745f6b63
    3004:	3d20706f 	.word	0x3d20706f
    3008:	00000020 	.word	0x00000020
    300c:	6b726273 	.word	0x6b726273
    3010:	20293028 	.word	0x20293028
    3014:	3d202020 	.word	0x3d202020
    3018:	00000020 	.word	0x00000020
    301c:	20205053 	.word	0x20205053
    3020:	20202020 	.word	0x20202020
    3024:	3d202020 	.word	0x3d202020
    3028:	00000020 	.word	0x00000020
    302c:	6b726273 	.word	0x6b726273
    3030:	6c61635f 	.word	0x6c61635f
    3034:	3d20736c 	.word	0x3d20736c
    3038:	00000020 	.word	0x00000020
    303c:	6b726273 	.word	0x6b726273
    3040:	20293028 	.word	0x20293028
    3044:	0000203d 	.word	0x0000203d
    3048:	2d2d0a0d 	.word	0x2d2d0a0d
    304c:	414d202d 	.word	0x414d202d
    3050:	434f4c4c 	.word	0x434f4c4c
    3054:	53455420 	.word	0x53455420
    3058:	2d2d2054 	.word	0x2d2d2054
    305c:	000a0d2d 	.word	0x000a0d2d
    3060:	6c616572 	.word	0x6c616572
    3064:	20636f6c 	.word	0x20636f6c
    3068:	6c696166 	.word	0x6c696166
    306c:	61206465 	.word	0x61206465
    3070:	69732074 	.word	0x69732074
    3074:	003d657a 	.word	0x003d657a
    3078:	6f6c6c61 	.word	0x6f6c6c61
    307c:	65746163 	.word	0x65746163
    3080:	69732064 	.word	0x69732064
    3084:	003d657a 	.word	0x003d657a
    3088:	202d2d2d 	.word	0x202d2d2d
    308c:	4c4c414d 	.word	0x4c4c414d
    3090:	5420434f 	.word	0x5420434f
    3094:	20545345 	.word	0x20545345
    3098:	20444e45 	.word	0x20444e45
    309c:	0d2d2d2d 	.word	0x0d2d2d2d
    30a0:	0000000a 	.word	0x0000000a
    30a4:	4c554e3c 	.word	0x4c554e3c
    30a8:	0a0d3e4c 	.word	0x0a0d3e4c
    30ac:	00000000 	.word	0x00000000
    30b0:	0000203a 	.word	0x0000203a
    30b4:	00000020 	.word	0x00000020
    30b8:	3d3d0a0d 	.word	0x3d3d0a0d
    30bc:	5546203d 	.word	0x5546203d
    30c0:	4d204c4c 	.word	0x4d204c4c
    30c4:	53204d45 	.word	0x53204d45
    30c8:	45544154 	.word	0x45544154
    30cc:	3d3d3d20 	.word	0x3d3d3d20
    30d0:	00000a0d 	.word	0x00000a0d
    30d4:	646e655f 	.word	0x646e655f
    30d8:	7373625f 	.word	0x7373625f
    30dc:	20202020 	.word	0x20202020
    30e0:	0000203d 	.word	0x0000203d
    30e4:	6165685f 	.word	0x6165685f
    30e8:	74735f70 	.word	0x74735f70
    30ec:	20747261 	.word	0x20747261
    30f0:	0000203d 	.word	0x0000203d
    30f4:	6165685f 	.word	0x6165685f
    30f8:	6e655f70 	.word	0x6e655f70
    30fc:	20202064 	.word	0x20202064
    3100:	0000203d 	.word	0x0000203d
    3104:	6174735f 	.word	0x6174735f
    3108:	745f6b63 	.word	0x745f6b63
    310c:	2020706f 	.word	0x2020706f
    3110:	0000203d 	.word	0x0000203d
    3114:	6b726273 	.word	0x6b726273
    3118:	20293028 	.word	0x20293028
    311c:	20202020 	.word	0x20202020
    3120:	0000203d 	.word	0x0000203d
    3124:	6b726273 	.word	0x6b726273
    3128:	6c61635f 	.word	0x6c61635f
    312c:	2020736c 	.word	0x2020736c
    3130:	0000203d 	.word	0x0000203d
    3134:	28205053 	.word	0x28205053
    3138:	74736e69 	.word	0x74736e69
    313c:	20202029 	.word	0x20202029
    3140:	0000203d 	.word	0x0000203d
    3144:	65657266 	.word	0x65657266
    3148:	61656820 	.word	0x61656820
    314c:	20202070 	.word	0x20202070
    3150:	0000203d 	.word	0x0000203d
    3154:	65657266 	.word	0x65657266
    3158:	61656820 	.word	0x61656820
    315c:	20202070 	.word	0x20202070
    3160:	693c203d 	.word	0x693c203d
    3164:	6c61766e 	.word	0x6c61766e
    3168:	203a6469 	.word	0x203a6469
    316c:	206b7262 	.word	0x206b7262
    3170:	6568203e 	.word	0x6568203e
    3174:	655f7061 	.word	0x655f7061
    3178:	0d3e646e 	.word	0x0d3e646e
    317c:	0000000a 	.word	0x0000000a
    3180:	2d2d0a0d 	.word	0x2d2d0a0d
    3184:	6d654d20 	.word	0x6d654d20
    3188:	2079726f 	.word	0x2079726f
    318c:	76657270 	.word	0x76657270
    3190:	73776569 	.word	0x73776569
    3194:	0d2d2d20 	.word	0x0d2d2d20
    3198:	0000000a 	.word	0x0000000a
    319c:	70616568 	.word	0x70616568
    31a0:	6174735f 	.word	0x6174735f
    31a4:	70207472 	.word	0x70207472
    31a8:	69766572 	.word	0x69766572
    31ac:	003a7765 	.word	0x003a7765
    31b0:	6b726273 	.word	0x6b726273
    31b4:	20293028 	.word	0x20293028
    31b8:	76657270 	.word	0x76657270
    31bc:	3a776569 	.word	0x3a776569
    31c0:	00000000 	.word	0x00000000
    31c4:	63617473 	.word	0x63617473
    31c8:	6e28206b 	.word	0x6e28206b
    31cc:	20726165 	.word	0x20726165
    31d0:	20295053 	.word	0x20295053
    31d4:	76657270 	.word	0x76657270
    31d8:	3a776569 	.word	0x3a776569
    31dc:	00000000 	.word	0x00000000
    31e0:	203d3d3d 	.word	0x203d3d3d
    31e4:	20444e45 	.word	0x20444e45
    31e8:	4c4c5546 	.word	0x4c4c5546
    31ec:	4d454d20 	.word	0x4d454d20
    31f0:	41545320 	.word	0x41545320
    31f4:	3d204554 	.word	0x3d204554
    31f8:	0a0d3d3d 	.word	0x0a0d3d3d
    31fc:	00000000 	.word	0x00000000
    3200:	70616568 	.word	0x70616568
    3204:	00000000 	.word	0x00000000
    3208:	2f737362 	.word	0x2f737362
    320c:	61746164 	.word	0x61746164
    3210:	00000000 	.word	0x00000000
    3214:	63617473 	.word	0x63617473
    3218:	0000006b 	.word	0x0000006b
    321c:	6e6b6e75 	.word	0x6e6b6e75
    3220:	006e776f 	.word	0x006e776f
    3224:	00203d20 	.word	0x00203d20
    3228:	005b2020 	.word	0x005b2020
    322c:	7320205d 	.word	0x7320205d
    3230:	3d657a69 	.word	0x3d657a69
    3234:	00000000 	.word	0x00000000
    3238:	00002020 	.word	0x00002020
    323c:	3d6c6176 	.word	0x3d6c6176
    3240:	00000000 	.word	0x00000000
    3244:	00002820 	.word	0x00002820
    3248:	00000029 	.word	0x00000029
    324c:	3d6c6176 	.word	0x3d6c6176
    3250:	00007830 	.word	0x00007830
    3254:	6c6c7566 	.word	0x6c6c7566
    3258:	65697620 	.word	0x65697620
    325c:	70282077 	.word	0x70282077
    3260:	746e6972 	.word	0x746e6972
    3264:	20676e69 	.word	0x20676e69
    3268:	69746e65 	.word	0x69746e65
    326c:	72206572 	.word	0x72206572
    3270:	6f696765 	.word	0x6f696765
    3274:	003a296e 	.word	0x003a296e
    3278:	76657270 	.word	0x76657270
    327c:	3a776569 	.word	0x3a776569
    3280:	00000000 	.word	0x00000000
    3284:	7572745b 	.word	0x7572745b
    3288:	7461636e 	.word	0x7461636e
    328c:	005d6465 	.word	0x005d6465
    3290:	3d3d0a0d 	.word	0x3d3d0a0d
    3294:	4156203d 	.word	0x4156203d
    3298:	42414952 	.word	0x42414952
    329c:	2053454c 	.word	0x2053454c
    32a0:	4d4d5553 	.word	0x4d4d5553
    32a4:	20595241 	.word	0x20595241
    32a8:	6e656728 	.word	0x6e656728
    32ac:	63697265 	.word	0x63697265
    32b0:	3d3d2029 	.word	0x3d3d2029
    32b4:	000a0d3d 	.word	0x000a0d3d
    32b8:	65657266 	.word	0x65657266
    32bc:	61656820 	.word	0x61656820
    32c0:	20202070 	.word	0x20202070
    32c4:	693c203d 	.word	0x693c203d
    32c8:	6c61766e 	.word	0x6c61766e
    32cc:	0d3e6469 	.word	0x0d3e6469
    32d0:	0000000a 	.word	0x0000000a
    32d4:	203d3d3d 	.word	0x203d3d3d
    32d8:	20444e45 	.word	0x20444e45
    32dc:	49524156 	.word	0x49524156
    32e0:	454c4241 	.word	0x454c4241
    32e4:	55532053 	.word	0x55532053
    32e8:	52414d4d 	.word	0x52414d4d
    32ec:	3d3d2059 	.word	0x3d3d2059
    32f0:	000a0d3d 	.word	0x000a0d3d
    32f4:	203e0a0d 	.word	0x203e0a0d
    32f8:	00000000 	.word	0x00000000
    32fc:	52450a0d 	.word	0x52450a0d
    3300:	3a524f52 	.word	0x3a524f52
    3304:	6e696c20 	.word	0x6e696c20
    3308:	6f742065 	.word	0x6f742065
    330c:	6f6c206f 	.word	0x6f6c206f
    3310:	0a0d676e 	.word	0x0a0d676e
    3314:	0000203e 	.word	0x0000203e
    3318:	00000920 	.word	0x00000920
    331c:	4e595350 	.word	0x4e595350
    3320:	00000000 	.word	0x00000000
    3324:	52450a0d 	.word	0x52450a0d
    3328:	3a524f52 	.word	0x3a524f52
    332c:	73696d20 	.word	0x73696d20
    3330:	676e6973 	.word	0x676e6973
    3334:	6c617620 	.word	0x6c617620
    3338:	202e6575 	.word	0x202e6575
    333c:	3a657355 	.word	0x3a657355
    3340:	59535020 	.word	0x59535020
    3344:	206e204e 	.word	0x206e204e
    3348:	3d6e2820 	.word	0x3d6e2820
    334c:	392e2e35 	.word	0x392e2e35
    3350:	0a0d2936 	.word	0x0a0d2936
    3354:	0000203e 	.word	0x0000203e
    3358:	52450a0d 	.word	0x52450a0d
    335c:	3a524f52 	.word	0x3a524f52
    3360:	766e6920 	.word	0x766e6920
    3364:	64696c61 	.word	0x64696c61
    3368:	6d756e20 	.word	0x6d756e20
    336c:	2e726562 	.word	0x2e726562
    3370:	65735520 	.word	0x65735520
    3374:	5350203a 	.word	0x5350203a
    3378:	6e204e59 	.word	0x6e204e59
    337c:	203e0a0d 	.word	0x203e0a0d
    3380:	00000000 	.word	0x00000000
    3384:	52450a0d 	.word	0x52450a0d
    3388:	3a524f52 	.word	0x3a524f52
    338c:	6c617620 	.word	0x6c617620
    3390:	6f206575 	.word	0x6f206575
    3394:	6f207475 	.word	0x6f207475
    3398:	61722066 	.word	0x61722066
    339c:	2065676e 	.word	0x2065676e
    33a0:	2e2e3528 	.word	0x2e2e3528
    33a4:	0d293639 	.word	0x0d293639
    33a8:	00203e0a 	.word	0x00203e0a
    33ac:	52450a0d 	.word	0x52450a0d
    33b0:	3a524f52 	.word	0x3a524f52
    33b4:	6b6e7520 	.word	0x6b6e7520
    33b8:	6e776f6e 	.word	0x6e776f6e
    33bc:	6d6f6320 	.word	0x6d6f6320
    33c0:	646e616d 	.word	0x646e616d
    33c4:	7355202e 	.word	0x7355202e
    33c8:	50203a65 	.word	0x50203a65
    33cc:	204e5953 	.word	0x204e5953
    33d0:	3e0a0d6e 	.word	0x3e0a0d6e
    33d4:	00000020 	.word	0x00000020
    33d8:	4f525245 	.word	0x4f525245
    33dc:	6d203a52 	.word	0x6d203a52
    33e0:	6f6c6c61 	.word	0x6f6c6c61
    33e4:	6f662063 	.word	0x6f662063
    33e8:	6d632072 	.word	0x6d632072
    33ec:	6f6c5f64 	.word	0x6f6c5f64
    33f0:	206c6163 	.word	0x206c6163
    33f4:	6c696166 	.word	0x6c696166
    33f8:	0a0d6465 	.word	0x0a0d6465
    33fc:	00000000 	.word	0x00000000
    3400:	5f646d63 	.word	0x5f646d63
    3404:	61636f6c 	.word	0x61636f6c
    3408:	7470206c 	.word	0x7470206c
    340c:	203d2072 	.word	0x203d2072
    3410:	00000000 	.word	0x00000000
    3414:	6c203b20 	.word	0x6c203b20
    3418:	3d206e65 	.word	0x3d206e65
    341c:	00000020 	.word	0x00000020
    3420:	0000000a 	.word	0x0000000a
    3424:	77705f67 	.word	0x77705f67
    3428:	7265506d 	.word	0x7265506d
    342c:	00646f69 	.word	0x00646f69
    3430:	77705f67 	.word	0x77705f67
    3434:	6c75506d 	.word	0x6c75506d
    3438:	00006573 	.word	0x00006573
    343c:	55424544 	.word	0x55424544
    3440:	41203a47 	.word	0x41203a47
    3444:	72657466 	.word	0x72657466
    3448:	4d575020 	.word	0x4d575020
    344c:	72617620 	.word	0x72617620
    3450:	6c626169 	.word	0x6c626169
    3454:	202c7365 	.word	0x202c7365
    3458:	74736574 	.word	0x74736574
    345c:	20676e69 	.word	0x20676e69
    3460:	6c6c616d 	.word	0x6c6c616d
    3464:	2e2e636f 	.word	0x2e2e636f
    3468:	000a0d2e 	.word	0x000a0d2e
    346c:	5f4e5944 	.word	0x5f4e5944
    3470:	54534554 	.word	0x54534554
    3474:	6548203a 	.word	0x6548203a
    3478:	206f6c6c 	.word	0x206f6c6c
    347c:	6d6f7266 	.word	0x6d6f7266
    3480:	6e796420 	.word	0x6e796420
    3484:	63696d61 	.word	0x63696d61
    3488:	66756220 	.word	0x66756220
    348c:	21726566 	.word	0x21726566
    3490:	00000000 	.word	0x00000000
    3494:	55424544 	.word	0x55424544
    3498:	73203a47 	.word	0x73203a47
    349c:	656c7274 	.word	0x656c7274
    34a0:	6f63206e 	.word	0x6f63206e
    34a4:	656c706d 	.word	0x656c706d
    34a8:	2c646574 	.word	0x2c646574
    34ac:	74696c20 	.word	0x74696c20
    34b0:	6e656c5f 	.word	0x6e656c5f
    34b4:	0000003d 	.word	0x0000003d
    34b8:	00000a0d 	.word	0x00000a0d
    34bc:	4f525245 	.word	0x4f525245
    34c0:	6d203a52 	.word	0x6d203a52
    34c4:	6f6c6c61 	.word	0x6f6c6c61
    34c8:	61662063 	.word	0x61662063
    34cc:	64656c69 	.word	0x64656c69
    34d0:	00000a0d 	.word	0x00000a0d
    34d4:	55424544 	.word	0x55424544
    34d8:	6d203a47 	.word	0x6d203a47
    34dc:	6f6c6c61 	.word	0x6f6c6c61
    34e0:	75732063 	.word	0x75732063
    34e4:	65656363 	.word	0x65656363
    34e8:	2c646564 	.word	0x2c646564
    34ec:	72747020 	.word	0x72747020
    34f0:	0000003d 	.word	0x0000003d
    34f4:	55424544 	.word	0x55424544
    34f8:	6d203a47 	.word	0x6d203a47
    34fc:	70636d65 	.word	0x70636d65
    3500:	6f632079 	.word	0x6f632079
    3504:	656c706d 	.word	0x656c706d
    3508:	0d646574 	.word	0x0d646574
    350c:	0000000a 	.word	0x0000000a
    3510:	55424544 	.word	0x55424544
    3514:	41203a47 	.word	0x41203a47
    3518:	74756f62 	.word	0x74756f62
    351c:	206f7420 	.word	0x206f7420
    3520:	6c6c6163 	.word	0x6c6c6163
    3524:	61696420 	.word	0x61696420
    3528:	72705f67 	.word	0x72705f67
    352c:	5f746e69 	.word	0x5f746e69
    3530:	69726176 	.word	0x69726176
    3534:	656c6261 	.word	0x656c6261
    3538:	74697720 	.word	0x74697720
    353c:	4f4e2068 	.word	0x4f4e2068
    3540:	494d494c 	.word	0x494d494c
    3544:	2e2e2e54 	.word	0x2e2e2e54
    3548:	00000a0d 	.word	0x00000a0d
    354c:	5f6e7964 	.word	0x5f6e7964
    3550:	00727473 	.word	0x00727473
    3554:	55424544 	.word	0x55424544
    3558:	64203a47 	.word	0x64203a47
    355c:	5f676169 	.word	0x5f676169
    3560:	6e697270 	.word	0x6e697270
    3564:	61765f74 	.word	0x61765f74
    3568:	62616972 	.word	0x62616972
    356c:	6320656c 	.word	0x6320656c
    3570:	6c706d6f 	.word	0x6c706d6f
    3574:	64657465 	.word	0x64657465
    3578:	00000a0d 	.word	0x00000a0d
    357c:	2d657270 	.word	0x2d657270
    3580:	69727073 	.word	0x69727073
    3584:	2d66746e 	.word	0x2d66746e
    3588:	74736574 	.word	0x74736574
    358c:	00000000 	.word	0x00000000
    3590:	55424544 	.word	0x55424544
    3594:	41203a47 	.word	0x41203a47
    3598:	74756f62 	.word	0x74756f62
    359c:	206f7420 	.word	0x206f7420
    35a0:	6c636564 	.word	0x6c636564
    35a4:	20657261 	.word	0x20657261
    35a8:	6267736d 	.word	0x6267736d
    35ac:	335b6675 	.word	0x335b6675
    35b0:	2e5d3032 	.word	0x2e5d3032
    35b4:	0a0d2e2e 	.word	0x0a0d2e2e
    35b8:	00000000 	.word	0x00000000
    35bc:	6f666562 	.word	0x6f666562
    35c0:	6d2d6572 	.word	0x6d2d6572
    35c4:	75626773 	.word	0x75626773
    35c8:	65642d66 	.word	0x65642d66
    35cc:	72616c63 	.word	0x72616c63
    35d0:	6f697461 	.word	0x6f697461
    35d4:	0000006e 	.word	0x0000006e
    35d8:	65746661 	.word	0x65746661
    35dc:	736d2d72 	.word	0x736d2d72
    35e0:	66756267 	.word	0x66756267
    35e4:	6365642d 	.word	0x6365642d
    35e8:	6172616c 	.word	0x6172616c
    35ec:	6e6f6974 	.word	0x6e6f6974
    35f0:	00000000 	.word	0x00000000
    35f4:	55424544 	.word	0x55424544
    35f8:	6d203a47 	.word	0x6d203a47
    35fc:	75626773 	.word	0x75626773
    3600:	65642066 	.word	0x65642066
    3604:	72616c63 	.word	0x72616c63
    3608:	202c6465 	.word	0x202c6465
    360c:	74736574 	.word	0x74736574
    3610:	20676e69 	.word	0x20676e69
    3614:	2072756f 	.word	0x2072756f
    3618:	69727073 	.word	0x69727073
    361c:	2066746e 	.word	0x2066746e
    3620:	6c706572 	.word	0x6c706572
    3624:	6d656361 	.word	0x6d656361
    3628:	2e746e65 	.word	0x2e746e65
    362c:	0a0d2e2e 	.word	0x0a0d2e2e
    3630:	00000000 	.word	0x00000000
    3634:	49525053 	.word	0x49525053
    3638:	3a46544e 	.word	0x3a46544e
    363c:	6e796420 	.word	0x6e796420
    3640:	20702540 	.word	0x20702540
    3644:	3d6e656c 	.word	0x3d6e656c
    3648:	63207525 	.word	0x63207525
    364c:	65746e6f 	.word	0x65746e6f
    3650:	3d73746e 	.word	0x3d73746e
    3654:	27732527 	.word	0x27732527
    3658:	00000a0d 	.word	0x00000a0d
    365c:	55424544 	.word	0x55424544
    3660:	73203a47 	.word	0x73203a47
    3664:	6e697270 	.word	0x6e697270
    3668:	72206674 	.word	0x72206674
    366c:	616c7065 	.word	0x616c7065
    3670:	656d6563 	.word	0x656d6563
    3674:	7320746e 	.word	0x7320746e
    3678:	65636375 	.word	0x65636375
    367c:	64656465 	.word	0x64656465
    3680:	3d6e202c 	.word	0x3d6e202c
    3684:	00000000 	.word	0x00000000
    3688:	55424544 	.word	0x55424544
    368c:	55203a47 	.word	0x55203a47
    3690:	53545241 	.word	0x53545241
    3694:	20646e65 	.word	0x20646e65
    3698:	706d6f63 	.word	0x706d6f63
    369c:	6574656c 	.word	0x6574656c
    36a0:	000a0d64 	.word	0x000a0d64
    36a4:	4f525245 	.word	0x4f525245
    36a8:	73203a52 	.word	0x73203a52
    36ac:	6e697270 	.word	0x6e697270
    36b0:	72206674 	.word	0x72206674
    36b4:	616c7065 	.word	0x616c7065
    36b8:	656d6563 	.word	0x656d6563
    36bc:	6620746e 	.word	0x6620746e
    36c0:	656c6961 	.word	0x656c6961
    36c4:	000a0d64 	.word	0x000a0d64
    36c8:	55424544 	.word	0x55424544
    36cc:	66203a47 	.word	0x66203a47
    36d0:	20656572 	.word	0x20656572
    36d4:	706d6f63 	.word	0x706d6f63
    36d8:	6574656c 	.word	0x6574656c
    36dc:	000a0d64 	.word	0x000a0d64
    36e0:	6b726273 	.word	0x6b726273
    36e4:	00293028 	.word	0x00293028
    36e8:	53204f4e 	.word	0x53204f4e
    36ec:	49535345 	.word	0x49535345
    36f0:	41204e4f 	.word	0x41204e4f
    36f4:	56495443 	.word	0x56495443
    36f8:	000a0d45 	.word	0x000a0d45
    36fc:	53534553 	.word	0x53534553
    3700:	204e4f49 	.word	0x204e4f49
    3704:	20534157 	.word	0x20534157
    3708:	54494e49 	.word	0x54494e49
    370c:	45544149 	.word	0x45544149
    3710:	000a0d44 	.word	0x000a0d44
    3714:	57500a0d 	.word	0x57500a0d
    3718:	6552204d 	.word	0x6552204d
    371c:	2e796461 	.word	0x2e796461
    3720:	746e4520 	.word	0x746e4520
    3724:	63207265 	.word	0x63207265
    3728:	616d6d6f 	.word	0x616d6d6f
    372c:	203a646e 	.word	0x203a646e
    3730:	4e595350 	.word	0x4e595350
    3734:	20206e20 	.word	0x20206e20
    3738:	3d206e28 	.word	0x3d206e28
    373c:	2e2e3520 	.word	0x2e2e3520
    3740:	0d293639 	.word	0x0d293639
    3744:	00203e0a 	.word	0x00203e0a
    3748:	5f646d63 	.word	0x5f646d63
    374c:	61636f6c 	.word	0x61636f6c
    3750:	4542206c 	.word	0x4542206c
    3754:	45524f46 	.word	0x45524f46
    3758:	6d656d20 	.word	0x6d656d20
    375c:	3a797063 	.word	0x3a797063
    3760:	00000020 	.word	0x00000020
    3764:	53524150 	.word	0x53524150
    3768:	54204445 	.word	0x54204445
    376c:	20534948 	.word	0x20534948
    3770:	4d4d4f43 	.word	0x4d4d4f43
    3774:	3a444e41 	.word	0x3a444e41
    3778:	00000020 	.word	0x00000020
    377c:	53534553 	.word	0x53534553
    3780:	204e4f49 	.word	0x204e4f49
    3784:	20534157 	.word	0x20534157
    3788:	43534944 	.word	0x43534944
    378c:	454e4e4f 	.word	0x454e4e4f
    3790:	44455443 	.word	0x44455443
    3794:	00000a0d 	.word	0x00000a0d

00003798 <g_pui32GPIOBaseAddrs>:
    3798:	40004000 40058000 40005000 40059000     .@.@...@.P.@...@
    37a8:	40006000 4005a000 40007000 4005b000     .`.@...@.p.@...@
    37b8:	40024000 4005c000 40025000 4005d000     .@.@...@.P.@...@
    37c8:	40026000 4005e000 40027000 4005f000     .`.@...@.p.@...@
    37d8:	4003d000 40060000 40061000 40061000     ...@...@...@...@
    37e8:	40062000 40062000 40063000 40063000     . .@. .@.0.@.0.@
    37f8:	40064000 40064000 40065000 40065000     .@.@.@.@.P.@.P.@
    3808:	40066000 40066000 40067000 40067000     .`.@.`.@.p.@.p.@
    3818:	40068000 40068000 40069000 40069000     ...@...@...@...@

00003828 <g_pui32VCOFrequencies>:
    3828:	09896800 0e4e1c00                       .h....N.

00003830 <g_sXTALtoMEMTIM>:
    3830:	00f42400 00300030 02625a00 00910091     .$..0.0..Zb.....
    3840:	03938700 00d200d2 04c4b400 01130113     ................
    3850:	05f5e100 01540154 07270e00 01950195     ....T.T...'.....

00003860 <g_pppui32XTALtoVCO>:
    3860:	00000040 00000000 00000100 0008003e     @...........>...
    3870:	00000000 00000100 000000a0 00000002     ................
    3880:	00000100 00015434 00000000 00000100     ....4T..........
    3890:	0006702b 00000000 00000100 00000028     +p..........(...
    38a0:	00000000 00000100 00010027 00000000     ........'.......
    38b0:	00000100 00000020 00000000 00000100     .... ...........
    38c0:	00000050 00000002 00000100 0000ac1a     P...............
    38d0:	00000000 00000100 00099417 00000000     ................
    38e0:	00000100 00059816 00000000 00000100     ................
    38f0:	00000014 00000000 00000100 00088013     ................
    3900:	00000000 00000100 000000a0 00000008     ................
    3910:	00000100 00000010 00000000 00000100     ................
    3920:	00000028 00000002 00000100 00000040     (...........@...
    3930:	00000004 00000100 00000060 00000000     ........`.......
    3940:	00000100 000c005d 00000000 00000100     ....]...........
    3950:	00000050 00000000 00000100 0002004e     P...........N...
    3960:	00000000 00000100 0001ac41 00000000     ........A.......
    3970:	00000100 0000003c 00000000 00000100     ....<...........
    3980:	0009803a 00000000 00000100 00000030     :...........0...
    3990:	00000000 00000100 00000028 00000000     ........(.......
    39a0:	00000100 00010027 00000000 00000100     ....'...........
    39b0:	00066023 00000000 00000100 00086021     #`..........!`..
    39c0:	00000000 00000100 0000001e 00000000     ................
    39d0:	00000100 0004c01d 00000000 00000100     ................
    39e0:	00000050 00000002 00000100 00000018     P...............
    39f0:	00000000 00000100 00000014 00000000     ................
    3a00:	00000100 00000060 00000004 00000100     ....`...........

00003a10 <g_pui32Xtals>:
    3a10:	000f4240 001c2000 001e8480 00258000     @B... ........%.
    3a20:	00369e99 00384000 003d0900 003e8000     ..6..@8...=...>.
    3a30:	004b0000 004c4b40 004e2000 005b8d80     ..K.@KL.. N...[.
    3a40:	005dc000 00708000 007a1200 007d0000     ..]...p...z...}.
    3a50:	00989680 00b71b00 00bb8000 00cee8c0     ................
    3a60:	00da7a64 00f42400 00fa0000 0112a880     dz...$..........
    3a70:	01312d00 016e3600 017d7840              .-1..6n.@x}.

00003a7c <_ctype_>:
    3a7c:	20202000 20202020 28282020 20282828     .         ((((( 
    3a8c:	20202020 20202020 20202020 20202020                     
    3a9c:	10108820 10101010 10101010 10101010      ...............
    3aac:	04040410 04040404 10040404 10101010     ................
    3abc:	41411010 41414141 01010101 01010101     ..AAAAAA........
    3acc:	01010101 01010101 01010101 10101010     ................
    3adc:	42421010 42424242 02020202 02020202     ..BBBBBB........
    3aec:	02020202 02020202 02020202 10101010     ................
    3afc:	00000020 00000000 00000000 00000000      ...............
	...
